#SYMBOLS
Index	Identifier	Type	Flag	Data	Size	RefCount
0	__D0RecebiDesGirei	6	1	0	4	9
1	__D0RecebiGirei	6	1	4	4	9
2	__D0RecebeBoneco	6	1	8	4	3
3	__D0PegaBoneco	6	1	12	4	17
4	__D0PlaySound	6	1	16	4	63
5	__D0Rejeita	6	1	20	4	8
6	__DU0SetSensorLowspeed_inline_InicializaSensores	5	1	24	4	5
7	__signed_stack_001BonecoAlvo	6	1	28	4	4
8	__D0SetSensorLowspeed_inline_InicializaSensores	6	1	32	4	2
9	__D0TemBoneco	6	1	36	4	27
10	__D0VoltaGarra	6	1	40	4	8
11	__D0CalibraFaixaBase	6	1	44	4	12
12	__D0consultor	6	1	48	4	13
13	__D0BonecoNaFrente	6	1	52	4	27
14	__SPTArgsMutex	9	0	56	4	14
15	__D0BonecoAlvo	6	1	60	4	8
16	__D0CorBoneco	6	1	64	4	29
17	__D0nbip	6	1	68	4	4
18	__D0Pega	6	1	72	4	10
19	__D0MandaUs	6	1	76	4	3
20	__D0lerSensor	6	1	80	4	37
21	__D0LevantaBoneco	6	1	84	4	6
22	__signed_stack_001RecebiDesGirei	6	1	88	4	2
23	__signed_stack_001RecebiGirei	6	1	92	4	2
24	__signed_stack_003PlaySound	6	1	96	4	14
25	__signed_stack_001PlaySound	6	1	100	4	44
26	__signed_stack_002PlaySound	6	1	104	4	14
27	__signed_stack_001TemBoneco	6	1	108	4	12
28	__Wait_7qG2_ms_7qG2_000_inline_Pega	5	1	112	4	2
29	__Wait_7qG2_ms_7qG2_000_inline_BonecoNaFrente	5	1	116	4	4
30	__Wait_7qG2_ms_7qG2_000_inline_VoltaGarra	5	1	120	4	2
31	__signed_stack_001VoltaGarra	6	1	124	4	4
32	__Wait_7qG2_ms_7qG2_000_inline_PegaBoneco	5	1	128	4	2
33	__signed_stack_001consultor	6	1	132	4	2
34	__signed_stack_001CorBoneco	6	1	136	4	12
35	__signed_stack_001CalibraFaixaBase	6	1	140	4	12
36	__signed_stack_001BonecoNaFrente	6	1	144	4	10
37	__signed_stack_002BonecoNaFrente	6	1	148	4	2
38	__signed_stack_001lerSensor	6	1	152	4	18
39	__signed_stack_001Pega	6	1	156	4	4
40	__signed_stack_001PegaBoneco	6	1	160	4	4
41	__signed_stack_001nbip	6	1	164	4	2
42	__signed_stack_002lerSensor	6	1	168	4	6
43	__signed_stack_001LevantaBoneco	6	1	172	4	2
44	__RRNTmpVal	6	1	176	4	12
45	__MRMutex	9	0	180	4	6
46	__CBTWMutex	9	0	184	4	12
47	__RemoteMutex	9	0	188	4	12
48	__SRSTmpLongVal	6	1	192	4	12
49	__CLSWMutex3	9	0	196	4	2
50	__CLSCSMutex3	9	0	200	4	2
51	__CLSRMutex3	9	0	204	4	2
52	__RLSBmutex3	9	0	208	4	2
53	__TextOutMutex	9	0	212	4	2
54	__lerSensor_7qG2_sensor_7qG2_000	4	1	216	2	8
55	__constValNeg153	4	0	218	2	1
56	BonecosCapturados	4	1	220	2	5
57	bonecoAlvo	4	1	222	2	3
58	bonecoNaoAlvo	4	1	224	2	3
59	__CalibraFaixaBase_7qG2_rgb_meio_7qG2_000	4	1	226	2	3
60	__CalibraFaixaBase_7qG2_rgb_esq_7qG2_000	4	1	228	2	3
61	__lerSensor_7qG2_aux_7qG2_000	4	1	230	2	4
62	__VoltaGarra_7qG2_old_tc_7qG2_000	4	1	232	2	2
63	__VoltaGarra_7qG2_tc_7qG2_000	4	1	234	2	4
64	__CalibraFaixaBase_7qG2_rgb_dir_7qG2_000	4	1	236	2	3
65	__PegaBoneco_7qG2_old_tc_7qG2_000	4	1	238	2	2
66	CorBaseDirMin	4	1	240	2	2
67	CorBaseDirMax	4	1	242	2	2
68	CorBaseEsqMax	4	1	244	2	2
69	CorBaseMeioMin	4	1	246	2	2
70	CorBaseEsqMin	4	1	248	2	2
71	__constVal500	4	0	250	2	1
72	__PlaySound_7qG2_aCode_7qG2_000	4	1	252	2	11
73	__PegaBoneco_7qG2_tc_7qG2_000	4	1	254	2	5
74	CorBaseMeioMax	4	1	256	2	2
75	__PlaySound_7qG2_i_7qG2_001	4	1	258	2	15
76	__constVal150	4	0	260	2	1
77	__nbip_7qG2_n_7qG2_000	4	1	262	2	4
78	__TemBoneco_7qG2_rgb_dir_7qG2_000	4	1	264	2	3
79	__TemBoneco_7qG2_rgb_esq_7qG2_000	4	1	266	2	3
80	__TemBoneco_7qG2_rgb_meio_7qG2_000	4	1	268	2	3
81	__BonecoNaFrente_7qG2_cor_7qG2_000	4	1	270	2	4
82	__RecebiDesGirei_7qG2_aux_7qG2_000	4	1	272	2	2
83	__RecebiGirei_7qG2_aux_7qG2_000	4	1	274	2	2
84	__constVal200	4	0	276	2	3
85	__MandaUs_7qG2_aux_7qG2_000	4	1	278	2	2
86	__lerSensor_7qG2_j_7qG2_000	4	1	280	2	8
87	__CorBoneco_7qG2_leitura_7qG2_000	4	1	282	2	6
88	__nbip_7qG2_i_7qG2_000	4	1	284	2	4
89	__lerSensor_7qG2_i_7qG2_000	4	1	286	2	8
90	__constVal128	4	0	288	2	3
91	__lerSensor_7qG2_k_7qG2_000	4	1	290	2	6
92	__consultor_7qG2_mensagem_7qG2_000	4	1	292	2	2
93	__SetSensorMode_7qG2_port_7qG2_000_inline_SetSensorLowspeed_inline_InicializaSensores	1	1	294	1	2
94	__SetSensorType_7qG2_port_7qG2_000_inline_SetSensorLowspeed_inline_InicializaSensores	1	1	295	1	2
95	__SetSensorType_7qG2_type_7qG2_000_inline_SetSensorLowspeed_inline_InicializaSensores	1	1	296	1	2
96	__BipBranco_return	1	1	297	1	3
97	__lerSensor_return	1	1	298	1	10
98	__BipPreto_return	1	1	299	1	3
99	__SetSensorMode_7qG2_mode_7qG2_000_inline_SetSensorLowspeed_inline_InicializaSensores	1	1	300	1	2
100	__RecebeBoneco_return	1	1	301	1	4
101	__MandaTeste_return	1	1	302	1	3
102	__Rejeita_return	1	1	303	1	4
103	__LevantaBoneco_return	1	1	304	1	4
104	__MandarParar_return	1	1	305	1	3
105	__MandarSeguir_return	1	1	306	1	5
106	__constValNeg1	2	0	307	1	1
107	__MandaDesgirar_return	1	1	308	1	3
108	__RecebiDesGirei_return	1	1	309	1	5
109	__RecebiGirei_return	1	1	310	1	5
110	__constVal32	2	0	311	1	27
111	__MandaRejeitar_return	1	1	312	1	3
112	__constVal0	2	1	313	1	54
113	__constVal63	2	0	314	1	9
114	__constVal50	2	0	315	1	1
115	__constVal96	2	0	316	1	9
116	__PegaBoneco_return	1	1	317	1	5
117	__constValNeg30	2	0	318	1	2
118	__constVal1	2	0	319	1	22
119	__constValNeg70	2	0	320	1	2
120	__constValNeg110	2	0	321	1	1
121	__Pega_return	1	1	322	1	3
122	__CorBoneco_return	1	1	323	1	6
123	__constValNeg50	2	0	324	1	1
124	__SetSensorLowspeed_7qG2_bIsPowered_7qG2_000_inline_InicializaSensores	1	1	325	1	2
125	__constVal15	2	0	326	1	2
126	____ResetSensorSubroutine_return	1	1	327	1	6
127	__constVal14	2	0	328	1	2
128	__constVal11	2	0	329	1	1
129	__constVal5	2	0	330	1	7
130	__constVal4	2	0	331	1	1
131	__ResetSensorTmp	1	1	332	1	2
132	__ResetSensorPort	1	1	333	1	6
133	__LSWriteOptionsVar	1	1	334	1	2
134	__RLSBResult3	2	1	335	1	7
135	__RRNErr	1	1	336	1	3
136	__RLSBIterations3	1	1	337	1	4
137	__RLSBytesCount3	1	1	338	1	7
138	__constVal100	2	0	339	1	2
139	__PFTmp	1	1	340	1	1
140	____ReadLSBytes3_return	1	1	341	1	3
141	__constVal2	2	0	342	1	10
142	__constVal3	2	0	343	1	18
143	__CalibraFaixaBase_return	1	1	344	1	4
144	__InicializaSensores_return	1	1	345	1	3
145	__BonecoNaFrente_return	1	1	346	1	3
146	__MandaUs_return	1	1	347	1	3
147	__VoltaGarra_return	1	1	348	1	8
148	__SetSensorColorGreen_7qG2_port_7qG2_000_inline_InicializaSensores	1	1	349	1	4
149	__SetSensorLowspeed_7qG2_port_7qG2_000_inline_InicializaSensores	1	1	350	1	4
150	__BonecoAlvo_return	1	1	351	1	3
151	__SetSensorColorRed_7qG2_port_7qG2_000_inline_InicializaSensores	1	1	352	1	8
152	__nbip_return	1	1	353	1	5
153	____initialize_global_data_return	1	1	354	1	3
154	__bip_return	1	1	355	1	5
155	__PlaySound_return	1	1	356	1	7
156	__constVal8	2	0	357	1	1
157	__init_return	1	1	358	1	3
158	__TemBoneco_return	1	1	359	1	5
159	__consultor_return	1	1	360	1	3
160	__MRArgs	8	0	4	8	15
161	__MRArgs.Result	2	1	364	1	15
162	__MRArgs.QueueID	1	1	365	1	15
163	__MRArgs.Remove	1	1	366	1	15
164	__MRArgs.Message	7	0	368	4	15
165	__MRArgs.Message.Message_type	1	0	0	1	0
166	__SPTArgs	8	0	5	8	42
167	__SPTArgs.Result	2	1	372	1	42
168	__SPTArgs.Frequency	3	1	374	2	42
169	__SPTArgs.Duration	3	1	376	2	42
170	__SPTArgs.Loop	1	1	378	1	42
171	__SPTArgs.Volume	1	1	379	1	42
172	__CBTWArgs	8	0	3	8	19
173	__CBTWArgs.Result	2	1	380	1	19
174	__CBTWArgs.Connection	1	1	381	1	19
175	__CBTWArgs.Buffer	7	0	382	4	19
176	__CBTWArgs.Buffer.Buffer_type	1	0	0	1	0
177	__CLSRArgs3	8	0	4	12	5
178	__CLSRArgs3.Result	2	1	384	1	5
179	__CLSRArgs3.Port	1	1	385	1	5
180	__CLSRArgs3.Buffer	7	0	386	4	5
181	__CLSRArgs3.Buffer.Buffer_type	1	0	0	1	0
182	__CLSRArgs3.BufferLen	1	1	388	1	5
183	__TextOutArgs	8	0	4	16	6
184	__TextOutArgs.Result	2	1	392	1	6
185	__TextOutArgs.Location	8	0	2	4	6
186	__TextOutArgs.Location.X	4	1	396	2	6
187	__TextOutArgs.Location.Y	4	1	398	2	6
188	__TextOutArgs.Text	7	0	400	4	6
189	__TextOutArgs.Text.Text_type	1	0	0	1	0
190	__TextOutArgs.Options	5	1	404	4	6
191	__PointOutArgs	8	0	3	12	4
192	__PointOutArgs.Result	2	1	408	1	4
193	__PointOutArgs.Location	8	0	2	4	4
194	__PointOutArgs.Location.X	4	1	412	2	4
195	__PointOutArgs.Location.Y	4	1	414	2	4
196	__PointOutArgs.Options	5	1	416	4	4
197	__CLSCSArgs3	8	0	3	4	4
198	__CLSCSArgs3.Result	2	1	420	1	4
199	__CLSCSArgs3.Port	1	1	421	1	4
200	__CLSCSArgs3.BytesReady	1	1	422	1	4
201	__CLSWArgs3	8	0	4	12	5
202	__CLSWArgs3.Result	2	1	424	1	5
203	__CLSWArgs3.Port	1	1	425	1	5
204	__CLSWArgs3.Buffer	7	0	426	4	5
205	__CLSWArgs3.Buffer.Buffer_type	1	0	0	1	0
206	__CLSWArgs3.ReturnLen	1	1	428	1	5
207	__lerSensor_7qG2_leitura_7qG2_000	7	0	430	4	10
208	__lerSensor_7qG2_leitura_7qG2_000.__lerSensor_7qG2_leitura_7qG2_000_type	4	0	0	2	0
209	__LSWriteOptions	7	0	432	4	1
210	__LSWriteOptions.__LSWriteOptions_type	1	0	0	1	0
211	__RLSBbufLSWrite1	7	0	434	4	1
212	__RLSBbufLSWrite1.__RLSBbufLSWrite1_type	1	0	0	1	0
213	__RLSLastGoodRead3	7	0	436	4	2
214	__RLSLastGoodRead3.__RLSLastGoodRead3_type	1	0	0	1	0
215	__RLSReadBuf3	7	0	438	4	8
216	__RLSReadBuf3.__RLSReadBuf3_type	1	0	0	1	0
217	__SRSTmpBuf	7	0	440	4	36
218	__SRSTmpBuf.__SRSTmpBuf_type	1	0	0	1	0
219	__DCMessageWritePacket	7	0	442	4	6
220	__DCMessageWritePacket.__DCMessageWritePacket_type	1	0	0	1	0
221	__SRSFlattenBuf	7	0	444	4	12
222	__SRSFlattenBuf.__SRSFlattenBuf_type	1	0	0	1	0
223	__SRSSendBuf	7	0	446	4	12
224	__SRSSendBuf.__SRSSendBuf_type	1	0	0	1	0
#SOURCES
Clump	Line	PC	Source
0	140	0	#line 140 "C:\Users\Lucas\Desktop\UnB\Droid\sekksi2016\tentativa2\consultor.nxc"
0	141	0		subcall __initialize_global_data, ____initialize_global_data_return
0	140	2	#line 140 "C:\Users\Lucas\Desktop\UnB\Droid\sekksi2016\tentativa2\consultor.nxc"
0	140	2	#line 140 "C:\Users\Lucas\Desktop\UnB\Droid\sekksi2016\tentativa2\consultor.nxc"
0	141	2		subcall consultor, __consultor_return
0	140	5	#line 140 "C:\Users\Lucas\Desktop\UnB\Droid\sekksi2016\tentativa2\consultor.nxc"
0	141	5		exit -1, -1
1	5724	0		setin __constVal1, __ResetSensorPort, 5
1	5726	4		getin __ResetSensorTmp, __ResetSensorPort, 5
1	5727	8		brtst 5, __SensorStillInvalid, __ResetSensorTmp
1	5728	11		subret ____ResetSensorSubroutine_return
2	6632	0	#pragma macro 27
2	6632	0		acquire __CLSWMutex3
2	6632	1		index __LSWriteOptionsVar, __LSWriteOptions, __constVal3
2	6632	5		or __CLSWArgs3.Port, __constVal3, __LSWriteOptionsVar
2	6632	9		mov __CLSWArgs3.ReturnLen, __RLSBytesCount3
2	6632	11		mov __CLSWArgs3.Buffer, __RLSReadBuf3
2	6632	13		syscall 21, __CLSWArgs3
2	6632	16		mov __RLSBResult3, __CLSWArgs3.Result
2	6632	18		release __CLSWMutex3
2	6632	19	#line 6632 "NXTDefs.h"
2	6633	19		brtst 5, __RLSBError3, __RLSBResult3
2	6634	22		set __RLSBIterations3, 60
2	6636	25	#pragma macro 23
2	6636	25		acquire __CLSCSMutex3
2	6636	26		set __CLSCSArgs3.Port, 3
2	6636	29		syscall 23, __CLSCSArgs3
2	6636	32		mov __RLSBytesCount3, __CLSCSArgs3.BytesReady
2	6636	34		mov __RLSBResult3, __CLSCSArgs3.Result
2	6636	36		release __CLSCSMutex3
2	6636	37	#line 6636 "NXTDefs.h"
2	6637	37		sub __RLSBIterations3, __RLSBIterations3, __constVal1
2	6638	41		brtst 2, __RLSBError3, __RLSBIterations3
2	6639	44		brtst 0, __RLSBError3, __RLSBResult3
2	6640	47		brtst 4, __RLSBReadyToRead3, __RLSBResult3
2	6642	50		wait2 NA, __constVal1
2	6643	53		jmp __RLSBDoCheckStatus3
2	6645	55		brtst 4, __RLSBReturn3, __RLSBytesCount3
2	6646	58		arrinit __RLSReadBuf3, __constVal0, __RLSBytesCount3
2	6648	62	#pragma macro 25
2	6648	62		acquire __CLSRMutex3
2	6648	63		set __CLSRArgs3.Port, 3
2	6648	66		mov __CLSRArgs3.BufferLen, __RLSBytesCount3
2	6648	68		syscall 22, __CLSRArgs3
2	6648	71		mov __RLSReadBuf3, __CLSRArgs3.Buffer
2	6648	73		mov __RLSBResult3, __CLSRArgs3.Result
2	6648	75		release __CLSRMutex3
2	6648	76	#line 6648 "NXTDefs.h"
2	6649	76		brtst 5, __RLSBError3, __RLSBResult3
2	6650	79		mov __RLSLastGoodRead3, __RLSReadBuf3
2	6651	81		jmp __RLSBDone3
2	6653	83		mov __RLSReadBuf3, __RLSLastGoodRead3
2	6655	85		arrsize __RLSBytesCount3, __RLSReadBuf3
2	6657	88		subret ____ReadLSBytes3_return
3	7372	0	#line 7372 "NXCDefs.h"
3	7373	0		mov __signed_stack_001PlaySound, __PlaySound_7qG2_aCode_7qG2_000
3	7372	2	#line 7372 "NXCDefs.h"
3	7373	2	#line 7373 "NXCDefs.h"
3	7374	2		set __D0PlaySound, 0
3	7373	5	#line 7373 "NXCDefs.h"
3	7374	5		cmp 4, __D0PlaySound, __signed_stack_001PlaySound, __D0PlaySound
3	7373	9	#line 7373 "NXCDefs.h"
3	7374	9		brtst 4, __ASM_Label_56, __D0PlaySound
3	7373	12	#line 7373 "NXCDefs.h"
3	7374	12		set __signed_stack_001PlaySound, 600
3	7373	15	#line 7373 "NXCDefs.h"
3	7373	15	#line 7373 "NXCDefs.h"
3	7374	15		set __signed_stack_002PlaySound, 200
3	7373	18	#line 7373 "NXCDefs.h"
3	7373	18	#line 7373 "NXCDefs.h"
3	7374	18		set __signed_stack_003PlaySound, 4
3	7373	21	#line 7373 "NXCDefs.h"
3	7373	21	#line 7373 "NXCDefs.h"
3	7374	21		set __D0PlaySound, 0
3	7373	24	#line 7373 "NXCDefs.h"
3	7374	24		acquire __SPTArgsMutex
3	7373	25	#line 7373 "NXCDefs.h"
3	7374	25		mov __SPTArgs.Frequency, __signed_stack_001PlaySound
3	7373	28	#line 7373 "NXCDefs.h"
3	7374	28		mov __SPTArgs.Duration, __signed_stack_002PlaySound
3	7373	31	#line 7373 "NXCDefs.h"
3	7374	31		mov __SPTArgs.Volume, __signed_stack_003PlaySound
3	7373	34	#line 7373 "NXCDefs.h"
3	7374	34		mov __SPTArgs.Loop, __D0PlaySound
3	7373	37	#line 7373 "NXCDefs.h"
3	7374	37		syscall 10, __SPTArgs
3	7373	40	#line 7373 "NXCDefs.h"
3	7374	40		mov __D0PlaySound, __SPTArgs.Result
3	7373	43	#line 7373 "NXCDefs.h"
3	7374	43		release __SPTArgsMutex
3	7373	44	#line 7373 "NXCDefs.h"
3	7374	44	#line 7374 "NXCDefs.h"
3	7375	44		jmp __ASM_Label_65
3	7374	46	#line 7374 "NXCDefs.h"
3	7375	46		mov __signed_stack_001PlaySound, __PlaySound_7qG2_aCode_7qG2_000
3	7374	48	#line 7374 "NXCDefs.h"
3	7375	48	#line 7375 "NXCDefs.h"
3	7376	48		set __D0PlaySound, 1
3	7375	51	#line 7375 "NXCDefs.h"
3	7376	51		cmp 4, __D0PlaySound, __signed_stack_001PlaySound, __D0PlaySound
3	7376	55	#line 7376 "NXCDefs.h"
3	7377	55		brtst 4, __ASM_Label_68, __D0PlaySound
3	7376	58	#line 7376 "NXCDefs.h"
3	7377	58		set __signed_stack_001PlaySound, 600
3	7376	61	#line 7376 "NXCDefs.h"
3	7376	61	#line 7376 "NXCDefs.h"
3	7377	61		set __signed_stack_002PlaySound, 150
3	7376	64	#line 7376 "NXCDefs.h"
3	7376	64	#line 7376 "NXCDefs.h"
3	7377	64		set __signed_stack_003PlaySound, 4
3	7376	67	#line 7376 "NXCDefs.h"
3	7376	67	#line 7376 "NXCDefs.h"
3	7377	67		set __D0PlaySound, 0
3	7376	70	#line 7376 "NXCDefs.h"
3	7377	70		acquire __SPTArgsMutex
3	7376	71	#line 7376 "NXCDefs.h"
3	7377	71		mov __SPTArgs.Frequency, __signed_stack_001PlaySound
3	7376	74	#line 7376 "NXCDefs.h"
3	7377	74		mov __SPTArgs.Duration, __signed_stack_002PlaySound
3	7376	77	#line 7376 "NXCDefs.h"
3	7377	77		mov __SPTArgs.Volume, __signed_stack_003PlaySound
3	7376	80	#line 7376 "NXCDefs.h"
3	7377	80		mov __SPTArgs.Loop, __D0PlaySound
3	7376	83	#line 7376 "NXCDefs.h"
3	7377	83		syscall 10, __SPTArgs
3	7376	86	#line 7376 "NXCDefs.h"
3	7377	86		mov __D0PlaySound, __SPTArgs.Result
3	7376	89	#line 7376 "NXCDefs.h"
3	7377	89		release __SPTArgsMutex
3	7376	90	#line 7376 "NXCDefs.h"
3	7377	90	#line 7377 "NXCDefs.h"
3	7378	90		wait2 NA, __constVal200
3	7377	93	#line 7377 "NXCDefs.h"
3	7377	93	#line 7377 "NXCDefs.h"
3	7378	93	#line 7378 "NXCDefs.h"
3	7379	93		set __signed_stack_001PlaySound, 600
3	7378	96	#line 7378 "NXCDefs.h"
3	7378	96	#line 7378 "NXCDefs.h"
3	7379	96		set __signed_stack_002PlaySound, 150
3	7378	99	#line 7378 "NXCDefs.h"
3	7378	99	#line 7378 "NXCDefs.h"
3	7379	99		set __signed_stack_003PlaySound, 4
3	7378	102	#line 7378 "NXCDefs.h"
3	7378	102	#line 7378 "NXCDefs.h"
3	7379	102		set __D0PlaySound, 0
3	7378	105	#line 7378 "NXCDefs.h"
3	7379	105		acquire __SPTArgsMutex
3	7378	106	#line 7378 "NXCDefs.h"
3	7379	106		mov __SPTArgs.Frequency, __signed_stack_001PlaySound
3	7378	109	#line 7378 "NXCDefs.h"
3	7379	109		mov __SPTArgs.Duration, __signed_stack_002PlaySound
3	7378	112	#line 7378 "NXCDefs.h"
3	7379	112		mov __SPTArgs.Volume, __signed_stack_003PlaySound
3	7378	115	#line 7378 "NXCDefs.h"
3	7379	115		mov __SPTArgs.Loop, __D0PlaySound
3	7378	118	#line 7378 "NXCDefs.h"
3	7379	118		syscall 10, __SPTArgs
3	7378	121	#line 7378 "NXCDefs.h"
3	7379	121		mov __D0PlaySound, __SPTArgs.Result
3	7378	124	#line 7378 "NXCDefs.h"
3	7379	124		release __SPTArgsMutex
3	7378	125	#line 7378 "NXCDefs.h"
3	7379	125	#line 7379 "NXCDefs.h"
3	7380	125		wait2 NA, __constVal150
3	7379	128	#line 7379 "NXCDefs.h"
3	7379	128	#line 7379 "NXCDefs.h"
3	7381	128	#line 7381 "NXCDefs.h"
3	7382	128		jmp __ASM_Label_85
3	7381	130	#line 7381 "NXCDefs.h"
3	7382	130		mov __signed_stack_001PlaySound, __PlaySound_7qG2_aCode_7qG2_000
3	7381	132	#line 7381 "NXCDefs.h"
3	7382	132	#line 7382 "NXCDefs.h"
3	7383	132		set __D0PlaySound, 3
3	7382	135	#line 7382 "NXCDefs.h"
3	7383	135		cmp 4, __D0PlaySound, __signed_stack_001PlaySound, __D0PlaySound
3	7382	139	#line 7382 "NXCDefs.h"
3	7383	139		brtst 4, __ASM_Label_88, __D0PlaySound
3	7382	142	#line 7382 "NXCDefs.h"
3	7383	142		set __PlaySound_7qG2_i_7qG2_001, 4
3	7382	145	#line 7382 "NXCDefs.h"
3	7382	145	#line 7382 "NXCDefs.h"
3	7383	145		mov __signed_stack_001PlaySound, __PlaySound_7qG2_i_7qG2_001
3	7382	147	#line 7382 "NXCDefs.h"
3	7382	147	#line 7382 "NXCDefs.h"
3	7383	147		set __D0PlaySound, 8
3	7382	150	#line 7382 "NXCDefs.h"
3	7383	150		cmp 0, __D0PlaySound, __signed_stack_001PlaySound, __D0PlaySound
3	7382	154	#line 7382 "NXCDefs.h"
3	7383	154		brtst 4, __ASM_Label_90, __D0PlaySound
3	7382	157	#line 7382 "NXCDefs.h"
3	7383	157		jmp __ASM_Label_91
3	7383	159	#line 7383 "NXCDefs.h"
3	7384	159		add __PlaySound_7qG2_i_7qG2_001, __PlaySound_7qG2_i_7qG2_001, __constVal1
3	7384	163	#line 7384 "NXCDefs.h"
3	7385	163		jmp __ASM_Label_89
3	7384	165	#line 7384 "NXCDefs.h"
3	7385	165		set __signed_stack_001PlaySound, 523
3	7384	168	#line 7384 "NXCDefs.h"
3	7384	168	#line 7384 "NXCDefs.h"
3	7384	168	#line 7384 "NXCDefs.h"
3	7385	168		mul __signed_stack_001PlaySound, __signed_stack_001PlaySound, __PlaySound_7qG2_i_7qG2_001
3	7384	172	#line 7384 "NXCDefs.h"
3	7384	172	#line 7384 "NXCDefs.h"
3	7385	172		set __D0PlaySound, 4
3	7384	175	#line 7384 "NXCDefs.h"
3	7385	175		div __signed_stack_001PlaySound, __signed_stack_001PlaySound, __D0PlaySound
3	7384	179	#line 7384 "NXCDefs.h"
3	7384	179	#line 7384 "NXCDefs.h"
3	7385	179		set __signed_stack_002PlaySound, 100
3	7384	182	#line 7384 "NXCDefs.h"
3	7384	182	#line 7384 "NXCDefs.h"
3	7385	182		set __signed_stack_003PlaySound, 4
3	7384	185	#line 7384 "NXCDefs.h"
3	7384	185	#line 7384 "NXCDefs.h"
3	7385	185		set __D0PlaySound, 0
3	7384	188	#line 7384 "NXCDefs.h"
3	7385	188		acquire __SPTArgsMutex
3	7384	189	#line 7384 "NXCDefs.h"
3	7385	189		mov __SPTArgs.Frequency, __signed_stack_001PlaySound
3	7384	192	#line 7384 "NXCDefs.h"
3	7385	192		mov __SPTArgs.Duration, __signed_stack_002PlaySound
3	7384	195	#line 7384 "NXCDefs.h"
3	7385	195		mov __SPTArgs.Volume, __signed_stack_003PlaySound
3	7384	198	#line 7384 "NXCDefs.h"
3	7385	198		mov __SPTArgs.Loop, __D0PlaySound
3	7384	201	#line 7384 "NXCDefs.h"
3	7385	201		syscall 10, __SPTArgs
3	7384	204	#line 7384 "NXCDefs.h"
3	7385	204		mov __D0PlaySound, __SPTArgs.Result
3	7384	207	#line 7384 "NXCDefs.h"
3	7385	207		release __SPTArgsMutex
3	7384	208	#line 7384 "NXCDefs.h"
3	7385	208	#line 7385 "NXCDefs.h"
3	7386	208		wait2 NA, __constVal100
3	7385	211	#line 7385 "NXCDefs.h"
3	7385	211	#line 7385 "NXCDefs.h"
3	7387	211	#line 7387 "NXCDefs.h"
3	7388	211		jmp __ASM_Label_92
3	7387	213	#line 7387 "NXCDefs.h"
3	7387	213	#line 7387 "NXCDefs.h"
3	7388	213		jmp __ASM_Label_105
3	7387	215	#line 7387 "NXCDefs.h"
3	7388	215		mov __signed_stack_001PlaySound, __PlaySound_7qG2_aCode_7qG2_000
3	7387	217	#line 7387 "NXCDefs.h"
3	7388	217	#line 7388 "NXCDefs.h"
3	7389	217		set __D0PlaySound, 2
3	7388	220	#line 7388 "NXCDefs.h"
3	7389	220		cmp 4, __D0PlaySound, __signed_stack_001PlaySound, __D0PlaySound
3	7388	224	#line 7388 "NXCDefs.h"
3	7389	224		brtst 4, __ASM_Label_108, __D0PlaySound
3	7388	227	#line 7388 "NXCDefs.h"
3	7389	227		set __PlaySound_7qG2_i_7qG2_001, 7
3	7388	230	#line 7388 "NXCDefs.h"
3	7388	230	#line 7388 "NXCDefs.h"
3	7389	230		mov __signed_stack_001PlaySound, __PlaySound_7qG2_i_7qG2_001
3	7388	232	#line 7388 "NXCDefs.h"
3	7388	232	#line 7388 "NXCDefs.h"
3	7389	232		set __D0PlaySound, 3
3	7388	235	#line 7388 "NXCDefs.h"
3	7389	235		cmp 1, __D0PlaySound, __signed_stack_001PlaySound, __D0PlaySound
3	7388	239	#line 7388 "NXCDefs.h"
3	7389	239		brtst 4, __ASM_Label_110, __D0PlaySound
3	7388	242	#line 7388 "NXCDefs.h"
3	7389	242		jmp __ASM_Label_111
3	7389	244	#line 7389 "NXCDefs.h"
3	7390	244		sub __PlaySound_7qG2_i_7qG2_001, __PlaySound_7qG2_i_7qG2_001, __constVal1
3	7390	248	#line 7390 "NXCDefs.h"
3	7391	248		jmp __ASM_Label_109
3	7390	250	#line 7390 "NXCDefs.h"
3	7391	250		set __signed_stack_001PlaySound, 523
3	7390	253	#line 7390 "NXCDefs.h"
3	7390	253	#line 7390 "NXCDefs.h"
3	7390	253	#line 7390 "NXCDefs.h"
3	7391	253		mul __signed_stack_001PlaySound, __signed_stack_001PlaySound, __PlaySound_7qG2_i_7qG2_001
3	7390	257	#line 7390 "NXCDefs.h"
3	7390	257	#line 7390 "NXCDefs.h"
3	7391	257		set __D0PlaySound, 4
3	7390	260	#line 7390 "NXCDefs.h"
3	7391	260		div __signed_stack_001PlaySound, __signed_stack_001PlaySound, __D0PlaySound
3	7390	264	#line 7390 "NXCDefs.h"
3	7390	264	#line 7390 "NXCDefs.h"
3	7391	264		set __signed_stack_002PlaySound, 100
3	7390	267	#line 7390 "NXCDefs.h"
3	7390	267	#line 7390 "NXCDefs.h"
3	7391	267		set __signed_stack_003PlaySound, 4
3	7390	270	#line 7390 "NXCDefs.h"
3	7390	270	#line 7390 "NXCDefs.h"
3	7391	270		set __D0PlaySound, 0
3	7390	273	#line 7390 "NXCDefs.h"
3	7391	273		acquire __SPTArgsMutex
3	7390	274	#line 7390 "NXCDefs.h"
3	7391	274		mov __SPTArgs.Frequency, __signed_stack_001PlaySound
3	7390	277	#line 7390 "NXCDefs.h"
3	7391	277		mov __SPTArgs.Duration, __signed_stack_002PlaySound
3	7390	280	#line 7390 "NXCDefs.h"
3	7391	280		mov __SPTArgs.Volume, __signed_stack_003PlaySound
3	7390	283	#line 7390 "NXCDefs.h"
3	7391	283		mov __SPTArgs.Loop, __D0PlaySound
3	7390	286	#line 7390 "NXCDefs.h"
3	7391	286		syscall 10, __SPTArgs
3	7390	289	#line 7390 "NXCDefs.h"
3	7391	289		mov __D0PlaySound, __SPTArgs.Result
3	7390	292	#line 7390 "NXCDefs.h"
3	7391	292		release __SPTArgsMutex
3	7390	293	#line 7390 "NXCDefs.h"
3	7391	293	#line 7391 "NXCDefs.h"
3	7392	293		wait2 NA, __constVal100
3	7391	296	#line 7391 "NXCDefs.h"
3	7391	296	#line 7391 "NXCDefs.h"
3	7393	296	#line 7393 "NXCDefs.h"
3	7394	296		jmp __ASM_Label_112
3	7393	298	#line 7393 "NXCDefs.h"
3	7393	298	#line 7393 "NXCDefs.h"
3	7394	298		jmp __ASM_Label_125
3	7393	300	#line 7393 "NXCDefs.h"
3	7394	300		mov __signed_stack_001PlaySound, __PlaySound_7qG2_aCode_7qG2_000
3	7393	302	#line 7393 "NXCDefs.h"
3	7394	302	#line 7394 "NXCDefs.h"
3	7395	302		set __D0PlaySound, 4
3	7394	305	#line 7394 "NXCDefs.h"
3	7395	305		cmp 4, __D0PlaySound, __signed_stack_001PlaySound, __D0PlaySound
3	7395	309	#line 7395 "NXCDefs.h"
3	7396	309		brtst 4, __ASM_Label_128, __D0PlaySound
3	7395	312	#line 7395 "NXCDefs.h"
3	7396	312		set __signed_stack_001PlaySound, 100
3	7395	315	#line 7395 "NXCDefs.h"
3	7395	315	#line 7395 "NXCDefs.h"
3	7396	315		set __signed_stack_002PlaySound, 500
3	7395	318	#line 7395 "NXCDefs.h"
3	7395	318	#line 7395 "NXCDefs.h"
3	7396	318		set __signed_stack_003PlaySound, 4
3	7395	321	#line 7395 "NXCDefs.h"
3	7395	321	#line 7395 "NXCDefs.h"
3	7396	321		set __D0PlaySound, 0
3	7395	324	#line 7395 "NXCDefs.h"
3	7396	324		acquire __SPTArgsMutex
3	7395	325	#line 7395 "NXCDefs.h"
3	7396	325		mov __SPTArgs.Frequency, __signed_stack_001PlaySound
3	7395	328	#line 7395 "NXCDefs.h"
3	7396	328		mov __SPTArgs.Duration, __signed_stack_002PlaySound
3	7395	331	#line 7395 "NXCDefs.h"
3	7396	331		mov __SPTArgs.Volume, __signed_stack_003PlaySound
3	7395	334	#line 7395 "NXCDefs.h"
3	7396	334		mov __SPTArgs.Loop, __D0PlaySound
3	7395	337	#line 7395 "NXCDefs.h"
3	7396	337		syscall 10, __SPTArgs
3	7395	340	#line 7395 "NXCDefs.h"
3	7396	340		mov __D0PlaySound, __SPTArgs.Result
3	7395	343	#line 7395 "NXCDefs.h"
3	7396	343		release __SPTArgsMutex
3	7395	344	#line 7395 "NXCDefs.h"
3	7396	344	#line 7396 "NXCDefs.h"
3	7397	344		wait2 NA, __constVal500
3	7396	347	#line 7396 "NXCDefs.h"
3	7396	347	#line 7396 "NXCDefs.h"
3	7398	347	#line 7398 "NXCDefs.h"
3	7399	347		jmp __ASM_Label_137
3	7398	349	#line 7398 "NXCDefs.h"
3	7399	349		mov __signed_stack_001PlaySound, __PlaySound_7qG2_aCode_7qG2_000
3	7398	351	#line 7398 "NXCDefs.h"
3	7399	351	#line 7399 "NXCDefs.h"
3	7400	351		set __D0PlaySound, 5
3	7399	354	#line 7399 "NXCDefs.h"
3	7400	354		cmp 4, __D0PlaySound, __signed_stack_001PlaySound, __D0PlaySound
3	7399	358	#line 7399 "NXCDefs.h"
3	7400	358		brtst 4, __ASM_Label_140, __D0PlaySound
3	7399	361	#line 7399 "NXCDefs.h"
3	7400	361		set __PlaySound_7qG2_i_7qG2_001, 4
3	7399	364	#line 7399 "NXCDefs.h"
3	7399	364	#line 7399 "NXCDefs.h"
3	7400	364		mov __signed_stack_001PlaySound, __PlaySound_7qG2_i_7qG2_001
3	7399	366	#line 7399 "NXCDefs.h"
3	7399	366	#line 7399 "NXCDefs.h"
3	7400	366		set __D0PlaySound, 8
3	7399	369	#line 7399 "NXCDefs.h"
3	7400	369		cmp 0, __D0PlaySound, __signed_stack_001PlaySound, __D0PlaySound
3	7399	373	#line 7399 "NXCDefs.h"
3	7400	373		brtst 4, __ASM_Label_142, __D0PlaySound
3	7399	376	#line 7399 "NXCDefs.h"
3	7400	376		jmp __ASM_Label_143
3	7400	378	#line 7400 "NXCDefs.h"
3	7401	378		add __PlaySound_7qG2_i_7qG2_001, __PlaySound_7qG2_i_7qG2_001, __constVal1
3	7401	382	#line 7401 "NXCDefs.h"
3	7402	382		jmp __ASM_Label_141
3	7401	384	#line 7401 "NXCDefs.h"
3	7402	384		set __signed_stack_001PlaySound, 523
3	7401	387	#line 7401 "NXCDefs.h"
3	7401	387	#line 7401 "NXCDefs.h"
3	7401	387	#line 7401 "NXCDefs.h"
3	7402	387		mul __signed_stack_001PlaySound, __signed_stack_001PlaySound, __PlaySound_7qG2_i_7qG2_001
3	7401	391	#line 7401 "NXCDefs.h"
3	7401	391	#line 7401 "NXCDefs.h"
3	7402	391		set __D0PlaySound, 4
3	7401	394	#line 7401 "NXCDefs.h"
3	7402	394		div __signed_stack_001PlaySound, __signed_stack_001PlaySound, __D0PlaySound
3	7401	398	#line 7401 "NXCDefs.h"
3	7401	398	#line 7401 "NXCDefs.h"
3	7402	398		set __signed_stack_002PlaySound, 50
3	7401	401	#line 7401 "NXCDefs.h"
3	7401	401	#line 7401 "NXCDefs.h"
3	7402	401		set __signed_stack_003PlaySound, 4
3	7401	404	#line 7401 "NXCDefs.h"
3	7401	404	#line 7401 "NXCDefs.h"
3	7402	404		set __D0PlaySound, 0
3	7401	407	#line 7401 "NXCDefs.h"
3	7402	407		acquire __SPTArgsMutex
3	7401	408	#line 7401 "NXCDefs.h"
3	7402	408		mov __SPTArgs.Frequency, __signed_stack_001PlaySound
3	7401	411	#line 7401 "NXCDefs.h"
3	7402	411		mov __SPTArgs.Duration, __signed_stack_002PlaySound
3	7401	414	#line 7401 "NXCDefs.h"
3	7402	414		mov __SPTArgs.Volume, __signed_stack_003PlaySound
3	7401	417	#line 7401 "NXCDefs.h"
3	7402	417		mov __SPTArgs.Loop, __D0PlaySound
3	7401	420	#line 7401 "NXCDefs.h"
3	7402	420		syscall 10, __SPTArgs
3	7401	423	#line 7401 "NXCDefs.h"
3	7402	423		mov __D0PlaySound, __SPTArgs.Result
3	7401	426	#line 7401 "NXCDefs.h"
3	7402	426		release __SPTArgsMutex
3	7401	427	#line 7401 "NXCDefs.h"
3	7402	427	#line 7402 "NXCDefs.h"
3	7403	427		wait2 NA, __constVal50
3	7402	430	#line 7402 "NXCDefs.h"
3	7402	430	#line 7402 "NXCDefs.h"
3	7414	430	#line 7414 "NXCDefs.h"
3	7415	430		jmp __ASM_Label_144
3	7414	432	#line 7414 "NXCDefs.h"
3	7414	432	#line 7414 "NXCDefs.h"
3	7414	432	#line 7414 "NXCDefs.h"
3	7414	432	#line 7414 "NXCDefs.h"
3	7414	432	#line 7414 "NXCDefs.h"
3	7414	432	#line 7414 "NXCDefs.h"
3	7414	432	#line 7414 "NXCDefs.h"
3	7414	432	#line 7414 "NXCDefs.h"
3	7415	432		subret __PlaySound_return
4	125	0	#line 125 "C:\Users\Lucas\Desktop\UnB\Droid\sekksi2016\tentativa2\consultor.nxc"
4	126	0		set __PlaySound_7qG2_aCode_7qG2_000, 2
4	125	3	#line 125 "C:\Users\Lucas\Desktop\UnB\Droid\sekksi2016\tentativa2\consultor.nxc"
4	125	3	#line 125 "C:\Users\Lucas\Desktop\UnB\Droid\sekksi2016\tentativa2\consultor.nxc"
4	126	3		subcall PlaySound, __PlaySound_return
4	125	6	#line 125 "C:\Users\Lucas\Desktop\UnB\Droid\sekksi2016\tentativa2\consultor.nxc"
4	128	6	#line 128 "C:\Users\Lucas\Desktop\UnB\Droid\sekksi2016\tentativa2\consultor.nxc"
4	129	6		subret __bip_return
5	132	0	#line 132 "C:\Users\Lucas\Desktop\UnB\Droid\sekksi2016\tentativa2\consultor.nxc"
5	133	0		set __nbip_7qG2_i_7qG2_000, 0
5	132	3	#line 132 "C:\Users\Lucas\Desktop\UnB\Droid\sekksi2016\tentativa2\consultor.nxc"
5	132	3	#line 132 "C:\Users\Lucas\Desktop\UnB\Droid\sekksi2016\tentativa2\consultor.nxc"
5	133	3		mov __signed_stack_001nbip, __nbip_7qG2_i_7qG2_000
5	132	5	#line 132 "C:\Users\Lucas\Desktop\UnB\Droid\sekksi2016\tentativa2\consultor.nxc"
5	132	5	#line 132 "C:\Users\Lucas\Desktop\UnB\Droid\sekksi2016\tentativa2\consultor.nxc"
5	133	5		mov __D0nbip, __nbip_7qG2_n_7qG2_000
5	132	7	#line 132 "C:\Users\Lucas\Desktop\UnB\Droid\sekksi2016\tentativa2\consultor.nxc"
5	133	7		cmp 0, __D0nbip, __signed_stack_001nbip, __D0nbip
5	132	11	#line 132 "C:\Users\Lucas\Desktop\UnB\Droid\sekksi2016\tentativa2\consultor.nxc"
5	133	11		brtst 4, __ASM_Label_561, __D0nbip
5	132	14	#line 132 "C:\Users\Lucas\Desktop\UnB\Droid\sekksi2016\tentativa2\consultor.nxc"
5	133	14		jmp __ASM_Label_562
5	133	16	#line 133 "C:\Users\Lucas\Desktop\UnB\Droid\sekksi2016\tentativa2\consultor.nxc"
5	134	16		add __nbip_7qG2_i_7qG2_000, __nbip_7qG2_i_7qG2_000, __constVal1
5	134	20	#line 134 "C:\Users\Lucas\Desktop\UnB\Droid\sekksi2016\tentativa2\consultor.nxc"
5	135	20		jmp __ASM_Label_560
5	134	22	#line 134 "C:\Users\Lucas\Desktop\UnB\Droid\sekksi2016\tentativa2\consultor.nxc"
5	135	22		subcall bip, __bip_return
5	134	25	#line 134 "C:\Users\Lucas\Desktop\UnB\Droid\sekksi2016\tentativa2\consultor.nxc"
5	138	25	#line 138 "C:\Users\Lucas\Desktop\UnB\Droid\sekksi2016\tentativa2\consultor.nxc"
5	139	25		jmp __ASM_Label_563
5	138	27	#line 138 "C:\Users\Lucas\Desktop\UnB\Droid\sekksi2016\tentativa2\consultor.nxc"
5	138	27	#line 138 "C:\Users\Lucas\Desktop\UnB\Droid\sekksi2016\tentativa2\consultor.nxc"
5	139	27		subret __nbip_return
6	147	0	#line 147 "C:\Users\Lucas\Desktop\UnB\Droid\sekksi2016\tentativa2\consultor.nxc"
6	148	0		subcall init, __init_return
6	147	3	#line 147 "C:\Users\Lucas\Desktop\UnB\Droid\sekksi2016\tentativa2\consultor.nxc"
6	150	3	#line 150 "C:\Users\Lucas\Desktop\UnB\Droid\sekksi2016\tentativa2\consultor.nxc"
6	151	3		set __D0consultor, 1
6	152	6	#line 152 "C:\Users\Lucas\Desktop\UnB\Droid\sekksi2016\tentativa2\consultor.nxc"
6	153	6		tst 5, __D0consultor, __D0consultor
6	152	9	#line 152 "C:\Users\Lucas\Desktop\UnB\Droid\sekksi2016\tentativa2\consultor.nxc"
6	153	9		brtst 4, __ASM_Label_569, __D0consultor
6	152	12	#line 152 "C:\Users\Lucas\Desktop\UnB\Droid\sekksi2016\tentativa2\consultor.nxc"
6	153	12	#pragma macro 9
6	153	12		acquire __MRMutex
6	153	13		mov __MRArgs.QueueID, __constVal2
6	153	15		mov __MRArgs.Remove, __constVal1
6	153	17		set __RRNTmpVal, 0
6	153	20		syscall 27, __MRArgs
6	153	23		unflatten __RRNTmpVal, __RRNErr, __MRArgs.Message, __RRNTmpVal
6	153	28		mov __consultor_7qG2_mensagem_7qG2_000, __RRNTmpVal
6	153	30		mov __D0consultor, __MRArgs.Result
6	153	33		release __MRMutex
6	5387	34	#line 5387 "C:\Users\Lucas\Desktop\UnB\Droid\sekksi2016\tentativa2\consultor.nxc"
6	152	34	#line 152 "C:\Users\Lucas\Desktop\UnB\Droid\sekksi2016\tentativa2\consultor.nxc"
6	152	34	#line 152 "C:\Users\Lucas\Desktop\UnB\Droid\sekksi2016\tentativa2\consultor.nxc"
6	155	34	#line 155 "C:\Users\Lucas\Desktop\UnB\Droid\sekksi2016\tentativa2\consultor.nxc"
6	156	34		subcall TemBoneco, __TemBoneco_return
6	155	37	#line 155 "C:\Users\Lucas\Desktop\UnB\Droid\sekksi2016\tentativa2\consultor.nxc"
6	156	37		mov __D0consultor, __D0TemBoneco
6	156	39	#line 156 "C:\Users\Lucas\Desktop\UnB\Droid\sekksi2016\tentativa2\consultor.nxc"
6	157	39		tst 5, __D0consultor, __D0consultor
6	156	42	#line 156 "C:\Users\Lucas\Desktop\UnB\Droid\sekksi2016\tentativa2\consultor.nxc"
6	157	42		brtst 4, __ASM_Label_574, __D0consultor
6	156	45	#line 156 "C:\Users\Lucas\Desktop\UnB\Droid\sekksi2016\tentativa2\consultor.nxc"
6	157	45		subcall BonecoNaFrente, __BonecoNaFrente_return
6	156	47	#line 156 "C:\Users\Lucas\Desktop\UnB\Droid\sekksi2016\tentativa2\consultor.nxc"
6	160	47	#line 160 "C:\Users\Lucas\Desktop\UnB\Droid\sekksi2016\tentativa2\consultor.nxc"
6	161	47		jmp __ASM_Label_575
6	160	49	#line 160 "C:\Users\Lucas\Desktop\UnB\Droid\sekksi2016\tentativa2\consultor.nxc"
6	161	49		subcall MandaUs, __MandaUs_return
6	160	51	#line 160 "C:\Users\Lucas\Desktop\UnB\Droid\sekksi2016\tentativa2\consultor.nxc"
6	163	51	#line 163 "C:\Users\Lucas\Desktop\UnB\Droid\sekksi2016\tentativa2\consultor.nxc"
6	163	51	#line 163 "C:\Users\Lucas\Desktop\UnB\Droid\sekksi2016\tentativa2\consultor.nxc"
6	164	51		mov __signed_stack_001consultor, __consultor_7qG2_mensagem_7qG2_000
6	163	53	#line 163 "C:\Users\Lucas\Desktop\UnB\Droid\sekksi2016\tentativa2\consultor.nxc"
6	164	53	#line 164 "C:\Users\Lucas\Desktop\UnB\Droid\sekksi2016\tentativa2\consultor.nxc"
6	165	53		set __D0consultor, 7
6	164	56	#line 164 "C:\Users\Lucas\Desktop\UnB\Droid\sekksi2016\tentativa2\consultor.nxc"
6	165	56		cmp 4, __D0consultor, __signed_stack_001consultor, __D0consultor
6	165	60	#line 165 "C:\Users\Lucas\Desktop\UnB\Droid\sekksi2016\tentativa2\consultor.nxc"
6	166	60		brtst 4, __ASM_Label_578, __D0consultor
6	165	63	#line 165 "C:\Users\Lucas\Desktop\UnB\Droid\sekksi2016\tentativa2\consultor.nxc"
6	166	63		subcall CalibraFaixaBase, __CalibraFaixaBase_return
6	165	65	#line 165 "C:\Users\Lucas\Desktop\UnB\Droid\sekksi2016\tentativa2\consultor.nxc"
6	168	65	#line 168 "C:\Users\Lucas\Desktop\UnB\Droid\sekksi2016\tentativa2\consultor.nxc"
6	170	65	#line 170 "C:\Users\Lucas\Desktop\UnB\Droid\sekksi2016\tentativa2\consultor.nxc"
6	171	65		jmp __ASM_Label_568
6	170	67	#line 170 "C:\Users\Lucas\Desktop\UnB\Droid\sekksi2016\tentativa2\consultor.nxc"
6	170	67	#line 170 "C:\Users\Lucas\Desktop\UnB\Droid\sekksi2016\tentativa2\consultor.nxc"
6	171	67		subret __consultor_return
7	172	0	#line 172 "C:\Users\Lucas\Desktop\UnB\Droid\sekksi2016\tentativa2\consultor.nxc"
7	173	0		subcall InicializaSensores, __InicializaSensores_return
7	172	3	#line 172 "C:\Users\Lucas\Desktop\UnB\Droid\sekksi2016\tentativa2\consultor.nxc"
7	173	3	#line 173 "C:\Users\Lucas\Desktop\UnB\Droid\sekksi2016\tentativa2\consultor.nxc"
7	174	3		subcall VoltaGarra, __VoltaGarra_return
7	173	6	#line 173 "C:\Users\Lucas\Desktop\UnB\Droid\sekksi2016\tentativa2\consultor.nxc"
7	174	6	#line 174 "C:\Users\Lucas\Desktop\UnB\Droid\sekksi2016\tentativa2\consultor.nxc"
7	175	6		subcall BonecoAlvo, __BonecoAlvo_return
7	174	9	#line 174 "C:\Users\Lucas\Desktop\UnB\Droid\sekksi2016\tentativa2\consultor.nxc"
7	176	9	#line 176 "C:\Users\Lucas\Desktop\UnB\Droid\sekksi2016\tentativa2\consultor.nxc"
7	177	9		subcall CalibraFaixaBase, __CalibraFaixaBase_return
7	176	11	#line 176 "C:\Users\Lucas\Desktop\UnB\Droid\sekksi2016\tentativa2\consultor.nxc"
7	178	11	#line 178 "C:\Users\Lucas\Desktop\UnB\Droid\sekksi2016\tentativa2\consultor.nxc"
7	179	11		set BonecosCapturados, 0
7	178	14	#line 178 "C:\Users\Lucas\Desktop\UnB\Droid\sekksi2016\tentativa2\consultor.nxc"
7	178	14	#line 178 "C:\Users\Lucas\Desktop\UnB\Droid\sekksi2016\tentativa2\consultor.nxc"
7	182	14	#line 182 "C:\Users\Lucas\Desktop\UnB\Droid\sekksi2016\tentativa2\consultor.nxc"
7	183	14		subret __init_return
8	184	0	#line 184 "C:\Users\Lucas\Desktop\UnB\Droid\sekksi2016\tentativa2\consultor.nxc"
8	185	0		set __SetSensorColorRed_7qG2_port_7qG2_000_inline_InicializaSensores, 0
8	184	3	#line 184 "C:\Users\Lucas\Desktop\UnB\Droid\sekksi2016\tentativa2\consultor.nxc"
8	4577	3	#line 4577 "NXCDefs.h"
8	4578	3	#pragma macro 6
8	4578	3		setin __constVal14, __SetSensorColorRed_7qG2_port_7qG2_000_inline_InicializaSensores, 0
8	4578	7		setin __constVal128, __SetSensorColorRed_7qG2_port_7qG2_000_inline_InicializaSensores, 1
8	4578	11		mov __ResetSensorPort, __SetSensorColorRed_7qG2_port_7qG2_000_inline_InicializaSensores
8	4578	13		subcall __ResetSensorSubroutine, ____ResetSensorSubroutine_return
8	5470	15	#line 5470 "NXCDefs.h"
8	4577	15	#line 4577 "NXCDefs.h"
8	184	15	#line 184 "C:\Users\Lucas\Desktop\UnB\Droid\sekksi2016\tentativa2\consultor.nxc"
8	185	15	#line 185 "C:\Users\Lucas\Desktop\UnB\Droid\sekksi2016\tentativa2\consultor.nxc"
8	186	15		set __SetSensorColorRed_7qG2_port_7qG2_000_inline_InicializaSensores, 1
8	185	18	#line 185 "C:\Users\Lucas\Desktop\UnB\Droid\sekksi2016\tentativa2\consultor.nxc"
8	4577	18	#line 4577 "NXCDefs.h"
8	4578	18	#pragma macro 6
8	4578	18		setin __constVal14, __SetSensorColorRed_7qG2_port_7qG2_000_inline_InicializaSensores, 0
8	4578	22		setin __constVal128, __SetSensorColorRed_7qG2_port_7qG2_000_inline_InicializaSensores, 1
8	4578	26		mov __ResetSensorPort, __SetSensorColorRed_7qG2_port_7qG2_000_inline_InicializaSensores
8	4578	28		subcall __ResetSensorSubroutine, ____ResetSensorSubroutine_return
8	5478	30	#line 5478 "NXCDefs.h"
8	4577	30	#line 4577 "NXCDefs.h"
8	185	30	#line 185 "C:\Users\Lucas\Desktop\UnB\Droid\sekksi2016\tentativa2\consultor.nxc"
8	186	30	#line 186 "C:\Users\Lucas\Desktop\UnB\Droid\sekksi2016\tentativa2\consultor.nxc"
8	187	30		set __SetSensorColorGreen_7qG2_port_7qG2_000_inline_InicializaSensores, 2
8	186	33	#line 186 "C:\Users\Lucas\Desktop\UnB\Droid\sekksi2016\tentativa2\consultor.nxc"
8	4587	33	#line 4587 "NXCDefs.h"
8	4588	33	#pragma macro 6
8	4588	33		setin __constVal15, __SetSensorColorGreen_7qG2_port_7qG2_000_inline_InicializaSensores, 0
8	4588	37		setin __constVal128, __SetSensorColorGreen_7qG2_port_7qG2_000_inline_InicializaSensores, 1
8	4588	41		mov __ResetSensorPort, __SetSensorColorGreen_7qG2_port_7qG2_000_inline_InicializaSensores
8	4588	43		subcall __ResetSensorSubroutine, ____ResetSensorSubroutine_return
8	5490	45	#line 5490 "NXCDefs.h"
8	4587	45	#line 4587 "NXCDefs.h"
8	186	45	#line 186 "C:\Users\Lucas\Desktop\UnB\Droid\sekksi2016\tentativa2\consultor.nxc"
8	187	45	#line 187 "C:\Users\Lucas\Desktop\UnB\Droid\sekksi2016\tentativa2\consultor.nxc"
8	188	45		set __SetSensorLowspeed_7qG2_port_7qG2_000_inline_InicializaSensores, 3
8	187	48	#line 187 "C:\Users\Lucas\Desktop\UnB\Droid\sekksi2016\tentativa2\consultor.nxc"
8	187	48	#line 187 "C:\Users\Lucas\Desktop\UnB\Droid\sekksi2016\tentativa2\consultor.nxc"
8	188	48		mov __SetSensorLowspeed_7qG2_bIsPowered_7qG2_000_inline_InicializaSensores, __constVal1
8	4523	50	#line 4523 "NXCDefs.h"
8	4524	50		mov __SetSensorType_7qG2_port_7qG2_000_inline_SetSensorLowspeed_inline_InicializaSensores, __SetSensorLowspeed_7qG2_port_7qG2_000_inline_InicializaSensores
8	4523	52	#line 4523 "NXCDefs.h"
8	4523	52	#line 4523 "NXCDefs.h"
8	4524	52		mov __DU0SetSensorLowspeed_inline_InicializaSensores, __SetSensorLowspeed_7qG2_bIsPowered_7qG2_000_inline_InicializaSensores
8	4523	54	#line 4523 "NXCDefs.h"
8	4524	54		tst 5, __D0SetSensorLowspeed_inline_InicializaSensores, __DU0SetSensorLowspeed_inline_InicializaSensores
8	4523	57	#line 4523 "NXCDefs.h"
8	4524	57		brtst 4, __004__ASM_Label_36, __D0SetSensorLowspeed_inline_InicializaSensores
8	4523	60	#line 4523 "NXCDefs.h"
8	4524	60		set __DU0SetSensorLowspeed_inline_InicializaSensores, 11
8	4523	63	#line 4523 "NXCDefs.h"
8	4523	63	#line 4523 "NXCDefs.h"
8	4524	63		jmp __004__ASM_Label_37
8	4523	65	#line 4523 "NXCDefs.h"
8	4524	65		set __DU0SetSensorLowspeed_inline_InicializaSensores, 10
8	4523	68	#line 4523 "NXCDefs.h"
8	4523	68	#line 4523 "NXCDefs.h"
8	4524	68		mov __SetSensorType_7qG2_type_7qG2_000_inline_SetSensorLowspeed_inline_InicializaSensores, __DU0SetSensorLowspeed_inline_InicializaSensores
8	4428	70	#line 4428 "NXCDefs.h"
8	4429	70		setin __SetSensorType_7qG2_type_7qG2_000_inline_SetSensorLowspeed_inline_InicializaSensores, __SetSensorType_7qG2_port_7qG2_000_inline_SetSensorLowspeed_inline_InicializaSensores, 0
8	4428	74	#line 4428 "NXCDefs.h"
8	4523	74	#line 4523 "NXCDefs.h"
8	4524	74	#line 4524 "NXCDefs.h"
8	4525	74		mov __SetSensorMode_7qG2_port_7qG2_000_inline_SetSensorLowspeed_inline_InicializaSensores, __SetSensorLowspeed_7qG2_port_7qG2_000_inline_InicializaSensores
8	4524	76	#line 4524 "NXCDefs.h"
8	4524	76	#line 4524 "NXCDefs.h"
8	4525	76		set __SetSensorMode_7qG2_mode_7qG2_000_inline_SetSensorLowspeed_inline_InicializaSensores, 0
8	4524	79	#line 4524 "NXCDefs.h"
8	4441	79	#line 4441 "NXCDefs.h"
8	4442	79		setin __SetSensorMode_7qG2_mode_7qG2_000_inline_SetSensorLowspeed_inline_InicializaSensores, __SetSensorMode_7qG2_port_7qG2_000_inline_SetSensorLowspeed_inline_InicializaSensores, 1
8	4441	83	#line 4441 "NXCDefs.h"
8	4524	83	#line 4524 "NXCDefs.h"
8	4525	83	#line 4525 "NXCDefs.h"
8	4525	83	#line 4525 "NXCDefs.h"
8	4459	83	#line 4459 "NXCDefs.h"
8	4460	83	#pragma macro 4
8	4460	83		mov __ResetSensorPort, __SetSensorLowspeed_7qG2_port_7qG2_000_inline_InicializaSensores
8	4460	85		subcall __ResetSensorSubroutine, ____ResetSensorSubroutine_return
8	5580	87	#line 5580 "NXCDefs.h"
8	4459	87	#line 4459 "NXCDefs.h"
8	4525	87	#line 4525 "NXCDefs.h"
8	187	87	#line 187 "C:\Users\Lucas\Desktop\UnB\Droid\sekksi2016\tentativa2\consultor.nxc"
8	190	87	#line 190 "C:\Users\Lucas\Desktop\UnB\Droid\sekksi2016\tentativa2\consultor.nxc"
8	191	87		subret __InicializaSensores_return
9	192	0	#line 192 "C:\Users\Lucas\Desktop\UnB\Droid\sekksi2016\tentativa2\consultor.nxc"
9	193	0		subcall RecebeBoneco, __RecebeBoneco_return
9	192	2	#line 192 "C:\Users\Lucas\Desktop\UnB\Droid\sekksi2016\tentativa2\consultor.nxc"
9	193	2		mov bonecoAlvo, __D0RecebeBoneco
9	192	4	#line 192 "C:\Users\Lucas\Desktop\UnB\Droid\sekksi2016\tentativa2\consultor.nxc"
9	192	4	#line 192 "C:\Users\Lucas\Desktop\UnB\Droid\sekksi2016\tentativa2\consultor.nxc"
9	195	4	#line 195 "C:\Users\Lucas\Desktop\UnB\Droid\sekksi2016\tentativa2\consultor.nxc"
9	196	4		mov __signed_stack_001BonecoAlvo, __D0RecebeBoneco
9	195	6	#line 195 "C:\Users\Lucas\Desktop\UnB\Droid\sekksi2016\tentativa2\consultor.nxc"
9	196	6	#line 196 "C:\Users\Lucas\Desktop\UnB\Droid\sekksi2016\tentativa2\consultor.nxc"
9	197	6		set __D0BonecoAlvo, 2
9	196	9	#line 196 "C:\Users\Lucas\Desktop\UnB\Droid\sekksi2016\tentativa2\consultor.nxc"
9	197	9		cmp 4, __D0BonecoAlvo, __signed_stack_001BonecoAlvo, __D0BonecoAlvo
9	197	13	#line 197 "C:\Users\Lucas\Desktop\UnB\Droid\sekksi2016\tentativa2\consultor.nxc"
9	198	13		brtst 4, __ASM_Label_593, __D0BonecoAlvo
9	197	16	#line 197 "C:\Users\Lucas\Desktop\UnB\Droid\sekksi2016\tentativa2\consultor.nxc"
9	198	16		subcall BipPreto, __BipPreto_return
9	197	18	#line 197 "C:\Users\Lucas\Desktop\UnB\Droid\sekksi2016\tentativa2\consultor.nxc"
9	198	18	#line 198 "C:\Users\Lucas\Desktop\UnB\Droid\sekksi2016\tentativa2\consultor.nxc"
9	199	18		set bonecoNaoAlvo, 1
9	198	21	#line 198 "C:\Users\Lucas\Desktop\UnB\Droid\sekksi2016\tentativa2\consultor.nxc"
9	198	21	#line 198 "C:\Users\Lucas\Desktop\UnB\Droid\sekksi2016\tentativa2\consultor.nxc"
9	200	21	#line 200 "C:\Users\Lucas\Desktop\UnB\Droid\sekksi2016\tentativa2\consultor.nxc"
9	201	21		jmp __ASM_Label_596
9	200	23	#line 200 "C:\Users\Lucas\Desktop\UnB\Droid\sekksi2016\tentativa2\consultor.nxc"
9	201	23		mov __signed_stack_001BonecoAlvo, bonecoAlvo
9	200	25	#line 200 "C:\Users\Lucas\Desktop\UnB\Droid\sekksi2016\tentativa2\consultor.nxc"
9	201	25	#line 201 "C:\Users\Lucas\Desktop\UnB\Droid\sekksi2016\tentativa2\consultor.nxc"
9	202	25		set __D0BonecoAlvo, 1
9	201	28	#line 201 "C:\Users\Lucas\Desktop\UnB\Droid\sekksi2016\tentativa2\consultor.nxc"
9	202	28		cmp 4, __D0BonecoAlvo, __signed_stack_001BonecoAlvo, __D0BonecoAlvo
9	202	32	#line 202 "C:\Users\Lucas\Desktop\UnB\Droid\sekksi2016\tentativa2\consultor.nxc"
9	203	32		brtst 4, __ASM_Label_599, __D0BonecoAlvo
9	202	35	#line 202 "C:\Users\Lucas\Desktop\UnB\Droid\sekksi2016\tentativa2\consultor.nxc"
9	203	35		subcall BipBranco, __BipBranco_return
9	202	37	#line 202 "C:\Users\Lucas\Desktop\UnB\Droid\sekksi2016\tentativa2\consultor.nxc"
9	203	37	#line 203 "C:\Users\Lucas\Desktop\UnB\Droid\sekksi2016\tentativa2\consultor.nxc"
9	204	37		set bonecoNaoAlvo, 2
9	203	40	#line 203 "C:\Users\Lucas\Desktop\UnB\Droid\sekksi2016\tentativa2\consultor.nxc"
9	203	40	#line 203 "C:\Users\Lucas\Desktop\UnB\Droid\sekksi2016\tentativa2\consultor.nxc"
9	207	40	#line 207 "C:\Users\Lucas\Desktop\UnB\Droid\sekksi2016\tentativa2\consultor.nxc"
9	207	40	#line 207 "C:\Users\Lucas\Desktop\UnB\Droid\sekksi2016\tentativa2\consultor.nxc"
9	207	40	#line 207 "C:\Users\Lucas\Desktop\UnB\Droid\sekksi2016\tentativa2\consultor.nxc"
9	208	40		subret __BonecoAlvo_return
10	213	0	#line 213 "C:\Users\Lucas\Desktop\UnB\Droid\sekksi2016\tentativa2\consultor.nxc"
10	214	0		set __lerSensor_7qG2_sensor_7qG2_000, 0
10	213	3	#line 213 "C:\Users\Lucas\Desktop\UnB\Droid\sekksi2016\tentativa2\consultor.nxc"
10	213	3	#line 213 "C:\Users\Lucas\Desktop\UnB\Droid\sekksi2016\tentativa2\consultor.nxc"
10	214	3		subcall lerSensor, __lerSensor_return
10	213	5	#line 213 "C:\Users\Lucas\Desktop\UnB\Droid\sekksi2016\tentativa2\consultor.nxc"
10	214	5		mov __TemBoneco_7qG2_rgb_dir_7qG2_000, __D0lerSensor
10	213	7	#line 213 "C:\Users\Lucas\Desktop\UnB\Droid\sekksi2016\tentativa2\consultor.nxc"
10	213	7	#line 213 "C:\Users\Lucas\Desktop\UnB\Droid\sekksi2016\tentativa2\consultor.nxc"
10	214	7	#line 214 "C:\Users\Lucas\Desktop\UnB\Droid\sekksi2016\tentativa2\consultor.nxc"
10	215	7		set __lerSensor_7qG2_sensor_7qG2_000, 1
10	214	10	#line 214 "C:\Users\Lucas\Desktop\UnB\Droid\sekksi2016\tentativa2\consultor.nxc"
10	214	10	#line 214 "C:\Users\Lucas\Desktop\UnB\Droid\sekksi2016\tentativa2\consultor.nxc"
10	215	10		subcall lerSensor, __lerSensor_return
10	214	12	#line 214 "C:\Users\Lucas\Desktop\UnB\Droid\sekksi2016\tentativa2\consultor.nxc"
10	215	12		mov __TemBoneco_7qG2_rgb_esq_7qG2_000, __D0lerSensor
10	214	14	#line 214 "C:\Users\Lucas\Desktop\UnB\Droid\sekksi2016\tentativa2\consultor.nxc"
10	214	14	#line 214 "C:\Users\Lucas\Desktop\UnB\Droid\sekksi2016\tentativa2\consultor.nxc"
10	215	14	#line 215 "C:\Users\Lucas\Desktop\UnB\Droid\sekksi2016\tentativa2\consultor.nxc"
10	216	14		set __lerSensor_7qG2_sensor_7qG2_000, 2
10	215	17	#line 215 "C:\Users\Lucas\Desktop\UnB\Droid\sekksi2016\tentativa2\consultor.nxc"
10	215	17	#line 215 "C:\Users\Lucas\Desktop\UnB\Droid\sekksi2016\tentativa2\consultor.nxc"
10	216	17		subcall lerSensor, __lerSensor_return
10	215	19	#line 215 "C:\Users\Lucas\Desktop\UnB\Droid\sekksi2016\tentativa2\consultor.nxc"
10	216	19		mov __TemBoneco_7qG2_rgb_meio_7qG2_000, __D0lerSensor
10	215	21	#line 215 "C:\Users\Lucas\Desktop\UnB\Droid\sekksi2016\tentativa2\consultor.nxc"
10	215	21	#line 215 "C:\Users\Lucas\Desktop\UnB\Droid\sekksi2016\tentativa2\consultor.nxc"
10	220	21	#line 220 "C:\Users\Lucas\Desktop\UnB\Droid\sekksi2016\tentativa2\consultor.nxc"
10	221	21		mov __signed_stack_001TemBoneco, __TemBoneco_7qG2_rgb_dir_7qG2_000
10	220	23	#line 220 "C:\Users\Lucas\Desktop\UnB\Droid\sekksi2016\tentativa2\consultor.nxc"
10	220	23	#line 220 "C:\Users\Lucas\Desktop\UnB\Droid\sekksi2016\tentativa2\consultor.nxc"
10	221	23		mov __D0TemBoneco, CorBaseDirMax
10	220	25	#line 220 "C:\Users\Lucas\Desktop\UnB\Droid\sekksi2016\tentativa2\consultor.nxc"
10	221	25		cmp 0, __D0TemBoneco, __signed_stack_001TemBoneco, __D0TemBoneco
10	220	29	#line 220 "C:\Users\Lucas\Desktop\UnB\Droid\sekksi2016\tentativa2\consultor.nxc"
10	221	29		brtst 4, __ASM_Label_617, __D0TemBoneco
10	220	32	#line 220 "C:\Users\Lucas\Desktop\UnB\Droid\sekksi2016\tentativa2\consultor.nxc"
10	221	32		mov __signed_stack_001TemBoneco, __TemBoneco_7qG2_rgb_dir_7qG2_000
10	220	34	#line 220 "C:\Users\Lucas\Desktop\UnB\Droid\sekksi2016\tentativa2\consultor.nxc"
10	220	34	#line 220 "C:\Users\Lucas\Desktop\UnB\Droid\sekksi2016\tentativa2\consultor.nxc"
10	221	34		mov __D0TemBoneco, CorBaseDirMin
10	220	36	#line 220 "C:\Users\Lucas\Desktop\UnB\Droid\sekksi2016\tentativa2\consultor.nxc"
10	221	36		cmp 1, __D0TemBoneco, __signed_stack_001TemBoneco, __D0TemBoneco
10	220	40	#line 220 "C:\Users\Lucas\Desktop\UnB\Droid\sekksi2016\tentativa2\consultor.nxc"
10	221	40		brtst 4, __ASM_Label_615, __D0TemBoneco
10	220	43	#line 220 "C:\Users\Lucas\Desktop\UnB\Droid\sekksi2016\tentativa2\consultor.nxc"
10	221	43		mov __signed_stack_001TemBoneco, __TemBoneco_7qG2_rgb_esq_7qG2_000
10	220	45	#line 220 "C:\Users\Lucas\Desktop\UnB\Droid\sekksi2016\tentativa2\consultor.nxc"
10	220	45	#line 220 "C:\Users\Lucas\Desktop\UnB\Droid\sekksi2016\tentativa2\consultor.nxc"
10	221	45		mov __D0TemBoneco, CorBaseEsqMax
10	220	47	#line 220 "C:\Users\Lucas\Desktop\UnB\Droid\sekksi2016\tentativa2\consultor.nxc"
10	221	47		cmp 0, __D0TemBoneco, __signed_stack_001TemBoneco, __D0TemBoneco
10	220	51	#line 220 "C:\Users\Lucas\Desktop\UnB\Droid\sekksi2016\tentativa2\consultor.nxc"
10	221	51		brtst 4, __ASM_Label_623, __D0TemBoneco
10	220	54	#line 220 "C:\Users\Lucas\Desktop\UnB\Droid\sekksi2016\tentativa2\consultor.nxc"
10	221	54		mov __signed_stack_001TemBoneco, __TemBoneco_7qG2_rgb_esq_7qG2_000
10	220	56	#line 220 "C:\Users\Lucas\Desktop\UnB\Droid\sekksi2016\tentativa2\consultor.nxc"
10	220	56	#line 220 "C:\Users\Lucas\Desktop\UnB\Droid\sekksi2016\tentativa2\consultor.nxc"
10	221	56		mov __D0TemBoneco, CorBaseEsqMin
10	220	58	#line 220 "C:\Users\Lucas\Desktop\UnB\Droid\sekksi2016\tentativa2\consultor.nxc"
10	221	58		cmp 1, __D0TemBoneco, __signed_stack_001TemBoneco, __D0TemBoneco
10	220	62	#line 220 "C:\Users\Lucas\Desktop\UnB\Droid\sekksi2016\tentativa2\consultor.nxc"
10	221	62		brtst 4, __ASM_Label_615, __D0TemBoneco
10	220	65	#line 220 "C:\Users\Lucas\Desktop\UnB\Droid\sekksi2016\tentativa2\consultor.nxc"
10	221	65		mov __signed_stack_001TemBoneco, __TemBoneco_7qG2_rgb_meio_7qG2_000
10	220	67	#line 220 "C:\Users\Lucas\Desktop\UnB\Droid\sekksi2016\tentativa2\consultor.nxc"
10	220	67	#line 220 "C:\Users\Lucas\Desktop\UnB\Droid\sekksi2016\tentativa2\consultor.nxc"
10	221	67		mov __D0TemBoneco, CorBaseMeioMax
10	220	69	#line 220 "C:\Users\Lucas\Desktop\UnB\Droid\sekksi2016\tentativa2\consultor.nxc"
10	221	69		cmp 0, __D0TemBoneco, __signed_stack_001TemBoneco, __D0TemBoneco
10	220	73	#line 220 "C:\Users\Lucas\Desktop\UnB\Droid\sekksi2016\tentativa2\consultor.nxc"
10	221	73		brtst 4, __ASM_Label_629, __D0TemBoneco
10	220	76	#line 220 "C:\Users\Lucas\Desktop\UnB\Droid\sekksi2016\tentativa2\consultor.nxc"
10	221	76		mov __signed_stack_001TemBoneco, __TemBoneco_7qG2_rgb_meio_7qG2_000
10	220	78	#line 220 "C:\Users\Lucas\Desktop\UnB\Droid\sekksi2016\tentativa2\consultor.nxc"
10	220	78	#line 220 "C:\Users\Lucas\Desktop\UnB\Droid\sekksi2016\tentativa2\consultor.nxc"
10	221	78		mov __D0TemBoneco, CorBaseMeioMin
10	220	80	#line 220 "C:\Users\Lucas\Desktop\UnB\Droid\sekksi2016\tentativa2\consultor.nxc"
10	221	80		cmp 1, __D0TemBoneco, __signed_stack_001TemBoneco, __D0TemBoneco
10	221	84	#line 221 "C:\Users\Lucas\Desktop\UnB\Droid\sekksi2016\tentativa2\consultor.nxc"
10	222	84		brtst 4, __ASM_Label_634, __D0TemBoneco
10	221	87	#line 221 "C:\Users\Lucas\Desktop\UnB\Droid\sekksi2016\tentativa2\consultor.nxc"
10	222	87		set __D0TemBoneco, 0
10	221	90	#line 221 "C:\Users\Lucas\Desktop\UnB\Droid\sekksi2016\tentativa2\consultor.nxc"
10	222	90		subret __TemBoneco_return
10	221	92	#line 221 "C:\Users\Lucas\Desktop\UnB\Droid\sekksi2016\tentativa2\consultor.nxc"
10	222	92	#line 222 "C:\Users\Lucas\Desktop\UnB\Droid\sekksi2016\tentativa2\consultor.nxc"
10	222	92	#line 222 "C:\Users\Lucas\Desktop\UnB\Droid\sekksi2016\tentativa2\consultor.nxc"
10	223	92		set __D0TemBoneco, 1
10	222	95	#line 222 "C:\Users\Lucas\Desktop\UnB\Droid\sekksi2016\tentativa2\consultor.nxc"
10	223	95		subret __TemBoneco_return
10	222	97	#line 222 "C:\Users\Lucas\Desktop\UnB\Droid\sekksi2016\tentativa2\consultor.nxc"
10	225	97	#line 225 "C:\Users\Lucas\Desktop\UnB\Droid\sekksi2016\tentativa2\consultor.nxc"
10	226	97		subret __TemBoneco_return
11	239	0	#line 239 "C:\Users\Lucas\Desktop\UnB\Droid\sekksi2016\tentativa2\consultor.nxc"
11	239	0	#line 239 "C:\Users\Lucas\Desktop\UnB\Droid\sekksi2016\tentativa2\consultor.nxc"
11	257	0	#line 257 "C:\Users\Lucas\Desktop\UnB\Droid\sekksi2016\tentativa2\consultor.nxc"
11	258	0		set __D0RecebeBoneco, 2
11	257	3	#line 257 "C:\Users\Lucas\Desktop\UnB\Droid\sekksi2016\tentativa2\consultor.nxc"
11	258	3		subret __RecebeBoneco_return
11	257	5	#line 257 "C:\Users\Lucas\Desktop\UnB\Droid\sekksi2016\tentativa2\consultor.nxc"
11	261	5	#line 261 "C:\Users\Lucas\Desktop\UnB\Droid\sekksi2016\tentativa2\consultor.nxc"
11	262	5		subret __RecebeBoneco_return
12	274	0	#line 274 "C:\Users\Lucas\Desktop\UnB\Droid\sekksi2016\tentativa2\consultor.nxc"
12	275	0		arrinit __lerSensor_7qG2_leitura_7qG2_000, __constVal0, __constVal11
12	276	4	#line 276 "C:\Users\Lucas\Desktop\UnB\Droid\sekksi2016\tentativa2\consultor.nxc"
12	277	4		set __lerSensor_7qG2_i_7qG2_000, 0
12	276	7	#line 276 "C:\Users\Lucas\Desktop\UnB\Droid\sekksi2016\tentativa2\consultor.nxc"
12	276	7	#line 276 "C:\Users\Lucas\Desktop\UnB\Droid\sekksi2016\tentativa2\consultor.nxc"
12	277	7		mov __signed_stack_001lerSensor, __lerSensor_7qG2_i_7qG2_000
12	276	9	#line 276 "C:\Users\Lucas\Desktop\UnB\Droid\sekksi2016\tentativa2\consultor.nxc"
12	276	9	#line 276 "C:\Users\Lucas\Desktop\UnB\Droid\sekksi2016\tentativa2\consultor.nxc"
12	277	9		set __D0lerSensor, 11
12	276	12	#line 276 "C:\Users\Lucas\Desktop\UnB\Droid\sekksi2016\tentativa2\consultor.nxc"
12	277	12		cmp 0, __D0lerSensor, __signed_stack_001lerSensor, __D0lerSensor
12	276	16	#line 276 "C:\Users\Lucas\Desktop\UnB\Droid\sekksi2016\tentativa2\consultor.nxc"
12	277	16		brtst 4, __ASM_Label_672, __D0lerSensor
12	276	19	#line 276 "C:\Users\Lucas\Desktop\UnB\Droid\sekksi2016\tentativa2\consultor.nxc"
12	277	19		jmp __ASM_Label_673
12	276	21	#line 276 "C:\Users\Lucas\Desktop\UnB\Droid\sekksi2016\tentativa2\consultor.nxc"
12	277	21		add __lerSensor_7qG2_i_7qG2_000, __lerSensor_7qG2_i_7qG2_000, __constVal1
12	277	25	#line 277 "C:\Users\Lucas\Desktop\UnB\Droid\sekksi2016\tentativa2\consultor.nxc"
12	278	25		jmp __ASM_Label_671
12	277	27	#line 277 "C:\Users\Lucas\Desktop\UnB\Droid\sekksi2016\tentativa2\consultor.nxc"
12	278	27		getin __lerSensor_7qG2_aux_7qG2_000, __lerSensor_7qG2_sensor_7qG2_000, 2
12	277	31	#line 277 "C:\Users\Lucas\Desktop\UnB\Droid\sekksi2016\tentativa2\consultor.nxc"
12	277	31	#line 277 "C:\Users\Lucas\Desktop\UnB\Droid\sekksi2016\tentativa2\consultor.nxc"
12	279	31	#line 279 "C:\Users\Lucas\Desktop\UnB\Droid\sekksi2016\tentativa2\consultor.nxc"
12	280	31		set __lerSensor_7qG2_j_7qG2_000, 0
12	279	34	#line 279 "C:\Users\Lucas\Desktop\UnB\Droid\sekksi2016\tentativa2\consultor.nxc"
12	279	34	#line 279 "C:\Users\Lucas\Desktop\UnB\Droid\sekksi2016\tentativa2\consultor.nxc"
12	280	34	#line 280 "C:\Users\Lucas\Desktop\UnB\Droid\sekksi2016\tentativa2\consultor.nxc"
12	281	34		mov __signed_stack_001lerSensor, __lerSensor_7qG2_aux_7qG2_000
12	280	36	#line 280 "C:\Users\Lucas\Desktop\UnB\Droid\sekksi2016\tentativa2\consultor.nxc"
12	280	36	#line 280 "C:\Users\Lucas\Desktop\UnB\Droid\sekksi2016\tentativa2\consultor.nxc"
12	281	36		mov __signed_stack_002lerSensor, __lerSensor_7qG2_j_7qG2_000
12	280	38	#line 280 "C:\Users\Lucas\Desktop\UnB\Droid\sekksi2016\tentativa2\consultor.nxc"
12	280	38	#line 280 "C:\Users\Lucas\Desktop\UnB\Droid\sekksi2016\tentativa2\consultor.nxc"
12	281	38		index __D0lerSensor, __lerSensor_7qG2_leitura_7qG2_000, __signed_stack_002lerSensor
12	280	42	#line 280 "C:\Users\Lucas\Desktop\UnB\Droid\sekksi2016\tentativa2\consultor.nxc"
12	280	42	#line 280 "C:\Users\Lucas\Desktop\UnB\Droid\sekksi2016\tentativa2\consultor.nxc"
12	281	42		cmp 0, __D0lerSensor, __signed_stack_001lerSensor, __D0lerSensor
12	280	46	#line 280 "C:\Users\Lucas\Desktop\UnB\Droid\sekksi2016\tentativa2\consultor.nxc"
12	281	46		brtst 4, __ASM_Label_686, __D0lerSensor
12	280	49	#line 280 "C:\Users\Lucas\Desktop\UnB\Droid\sekksi2016\tentativa2\consultor.nxc"
12	281	49		mov __signed_stack_001lerSensor, __lerSensor_7qG2_j_7qG2_000
12	280	51	#line 280 "C:\Users\Lucas\Desktop\UnB\Droid\sekksi2016\tentativa2\consultor.nxc"
12	281	51	#line 281 "C:\Users\Lucas\Desktop\UnB\Droid\sekksi2016\tentativa2\consultor.nxc"
12	282	51		mov __D0lerSensor, __lerSensor_7qG2_i_7qG2_000
12	281	53	#line 281 "C:\Users\Lucas\Desktop\UnB\Droid\sekksi2016\tentativa2\consultor.nxc"
12	282	53		cmp 0, __D0lerSensor, __signed_stack_001lerSensor, __D0lerSensor
12	282	57	#line 282 "C:\Users\Lucas\Desktop\UnB\Droid\sekksi2016\tentativa2\consultor.nxc"
12	283	57		brtst 4, __ASM_Label_684, __D0lerSensor
12	282	60	#line 282 "C:\Users\Lucas\Desktop\UnB\Droid\sekksi2016\tentativa2\consultor.nxc"
12	283	60		add __lerSensor_7qG2_j_7qG2_000, __lerSensor_7qG2_j_7qG2_000, __constVal1
12	282	64	#line 282 "C:\Users\Lucas\Desktop\UnB\Droid\sekksi2016\tentativa2\consultor.nxc"
12	285	64	#line 285 "C:\Users\Lucas\Desktop\UnB\Droid\sekksi2016\tentativa2\consultor.nxc"
12	286	64		jmp __ASM_Label_683
12	285	66	#line 285 "C:\Users\Lucas\Desktop\UnB\Droid\sekksi2016\tentativa2\consultor.nxc"
12	285	66	#line 285 "C:\Users\Lucas\Desktop\UnB\Droid\sekksi2016\tentativa2\consultor.nxc"
12	286	66		mov __signed_stack_001lerSensor, __lerSensor_7qG2_j_7qG2_000
12	285	68	#line 285 "C:\Users\Lucas\Desktop\UnB\Droid\sekksi2016\tentativa2\consultor.nxc"
12	285	68	#line 285 "C:\Users\Lucas\Desktop\UnB\Droid\sekksi2016\tentativa2\consultor.nxc"
12	286	68		mov __D0lerSensor, __lerSensor_7qG2_i_7qG2_000
12	285	70	#line 285 "C:\Users\Lucas\Desktop\UnB\Droid\sekksi2016\tentativa2\consultor.nxc"
12	286	70		cmp 0, __D0lerSensor, __signed_stack_001lerSensor, __D0lerSensor
12	286	74	#line 286 "C:\Users\Lucas\Desktop\UnB\Droid\sekksi2016\tentativa2\consultor.nxc"
12	287	74		brtst 4, __ASM_Label_691, __D0lerSensor
12	286	77	#line 286 "C:\Users\Lucas\Desktop\UnB\Droid\sekksi2016\tentativa2\consultor.nxc"
12	287	77		mov __lerSensor_7qG2_k_7qG2_000, __lerSensor_7qG2_i_7qG2_000
12	286	79	#line 286 "C:\Users\Lucas\Desktop\UnB\Droid\sekksi2016\tentativa2\consultor.nxc"
12	286	79	#line 286 "C:\Users\Lucas\Desktop\UnB\Droid\sekksi2016\tentativa2\consultor.nxc"
12	287	79		mov __signed_stack_001lerSensor, __lerSensor_7qG2_k_7qG2_000
12	286	81	#line 286 "C:\Users\Lucas\Desktop\UnB\Droid\sekksi2016\tentativa2\consultor.nxc"
12	286	81	#line 286 "C:\Users\Lucas\Desktop\UnB\Droid\sekksi2016\tentativa2\consultor.nxc"
12	287	81		mov __D0lerSensor, __lerSensor_7qG2_j_7qG2_000
12	286	83	#line 286 "C:\Users\Lucas\Desktop\UnB\Droid\sekksi2016\tentativa2\consultor.nxc"
12	287	83		cmp 1, __D0lerSensor, __signed_stack_001lerSensor, __D0lerSensor
12	286	87	#line 286 "C:\Users\Lucas\Desktop\UnB\Droid\sekksi2016\tentativa2\consultor.nxc"
12	287	87		brtst 4, __ASM_Label_693, __D0lerSensor
12	286	90	#line 286 "C:\Users\Lucas\Desktop\UnB\Droid\sekksi2016\tentativa2\consultor.nxc"
12	287	90		jmp __ASM_Label_694
12	286	92	#line 286 "C:\Users\Lucas\Desktop\UnB\Droid\sekksi2016\tentativa2\consultor.nxc"
12	287	92		sub __lerSensor_7qG2_k_7qG2_000, __lerSensor_7qG2_k_7qG2_000, __constVal1
12	287	96	#line 287 "C:\Users\Lucas\Desktop\UnB\Droid\sekksi2016\tentativa2\consultor.nxc"
12	288	96		jmp __ASM_Label_692
12	287	98	#line 287 "C:\Users\Lucas\Desktop\UnB\Droid\sekksi2016\tentativa2\consultor.nxc"
12	288	98		mov __signed_stack_001lerSensor, __lerSensor_7qG2_k_7qG2_000
12	287	100	#line 287 "C:\Users\Lucas\Desktop\UnB\Droid\sekksi2016\tentativa2\consultor.nxc"
12	287	100	#line 287 "C:\Users\Lucas\Desktop\UnB\Droid\sekksi2016\tentativa2\consultor.nxc"
12	288	100		mov __signed_stack_002lerSensor, __lerSensor_7qG2_k_7qG2_000
12	287	102	#line 287 "C:\Users\Lucas\Desktop\UnB\Droid\sekksi2016\tentativa2\consultor.nxc"
12	287	102	#line 287 "C:\Users\Lucas\Desktop\UnB\Droid\sekksi2016\tentativa2\consultor.nxc"
12	288	102		set __D0lerSensor, 1
12	287	105	#line 287 "C:\Users\Lucas\Desktop\UnB\Droid\sekksi2016\tentativa2\consultor.nxc"
12	288	105		sub __signed_stack_002lerSensor, __signed_stack_002lerSensor, __D0lerSensor
12	287	109	#line 287 "C:\Users\Lucas\Desktop\UnB\Droid\sekksi2016\tentativa2\consultor.nxc"
12	287	109	#line 287 "C:\Users\Lucas\Desktop\UnB\Droid\sekksi2016\tentativa2\consultor.nxc"
12	288	109		index __D0lerSensor, __lerSensor_7qG2_leitura_7qG2_000, __signed_stack_002lerSensor
12	287	113	#line 287 "C:\Users\Lucas\Desktop\UnB\Droid\sekksi2016\tentativa2\consultor.nxc"
12	287	113	#line 287 "C:\Users\Lucas\Desktop\UnB\Droid\sekksi2016\tentativa2\consultor.nxc"
12	288	113		replace __lerSensor_7qG2_leitura_7qG2_000, __lerSensor_7qG2_leitura_7qG2_000, __signed_stack_001lerSensor, __D0lerSensor
12	287	118	#line 287 "C:\Users\Lucas\Desktop\UnB\Droid\sekksi2016\tentativa2\consultor.nxc"
12	289	118	#line 289 "C:\Users\Lucas\Desktop\UnB\Droid\sekksi2016\tentativa2\consultor.nxc"
12	290	118		jmp __ASM_Label_695
12	289	120	#line 289 "C:\Users\Lucas\Desktop\UnB\Droid\sekksi2016\tentativa2\consultor.nxc"
12	289	120	#line 289 "C:\Users\Lucas\Desktop\UnB\Droid\sekksi2016\tentativa2\consultor.nxc"
12	290	120		mov __signed_stack_001lerSensor, __lerSensor_7qG2_j_7qG2_000
12	289	122	#line 289 "C:\Users\Lucas\Desktop\UnB\Droid\sekksi2016\tentativa2\consultor.nxc"
12	289	122	#line 289 "C:\Users\Lucas\Desktop\UnB\Droid\sekksi2016\tentativa2\consultor.nxc"
12	290	122		mov __D0lerSensor, __lerSensor_7qG2_aux_7qG2_000
12	289	124	#line 289 "C:\Users\Lucas\Desktop\UnB\Droid\sekksi2016\tentativa2\consultor.nxc"
12	290	124		replace __lerSensor_7qG2_leitura_7qG2_000, __lerSensor_7qG2_leitura_7qG2_000, __signed_stack_001lerSensor, __D0lerSensor
12	289	129	#line 289 "C:\Users\Lucas\Desktop\UnB\Droid\sekksi2016\tentativa2\consultor.nxc"
12	292	129	#line 292 "C:\Users\Lucas\Desktop\UnB\Droid\sekksi2016\tentativa2\consultor.nxc"
12	293	129		jmp __ASM_Label_710
12	292	131	#line 292 "C:\Users\Lucas\Desktop\UnB\Droid\sekksi2016\tentativa2\consultor.nxc"
12	293	131		mov __signed_stack_001lerSensor, __lerSensor_7qG2_i_7qG2_000
12	292	133	#line 292 "C:\Users\Lucas\Desktop\UnB\Droid\sekksi2016\tentativa2\consultor.nxc"
12	292	133	#line 292 "C:\Users\Lucas\Desktop\UnB\Droid\sekksi2016\tentativa2\consultor.nxc"
12	293	133		mov __D0lerSensor, __lerSensor_7qG2_aux_7qG2_000
12	292	135	#line 292 "C:\Users\Lucas\Desktop\UnB\Droid\sekksi2016\tentativa2\consultor.nxc"
12	293	135		replace __lerSensor_7qG2_leitura_7qG2_000, __lerSensor_7qG2_leitura_7qG2_000, __signed_stack_001lerSensor, __D0lerSensor
12	292	140	#line 292 "C:\Users\Lucas\Desktop\UnB\Droid\sekksi2016\tentativa2\consultor.nxc"
12	296	140	#line 296 "C:\Users\Lucas\Desktop\UnB\Droid\sekksi2016\tentativa2\consultor.nxc"
12	296	140	#line 296 "C:\Users\Lucas\Desktop\UnB\Droid\sekksi2016\tentativa2\consultor.nxc"
12	297	140		jmp __ASM_Label_674
12	296	142	#line 296 "C:\Users\Lucas\Desktop\UnB\Droid\sekksi2016\tentativa2\consultor.nxc"
12	296	142	#line 296 "C:\Users\Lucas\Desktop\UnB\Droid\sekksi2016\tentativa2\consultor.nxc"
12	297	142		set __signed_stack_001lerSensor, 5
12	296	145	#line 296 "C:\Users\Lucas\Desktop\UnB\Droid\sekksi2016\tentativa2\consultor.nxc"
12	296	145	#line 296 "C:\Users\Lucas\Desktop\UnB\Droid\sekksi2016\tentativa2\consultor.nxc"
12	297	145		index __D0lerSensor, __lerSensor_7qG2_leitura_7qG2_000, __signed_stack_001lerSensor
12	296	149	#line 296 "C:\Users\Lucas\Desktop\UnB\Droid\sekksi2016\tentativa2\consultor.nxc"
12	296	149	#line 296 "C:\Users\Lucas\Desktop\UnB\Droid\sekksi2016\tentativa2\consultor.nxc"
12	297	149		subret __lerSensor_return
12	296	151	#line 296 "C:\Users\Lucas\Desktop\UnB\Droid\sekksi2016\tentativa2\consultor.nxc"
12	299	151	#line 299 "C:\Users\Lucas\Desktop\UnB\Droid\sekksi2016\tentativa2\consultor.nxc"
12	300	151		subret __lerSensor_return
13	303	0	#line 303 "C:\Users\Lucas\Desktop\UnB\Droid\sekksi2016\tentativa2\consultor.nxc"
13	304	0		mov __D0PegaBoneco, __constValNeg30
13	303	2	#line 303 "C:\Users\Lucas\Desktop\UnB\Droid\sekksi2016\tentativa2\consultor.nxc"
13	304	2	#pragma macro 7
13	304	2		setout __constVal0, 2, __D0PegaBoneco, 1, __constVal3, 8, __constVal0, 6, __constVal32, 7, __constVal0, 5, __constVal0, 10, __constVal96, 11, __constVal32, 12, __constVal32, 0, __constVal63
13	6236	25	#line 6236 "C:\Users\Lucas\Desktop\UnB\Droid\sekksi2016\tentativa2\consultor.nxc"
13	303	25	#line 303 "C:\Users\Lucas\Desktop\UnB\Droid\sekksi2016\tentativa2\consultor.nxc"
13	304	25	#line 304 "C:\Users\Lucas\Desktop\UnB\Droid\sekksi2016\tentativa2\consultor.nxc"
13	305	25		getout __PegaBoneco_7qG2_tc_7qG2_000, __constVal0, 4
13	304	29	#line 304 "C:\Users\Lucas\Desktop\UnB\Droid\sekksi2016\tentativa2\consultor.nxc"
13	304	29	#line 304 "C:\Users\Lucas\Desktop\UnB\Droid\sekksi2016\tentativa2\consultor.nxc"
13	308	29	#line 308 "C:\Users\Lucas\Desktop\UnB\Droid\sekksi2016\tentativa2\consultor.nxc"
13	309	29		set __Wait_7qG2_ms_7qG2_000_inline_PegaBoneco, 200
13	308	32	#line 308 "C:\Users\Lucas\Desktop\UnB\Droid\sekksi2016\tentativa2\consultor.nxc"
13	8869	32	#line 8869 "NXCDefs.h"
13	8870	32		wait2 NA, __Wait_7qG2_ms_7qG2_000_inline_PegaBoneco
13	8869	35	#line 8869 "NXCDefs.h"
13	308	35	#line 308 "C:\Users\Lucas\Desktop\UnB\Droid\sekksi2016\tentativa2\consultor.nxc"
13	309	35	#line 309 "C:\Users\Lucas\Desktop\UnB\Droid\sekksi2016\tentativa2\consultor.nxc"
13	310	35		mov __PegaBoneco_7qG2_old_tc_7qG2_000, __PegaBoneco_7qG2_tc_7qG2_000
13	309	37	#line 309 "C:\Users\Lucas\Desktop\UnB\Droid\sekksi2016\tentativa2\consultor.nxc"
13	309	37	#line 309 "C:\Users\Lucas\Desktop\UnB\Droid\sekksi2016\tentativa2\consultor.nxc"
13	310	37	#line 310 "C:\Users\Lucas\Desktop\UnB\Droid\sekksi2016\tentativa2\consultor.nxc"
13	311	37		getout __PegaBoneco_7qG2_tc_7qG2_000, __constVal0, 4
13	310	41	#line 310 "C:\Users\Lucas\Desktop\UnB\Droid\sekksi2016\tentativa2\consultor.nxc"
13	310	41	#line 310 "C:\Users\Lucas\Desktop\UnB\Droid\sekksi2016\tentativa2\consultor.nxc"
13	311	41	#line 311 "C:\Users\Lucas\Desktop\UnB\Droid\sekksi2016\tentativa2\consultor.nxc"
13	312	41		mov __signed_stack_001PegaBoneco, __PegaBoneco_7qG2_tc_7qG2_000
13	311	43	#line 311 "C:\Users\Lucas\Desktop\UnB\Droid\sekksi2016\tentativa2\consultor.nxc"
13	312	43	#line 312 "C:\Users\Lucas\Desktop\UnB\Droid\sekksi2016\tentativa2\consultor.nxc"
13	313	43		mov __D0PegaBoneco, __constValNeg153
13	312	45	#line 312 "C:\Users\Lucas\Desktop\UnB\Droid\sekksi2016\tentativa2\consultor.nxc"
13	313	45		cmp 0, __D0PegaBoneco, __signed_stack_001PegaBoneco, __D0PegaBoneco
13	313	49	#line 313 "C:\Users\Lucas\Desktop\UnB\Droid\sekksi2016\tentativa2\consultor.nxc"
13	314	49		brtst 4, __ASM_Label_735, __D0PegaBoneco
13	313	52	#line 313 "C:\Users\Lucas\Desktop\UnB\Droid\sekksi2016\tentativa2\consultor.nxc"
13	314	52		set __D0PegaBoneco, 0
13	313	55	#line 313 "C:\Users\Lucas\Desktop\UnB\Droid\sekksi2016\tentativa2\consultor.nxc"
13	314	55	#pragma macro 7
13	314	55		setout __constVal0, 2, __D0PegaBoneco, 1, __constVal3, 8, __constVal0, 6, __constVal32, 7, __constVal0, 5, __constVal0, 10, __constVal96, 11, __constVal32, 12, __constVal32, 0, __constVal63
13	6289	78	#line 6289 "C:\Users\Lucas\Desktop\UnB\Droid\sekksi2016\tentativa2\consultor.nxc"
13	313	78	#line 313 "C:\Users\Lucas\Desktop\UnB\Droid\sekksi2016\tentativa2\consultor.nxc"
13	315	78	#line 315 "C:\Users\Lucas\Desktop\UnB\Droid\sekksi2016\tentativa2\consultor.nxc"
13	316	78		subcall VoltaGarra, __VoltaGarra_return
13	315	81	#line 315 "C:\Users\Lucas\Desktop\UnB\Droid\sekksi2016\tentativa2\consultor.nxc"
13	316	81	#line 316 "C:\Users\Lucas\Desktop\UnB\Droid\sekksi2016\tentativa2\consultor.nxc"
13	317	81		set __D0PegaBoneco, 0
13	316	84	#line 316 "C:\Users\Lucas\Desktop\UnB\Droid\sekksi2016\tentativa2\consultor.nxc"
13	317	84		subret __PegaBoneco_return
13	316	86	#line 316 "C:\Users\Lucas\Desktop\UnB\Droid\sekksi2016\tentativa2\consultor.nxc"
13	318	86	#line 318 "C:\Users\Lucas\Desktop\UnB\Droid\sekksi2016\tentativa2\consultor.nxc"
13	318	86	#line 318 "C:\Users\Lucas\Desktop\UnB\Droid\sekksi2016\tentativa2\consultor.nxc"
13	319	86		mov __signed_stack_001PegaBoneco, __PegaBoneco_7qG2_tc_7qG2_000
13	318	88	#line 318 "C:\Users\Lucas\Desktop\UnB\Droid\sekksi2016\tentativa2\consultor.nxc"
13	318	88	#line 318 "C:\Users\Lucas\Desktop\UnB\Droid\sekksi2016\tentativa2\consultor.nxc"
13	319	88		mov __D0PegaBoneco, __PegaBoneco_7qG2_old_tc_7qG2_000
13	318	90	#line 318 "C:\Users\Lucas\Desktop\UnB\Droid\sekksi2016\tentativa2\consultor.nxc"
13	319	90		cmp 5, __D0PegaBoneco, __signed_stack_001PegaBoneco, __D0PegaBoneco
13	318	94	#line 318 "C:\Users\Lucas\Desktop\UnB\Droid\sekksi2016\tentativa2\consultor.nxc"
13	319	94		brtst 4, __ASM_Label_726, __D0PegaBoneco
13	318	97	#line 318 "C:\Users\Lucas\Desktop\UnB\Droid\sekksi2016\tentativa2\consultor.nxc"
13	319	97		jmp __ASM_Label_725
13	318	99	#line 318 "C:\Users\Lucas\Desktop\UnB\Droid\sekksi2016\tentativa2\consultor.nxc"
13	318	99	#line 318 "C:\Users\Lucas\Desktop\UnB\Droid\sekksi2016\tentativa2\consultor.nxc"
13	320	99	#line 320 "C:\Users\Lucas\Desktop\UnB\Droid\sekksi2016\tentativa2\consultor.nxc"
13	321	99		set __D0PegaBoneco, 0
13	320	102	#line 320 "C:\Users\Lucas\Desktop\UnB\Droid\sekksi2016\tentativa2\consultor.nxc"
13	321	102	#pragma macro 7
13	321	102		setout __constVal0, 2, __D0PegaBoneco, 1, __constVal3, 8, __constVal0, 6, __constVal32, 7, __constVal0, 5, __constVal0, 10, __constVal96, 11, __constVal32, 12, __constVal32, 0, __constVal63
13	6323	125	#line 6323 "C:\Users\Lucas\Desktop\UnB\Droid\sekksi2016\tentativa2\consultor.nxc"
13	320	125	#line 320 "C:\Users\Lucas\Desktop\UnB\Droid\sekksi2016\tentativa2\consultor.nxc"
13	322	125	#line 322 "C:\Users\Lucas\Desktop\UnB\Droid\sekksi2016\tentativa2\consultor.nxc"
13	323	125		set __D0PegaBoneco, 1
13	322	128	#line 322 "C:\Users\Lucas\Desktop\UnB\Droid\sekksi2016\tentativa2\consultor.nxc"
13	323	128		subret __PegaBoneco_return
13	322	130	#line 322 "C:\Users\Lucas\Desktop\UnB\Droid\sekksi2016\tentativa2\consultor.nxc"
13	325	130	#line 325 "C:\Users\Lucas\Desktop\UnB\Droid\sekksi2016\tentativa2\consultor.nxc"
13	326	130		subret __PegaBoneco_return
14	329	0	#line 329 "C:\Users\Lucas\Desktop\UnB\Droid\sekksi2016\tentativa2\consultor.nxc"
14	330	0		set __signed_stack_001VoltaGarra, 0
14	329	3	#line 329 "C:\Users\Lucas\Desktop\UnB\Droid\sekksi2016\tentativa2\consultor.nxc"
14	329	3	#line 329 "C:\Users\Lucas\Desktop\UnB\Droid\sekksi2016\tentativa2\consultor.nxc"
14	329	3	#line 329 "C:\Users\Lucas\Desktop\UnB\Droid\sekksi2016\tentativa2\consultor.nxc"
14	330	3		sub __D0VoltaGarra, __signed_stack_001VoltaGarra, __constValNeg30
14	329	7	#line 329 "C:\Users\Lucas\Desktop\UnB\Droid\sekksi2016\tentativa2\consultor.nxc"
14	330	7	#pragma macro 7
14	330	7		setout __constVal0, 2, __D0VoltaGarra, 1, __constVal3, 8, __constVal0, 6, __constVal32, 7, __constVal0, 5, __constVal0, 10, __constVal96, 11, __constVal32, 12, __constVal32, 0, __constVal63
14	6356	30	#line 6356 "C:\Users\Lucas\Desktop\UnB\Droid\sekksi2016\tentativa2\consultor.nxc"
14	329	30	#line 329 "C:\Users\Lucas\Desktop\UnB\Droid\sekksi2016\tentativa2\consultor.nxc"
14	330	30	#line 330 "C:\Users\Lucas\Desktop\UnB\Droid\sekksi2016\tentativa2\consultor.nxc"
14	331	30		getout __VoltaGarra_7qG2_tc_7qG2_000, __constVal0, 4
14	330	34	#line 330 "C:\Users\Lucas\Desktop\UnB\Droid\sekksi2016\tentativa2\consultor.nxc"
14	330	34	#line 330 "C:\Users\Lucas\Desktop\UnB\Droid\sekksi2016\tentativa2\consultor.nxc"
14	333	34	#line 333 "C:\Users\Lucas\Desktop\UnB\Droid\sekksi2016\tentativa2\consultor.nxc"
14	334	34		set __Wait_7qG2_ms_7qG2_000_inline_VoltaGarra, 200
14	333	37	#line 333 "C:\Users\Lucas\Desktop\UnB\Droid\sekksi2016\tentativa2\consultor.nxc"
14	8869	37	#line 8869 "NXCDefs.h"
14	8870	37		wait2 NA, __Wait_7qG2_ms_7qG2_000_inline_VoltaGarra
14	8869	40	#line 8869 "NXCDefs.h"
14	333	40	#line 333 "C:\Users\Lucas\Desktop\UnB\Droid\sekksi2016\tentativa2\consultor.nxc"
14	334	40	#line 334 "C:\Users\Lucas\Desktop\UnB\Droid\sekksi2016\tentativa2\consultor.nxc"
14	335	40		mov __VoltaGarra_7qG2_old_tc_7qG2_000, __VoltaGarra_7qG2_tc_7qG2_000
14	334	42	#line 334 "C:\Users\Lucas\Desktop\UnB\Droid\sekksi2016\tentativa2\consultor.nxc"
14	334	42	#line 334 "C:\Users\Lucas\Desktop\UnB\Droid\sekksi2016\tentativa2\consultor.nxc"
14	335	42	#line 335 "C:\Users\Lucas\Desktop\UnB\Droid\sekksi2016\tentativa2\consultor.nxc"
14	336	42		getout __VoltaGarra_7qG2_tc_7qG2_000, __constVal0, 4
14	335	46	#line 335 "C:\Users\Lucas\Desktop\UnB\Droid\sekksi2016\tentativa2\consultor.nxc"
14	335	46	#line 335 "C:\Users\Lucas\Desktop\UnB\Droid\sekksi2016\tentativa2\consultor.nxc"
14	336	46	#line 336 "C:\Users\Lucas\Desktop\UnB\Droid\sekksi2016\tentativa2\consultor.nxc"
14	337	46		mov __signed_stack_001VoltaGarra, __VoltaGarra_7qG2_tc_7qG2_000
14	336	48	#line 336 "C:\Users\Lucas\Desktop\UnB\Droid\sekksi2016\tentativa2\consultor.nxc"
14	336	48	#line 336 "C:\Users\Lucas\Desktop\UnB\Droid\sekksi2016\tentativa2\consultor.nxc"
14	337	48		mov __D0VoltaGarra, __VoltaGarra_7qG2_old_tc_7qG2_000
14	336	50	#line 336 "C:\Users\Lucas\Desktop\UnB\Droid\sekksi2016\tentativa2\consultor.nxc"
14	337	50		cmp 5, __D0VoltaGarra, __signed_stack_001VoltaGarra, __D0VoltaGarra
14	336	54	#line 336 "C:\Users\Lucas\Desktop\UnB\Droid\sekksi2016\tentativa2\consultor.nxc"
14	337	54		brtst 4, __ASM_Label_753, __D0VoltaGarra
14	336	57	#line 336 "C:\Users\Lucas\Desktop\UnB\Droid\sekksi2016\tentativa2\consultor.nxc"
14	337	57		jmp __ASM_Label_752
14	336	59	#line 336 "C:\Users\Lucas\Desktop\UnB\Droid\sekksi2016\tentativa2\consultor.nxc"
14	336	59	#line 336 "C:\Users\Lucas\Desktop\UnB\Droid\sekksi2016\tentativa2\consultor.nxc"
14	338	59	#line 338 "C:\Users\Lucas\Desktop\UnB\Droid\sekksi2016\tentativa2\consultor.nxc"
14	339	59		set __D0VoltaGarra, 0
14	338	62	#line 338 "C:\Users\Lucas\Desktop\UnB\Droid\sekksi2016\tentativa2\consultor.nxc"
14	339	62	#pragma macro 7
14	339	62		setout __constVal0, 2, __D0VoltaGarra, 1, __constVal3, 8, __constVal0, 6, __constVal32, 7, __constVal0, 5, __constVal0, 10, __constVal96, 11, __constVal32, 12, __constVal32, 0, __constVal63
14	6414	85	#line 6414 "C:\Users\Lucas\Desktop\UnB\Droid\sekksi2016\tentativa2\consultor.nxc"
14	338	85	#line 338 "C:\Users\Lucas\Desktop\UnB\Droid\sekksi2016\tentativa2\consultor.nxc"
14	341	85	#line 341 "C:\Users\Lucas\Desktop\UnB\Droid\sekksi2016\tentativa2\consultor.nxc"
14	342	85		subret __VoltaGarra_return
15	345	0	#line 345 "C:\Users\Lucas\Desktop\UnB\Droid\sekksi2016\tentativa2\consultor.nxc"
15	346	0		set __lerSensor_7qG2_sensor_7qG2_000, 2
15	345	3	#line 345 "C:\Users\Lucas\Desktop\UnB\Droid\sekksi2016\tentativa2\consultor.nxc"
15	345	3	#line 345 "C:\Users\Lucas\Desktop\UnB\Droid\sekksi2016\tentativa2\consultor.nxc"
15	346	3		subcall lerSensor, __lerSensor_return
15	345	5	#line 345 "C:\Users\Lucas\Desktop\UnB\Droid\sekksi2016\tentativa2\consultor.nxc"
15	346	5		mov __CorBoneco_7qG2_leitura_7qG2_000, __D0lerSensor
15	345	7	#line 345 "C:\Users\Lucas\Desktop\UnB\Droid\sekksi2016\tentativa2\consultor.nxc"
15	345	7	#line 345 "C:\Users\Lucas\Desktop\UnB\Droid\sekksi2016\tentativa2\consultor.nxc"
15	347	7	#line 347 "C:\Users\Lucas\Desktop\UnB\Droid\sekksi2016\tentativa2\consultor.nxc"
15	348	7		mov __signed_stack_001CorBoneco, __D0lerSensor
15	347	9	#line 347 "C:\Users\Lucas\Desktop\UnB\Droid\sekksi2016\tentativa2\consultor.nxc"
15	347	9	#line 347 "C:\Users\Lucas\Desktop\UnB\Droid\sekksi2016\tentativa2\consultor.nxc"
15	348	9		set __D0CorBoneco, 600
15	347	12	#line 347 "C:\Users\Lucas\Desktop\UnB\Droid\sekksi2016\tentativa2\consultor.nxc"
15	348	12		cmp 0, __D0CorBoneco, __signed_stack_001CorBoneco, __D0CorBoneco
15	347	16	#line 347 "C:\Users\Lucas\Desktop\UnB\Droid\sekksi2016\tentativa2\consultor.nxc"
15	348	16		brtst 4, __ASM_Label_769, __D0CorBoneco
15	347	19	#line 347 "C:\Users\Lucas\Desktop\UnB\Droid\sekksi2016\tentativa2\consultor.nxc"
15	348	19		mov __signed_stack_001CorBoneco, __CorBoneco_7qG2_leitura_7qG2_000
15	347	21	#line 347 "C:\Users\Lucas\Desktop\UnB\Droid\sekksi2016\tentativa2\consultor.nxc"
15	347	21	#line 347 "C:\Users\Lucas\Desktop\UnB\Droid\sekksi2016\tentativa2\consultor.nxc"
15	348	21		set __D0CorBoneco, 250
15	347	24	#line 347 "C:\Users\Lucas\Desktop\UnB\Droid\sekksi2016\tentativa2\consultor.nxc"
15	348	24		cmp 1, __D0CorBoneco, __signed_stack_001CorBoneco, __D0CorBoneco
15	349	28	#line 349 "C:\Users\Lucas\Desktop\UnB\Droid\sekksi2016\tentativa2\consultor.nxc"
15	350	28		brtst 4, __ASM_Label_774, __D0CorBoneco
15	349	31	#line 349 "C:\Users\Lucas\Desktop\UnB\Droid\sekksi2016\tentativa2\consultor.nxc"
15	350	31		set __D0CorBoneco, 1
15	349	34	#line 349 "C:\Users\Lucas\Desktop\UnB\Droid\sekksi2016\tentativa2\consultor.nxc"
15	350	34		subret __CorBoneco_return
15	349	36	#line 349 "C:\Users\Lucas\Desktop\UnB\Droid\sekksi2016\tentativa2\consultor.nxc"
15	351	36	#line 351 "C:\Users\Lucas\Desktop\UnB\Droid\sekksi2016\tentativa2\consultor.nxc"
15	351	36	#line 351 "C:\Users\Lucas\Desktop\UnB\Droid\sekksi2016\tentativa2\consultor.nxc"
15	352	36		mov __signed_stack_001CorBoneco, __CorBoneco_7qG2_leitura_7qG2_000
15	351	38	#line 351 "C:\Users\Lucas\Desktop\UnB\Droid\sekksi2016\tentativa2\consultor.nxc"
15	351	38	#line 351 "C:\Users\Lucas\Desktop\UnB\Droid\sekksi2016\tentativa2\consultor.nxc"
15	352	38		set __D0CorBoneco, 250
15	351	41	#line 351 "C:\Users\Lucas\Desktop\UnB\Droid\sekksi2016\tentativa2\consultor.nxc"
15	352	41		cmp 0, __D0CorBoneco, __signed_stack_001CorBoneco, __D0CorBoneco
15	351	45	#line 351 "C:\Users\Lucas\Desktop\UnB\Droid\sekksi2016\tentativa2\consultor.nxc"
15	352	45		brtst 4, __ASM_Label_778, __D0CorBoneco
15	351	48	#line 351 "C:\Users\Lucas\Desktop\UnB\Droid\sekksi2016\tentativa2\consultor.nxc"
15	352	48		mov __signed_stack_001CorBoneco, __CorBoneco_7qG2_leitura_7qG2_000
15	351	50	#line 351 "C:\Users\Lucas\Desktop\UnB\Droid\sekksi2016\tentativa2\consultor.nxc"
15	351	50	#line 351 "C:\Users\Lucas\Desktop\UnB\Droid\sekksi2016\tentativa2\consultor.nxc"
15	352	50		set __D0CorBoneco, 10
15	351	53	#line 351 "C:\Users\Lucas\Desktop\UnB\Droid\sekksi2016\tentativa2\consultor.nxc"
15	352	53		cmp 1, __D0CorBoneco, __signed_stack_001CorBoneco, __D0CorBoneco
15	352	57	#line 352 "C:\Users\Lucas\Desktop\UnB\Droid\sekksi2016\tentativa2\consultor.nxc"
15	353	57		brtst 4, __ASM_Label_783, __D0CorBoneco
15	352	60	#line 352 "C:\Users\Lucas\Desktop\UnB\Droid\sekksi2016\tentativa2\consultor.nxc"
15	353	60		set __D0CorBoneco, 2
15	352	63	#line 352 "C:\Users\Lucas\Desktop\UnB\Droid\sekksi2016\tentativa2\consultor.nxc"
15	353	63		subret __CorBoneco_return
15	352	65	#line 352 "C:\Users\Lucas\Desktop\UnB\Droid\sekksi2016\tentativa2\consultor.nxc"
15	353	65	#line 353 "C:\Users\Lucas\Desktop\UnB\Droid\sekksi2016\tentativa2\consultor.nxc"
15	353	65	#line 353 "C:\Users\Lucas\Desktop\UnB\Droid\sekksi2016\tentativa2\consultor.nxc"
15	354	65		mov __signed_stack_001CorBoneco, __CorBoneco_7qG2_leitura_7qG2_000
15	353	67	#line 353 "C:\Users\Lucas\Desktop\UnB\Droid\sekksi2016\tentativa2\consultor.nxc"
15	353	67	#line 353 "C:\Users\Lucas\Desktop\UnB\Droid\sekksi2016\tentativa2\consultor.nxc"
15	354	67		set __D0CorBoneco, 168
15	353	70	#line 353 "C:\Users\Lucas\Desktop\UnB\Droid\sekksi2016\tentativa2\consultor.nxc"
15	354	70		cmp 0, __D0CorBoneco, __signed_stack_001CorBoneco, __D0CorBoneco
15	353	74	#line 353 "C:\Users\Lucas\Desktop\UnB\Droid\sekksi2016\tentativa2\consultor.nxc"
15	354	74		brtst 4, __ASM_Label_787, __D0CorBoneco
15	353	77	#line 353 "C:\Users\Lucas\Desktop\UnB\Droid\sekksi2016\tentativa2\consultor.nxc"
15	354	77		mov __signed_stack_001CorBoneco, __CorBoneco_7qG2_leitura_7qG2_000
15	353	79	#line 353 "C:\Users\Lucas\Desktop\UnB\Droid\sekksi2016\tentativa2\consultor.nxc"
15	353	79	#line 353 "C:\Users\Lucas\Desktop\UnB\Droid\sekksi2016\tentativa2\consultor.nxc"
15	354	79		set __D0CorBoneco, 78
15	353	82	#line 353 "C:\Users\Lucas\Desktop\UnB\Droid\sekksi2016\tentativa2\consultor.nxc"
15	354	82		cmp 1, __D0CorBoneco, __signed_stack_001CorBoneco, __D0CorBoneco
15	354	86	#line 354 "C:\Users\Lucas\Desktop\UnB\Droid\sekksi2016\tentativa2\consultor.nxc"
15	355	86		brtst 4, __ASM_Label_792, __D0CorBoneco
15	354	89	#line 354 "C:\Users\Lucas\Desktop\UnB\Droid\sekksi2016\tentativa2\consultor.nxc"
15	355	89		set __D0CorBoneco, 3
15	354	92	#line 354 "C:\Users\Lucas\Desktop\UnB\Droid\sekksi2016\tentativa2\consultor.nxc"
15	355	92		subret __CorBoneco_return
15	354	94	#line 354 "C:\Users\Lucas\Desktop\UnB\Droid\sekksi2016\tentativa2\consultor.nxc"
15	357	94	#line 357 "C:\Users\Lucas\Desktop\UnB\Droid\sekksi2016\tentativa2\consultor.nxc"
15	357	94	#line 357 "C:\Users\Lucas\Desktop\UnB\Droid\sekksi2016\tentativa2\consultor.nxc"
15	358	94		subret __CorBoneco_return
16	358	0	#line 358 "C:\Users\Lucas\Desktop\UnB\Droid\sekksi2016\tentativa2\consultor.nxc"
16	359	0		getout __signed_stack_001Pega, __constVal0, 4
16	358	4	#line 358 "C:\Users\Lucas\Desktop\UnB\Droid\sekksi2016\tentativa2\consultor.nxc"
16	359	4	#line 359 "C:\Users\Lucas\Desktop\UnB\Droid\sekksi2016\tentativa2\consultor.nxc"
16	360	4		set __D0Pega, 0
16	359	7	#line 359 "C:\Users\Lucas\Desktop\UnB\Droid\sekksi2016\tentativa2\consultor.nxc"
16	360	7		cmp 5, __D0Pega, __signed_stack_001Pega, __D0Pega
16	360	11	#line 360 "C:\Users\Lucas\Desktop\UnB\Droid\sekksi2016\tentativa2\consultor.nxc"
16	361	11		brtst 4, __ASM_Label_796, __D0Pega
16	360	14	#line 360 "C:\Users\Lucas\Desktop\UnB\Droid\sekksi2016\tentativa2\consultor.nxc"
16	361	14	#pragma macro 7
16	361	14		setout __constVal0, 0, __constVal8
16	6570	19	#line 6570 "C:\Users\Lucas\Desktop\UnB\Droid\sekksi2016\tentativa2\consultor.nxc"
16	360	19	#line 360 "C:\Users\Lucas\Desktop\UnB\Droid\sekksi2016\tentativa2\consultor.nxc"
16	362	19	#line 362 "C:\Users\Lucas\Desktop\UnB\Droid\sekksi2016\tentativa2\consultor.nxc"
16	363	19		jmp __ASM_Label_795
16	362	21	#line 362 "C:\Users\Lucas\Desktop\UnB\Droid\sekksi2016\tentativa2\consultor.nxc"
16	362	21	#line 362 "C:\Users\Lucas\Desktop\UnB\Droid\sekksi2016\tentativa2\consultor.nxc"
16	363	21		mov __D0Pega, __constValNeg70
16	362	23	#line 362 "C:\Users\Lucas\Desktop\UnB\Droid\sekksi2016\tentativa2\consultor.nxc"
16	363	23	#pragma macro 7
16	363	23		setout __constVal0, 2, __D0Pega, 1, __constVal3, 8, __constVal0, 6, __constVal32, 7, __constVal0, 5, __constVal0, 10, __constVal96, 11, __constVal32, 12, __constVal32, 0, __constVal63
16	6579	46	#line 6579 "C:\Users\Lucas\Desktop\UnB\Droid\sekksi2016\tentativa2\consultor.nxc"
16	362	46	#line 362 "C:\Users\Lucas\Desktop\UnB\Droid\sekksi2016\tentativa2\consultor.nxc"
16	363	46	#line 363 "C:\Users\Lucas\Desktop\UnB\Droid\sekksi2016\tentativa2\consultor.nxc"
16	364	46		getout __signed_stack_001Pega, __constVal0, 4
16	363	50	#line 363 "C:\Users\Lucas\Desktop\UnB\Droid\sekksi2016\tentativa2\consultor.nxc"
16	363	50	#line 363 "C:\Users\Lucas\Desktop\UnB\Droid\sekksi2016\tentativa2\consultor.nxc"
16	364	50		mov __D0Pega, __constValNeg110
16	363	52	#line 363 "C:\Users\Lucas\Desktop\UnB\Droid\sekksi2016\tentativa2\consultor.nxc"
16	364	52		cmp 1, __D0Pega, __signed_stack_001Pega, __D0Pega
16	363	56	#line 363 "C:\Users\Lucas\Desktop\UnB\Droid\sekksi2016\tentativa2\consultor.nxc"
16	364	56		brtst 4, __ASM_Label_802, __D0Pega
16	363	59	#line 363 "C:\Users\Lucas\Desktop\UnB\Droid\sekksi2016\tentativa2\consultor.nxc"
16	363	59	#line 363 "C:\Users\Lucas\Desktop\UnB\Droid\sekksi2016\tentativa2\consultor.nxc"
16	364	59		jmp __ASM_Label_801
16	363	61	#line 363 "C:\Users\Lucas\Desktop\UnB\Droid\sekksi2016\tentativa2\consultor.nxc"
16	364	61	#line 364 "C:\Users\Lucas\Desktop\UnB\Droid\sekksi2016\tentativa2\consultor.nxc"
16	365	61	#pragma macro 7
16	365	61		setout __constVal0, 2, __constVal0, 1, __constVal3, 8, __constVal0, 6, __constVal32, 7, __constVal0, 5, __constVal0, 10, __constVal96, 11, __constVal32, 12, __constVal32, 0, __constVal63
16	6602	84	#line 6602 "C:\Users\Lucas\Desktop\UnB\Droid\sekksi2016\tentativa2\consultor.nxc"
16	364	84	#line 364 "C:\Users\Lucas\Desktop\UnB\Droid\sekksi2016\tentativa2\consultor.nxc"
16	365	84	#line 365 "C:\Users\Lucas\Desktop\UnB\Droid\sekksi2016\tentativa2\consultor.nxc"
16	366	84		set __Wait_7qG2_ms_7qG2_000_inline_Pega, 200
16	365	87	#line 365 "C:\Users\Lucas\Desktop\UnB\Droid\sekksi2016\tentativa2\consultor.nxc"
16	8869	87	#line 8869 "NXCDefs.h"
16	8870	87		wait2 NA, __Wait_7qG2_ms_7qG2_000_inline_Pega
16	8869	90	#line 8869 "NXCDefs.h"
16	365	90	#line 365 "C:\Users\Lucas\Desktop\UnB\Droid\sekksi2016\tentativa2\consultor.nxc"
16	366	90	#line 366 "C:\Users\Lucas\Desktop\UnB\Droid\sekksi2016\tentativa2\consultor.nxc"
16	367	90		subcall VoltaGarra, __VoltaGarra_return
16	366	93	#line 366 "C:\Users\Lucas\Desktop\UnB\Droid\sekksi2016\tentativa2\consultor.nxc"
16	369	93	#line 369 "C:\Users\Lucas\Desktop\UnB\Droid\sekksi2016\tentativa2\consultor.nxc"
16	370	93		subret __Pega_return
17	371	0	#line 371 "C:\Users\Lucas\Desktop\UnB\Droid\sekksi2016\tentativa2\consultor.nxc"
17	372	0	#pragma macro 14
17	372	0		acquire __RemoteMutex
17	372	1		mov __SRSTmpBuf, __DCMessageWritePacket
17	372	3		replace __SRSTmpBuf, __SRSTmpBuf, __constVal2, __constVal1
17	372	8		replace __SRSTmpBuf, __SRSTmpBuf, __constVal3, __constVal5
17	372	13		mov __SRSTmpLongVal, __constVal1
17	372	15		flatten __SRSFlattenBuf, __SRSTmpLongVal
17	372	18		arrbuild __SRSSendBuf, __SRSTmpBuf, __SRSFlattenBuf
17	372	23		acquire __CBTWMutex
17	372	24		mov __CBTWArgs.Connection, __constVal0
17	372	26		mov __CBTWArgs.Buffer, __SRSSendBuf
17	372	28		syscall 29, __CBTWArgs
17	372	31		release __CBTWMutex
17	372	32		release __RemoteMutex
17	6625	33	#line 6625 "C:\Users\Lucas\Desktop\UnB\Droid\sekksi2016\tentativa2\consultor.nxc"
17	371	33	#line 371 "C:\Users\Lucas\Desktop\UnB\Droid\sekksi2016\tentativa2\consultor.nxc"
17	371	33	#line 371 "C:\Users\Lucas\Desktop\UnB\Droid\sekksi2016\tentativa2\consultor.nxc"
17	374	33	#line 374 "C:\Users\Lucas\Desktop\UnB\Droid\sekksi2016\tentativa2\consultor.nxc"
17	375	33		subret __MandarParar_return
18	376	0	#line 376 "C:\Users\Lucas\Desktop\UnB\Droid\sekksi2016\tentativa2\consultor.nxc"
18	377	0	#pragma macro 14
18	377	0		acquire __RemoteMutex
18	377	1		mov __SRSTmpBuf, __DCMessageWritePacket
18	377	3		replace __SRSTmpBuf, __SRSTmpBuf, __constVal2, __constVal1
18	377	8		replace __SRSTmpBuf, __SRSTmpBuf, __constVal3, __constVal5
18	377	13		mov __SRSTmpLongVal, __constVal2
18	377	15		flatten __SRSFlattenBuf, __SRSTmpLongVal
18	377	18		arrbuild __SRSSendBuf, __SRSTmpBuf, __SRSFlattenBuf
18	377	23		acquire __CBTWMutex
18	377	24		mov __CBTWArgs.Connection, __constVal0
18	377	26		mov __CBTWArgs.Buffer, __SRSSendBuf
18	377	28		syscall 29, __CBTWArgs
18	377	31		release __CBTWMutex
18	377	32		release __RemoteMutex
18	6634	33	#line 6634 "C:\Users\Lucas\Desktop\UnB\Droid\sekksi2016\tentativa2\consultor.nxc"
18	376	33	#line 376 "C:\Users\Lucas\Desktop\UnB\Droid\sekksi2016\tentativa2\consultor.nxc"
18	376	33	#line 376 "C:\Users\Lucas\Desktop\UnB\Droid\sekksi2016\tentativa2\consultor.nxc"
18	379	33	#line 379 "C:\Users\Lucas\Desktop\UnB\Droid\sekksi2016\tentativa2\consultor.nxc"
18	380	33		subret __MandarSeguir_return
19	381	0	#line 381 "C:\Users\Lucas\Desktop\UnB\Droid\sekksi2016\tentativa2\consultor.nxc"
19	382	0		set __PlaySound_7qG2_aCode_7qG2_000, 3
19	381	3	#line 381 "C:\Users\Lucas\Desktop\UnB\Droid\sekksi2016\tentativa2\consultor.nxc"
19	381	3	#line 381 "C:\Users\Lucas\Desktop\UnB\Droid\sekksi2016\tentativa2\consultor.nxc"
19	382	3		subcall PlaySound, __PlaySound_return
19	381	6	#line 381 "C:\Users\Lucas\Desktop\UnB\Droid\sekksi2016\tentativa2\consultor.nxc"
19	382	6	#line 382 "C:\Users\Lucas\Desktop\UnB\Droid\sekksi2016\tentativa2\consultor.nxc"
19	383	6		set __PlaySound_7qG2_aCode_7qG2_000, 2
19	382	9	#line 382 "C:\Users\Lucas\Desktop\UnB\Droid\sekksi2016\tentativa2\consultor.nxc"
19	382	9	#line 382 "C:\Users\Lucas\Desktop\UnB\Droid\sekksi2016\tentativa2\consultor.nxc"
19	383	9		subcall PlaySound, __PlaySound_return
19	382	12	#line 382 "C:\Users\Lucas\Desktop\UnB\Droid\sekksi2016\tentativa2\consultor.nxc"
19	385	12	#line 385 "C:\Users\Lucas\Desktop\UnB\Droid\sekksi2016\tentativa2\consultor.nxc"
19	386	12		subret __BipBranco_return
20	388	0	#line 388 "C:\Users\Lucas\Desktop\UnB\Droid\sekksi2016\tentativa2\consultor.nxc"
20	389	0		set __PlaySound_7qG2_aCode_7qG2_000, 2
20	388	3	#line 388 "C:\Users\Lucas\Desktop\UnB\Droid\sekksi2016\tentativa2\consultor.nxc"
20	388	3	#line 388 "C:\Users\Lucas\Desktop\UnB\Droid\sekksi2016\tentativa2\consultor.nxc"
20	389	3		subcall PlaySound, __PlaySound_return
20	388	6	#line 388 "C:\Users\Lucas\Desktop\UnB\Droid\sekksi2016\tentativa2\consultor.nxc"
20	389	6	#line 389 "C:\Users\Lucas\Desktop\UnB\Droid\sekksi2016\tentativa2\consultor.nxc"
20	390	6		set __PlaySound_7qG2_aCode_7qG2_000, 3
20	389	9	#line 389 "C:\Users\Lucas\Desktop\UnB\Droid\sekksi2016\tentativa2\consultor.nxc"
20	389	9	#line 389 "C:\Users\Lucas\Desktop\UnB\Droid\sekksi2016\tentativa2\consultor.nxc"
20	390	9		subcall PlaySound, __PlaySound_return
20	389	12	#line 389 "C:\Users\Lucas\Desktop\UnB\Droid\sekksi2016\tentativa2\consultor.nxc"
20	392	12	#line 392 "C:\Users\Lucas\Desktop\UnB\Droid\sekksi2016\tentativa2\consultor.nxc"
20	393	12		subret __BipPreto_return
21	396	0	#line 396 "C:\Users\Lucas\Desktop\UnB\Droid\sekksi2016\tentativa2\consultor.nxc"
21	397	0		subcall MandarParar, __MandarParar_return
21	396	2	#line 396 "C:\Users\Lucas\Desktop\UnB\Droid\sekksi2016\tentativa2\consultor.nxc"
21	399	2	#line 399 "C:\Users\Lucas\Desktop\UnB\Droid\sekksi2016\tentativa2\consultor.nxc"
21	400	2		subcall PegaBoneco, __PegaBoneco_return
21	399	4	#line 399 "C:\Users\Lucas\Desktop\UnB\Droid\sekksi2016\tentativa2\consultor.nxc"
21	400	4		mov __D0BonecoNaFrente, __D0PegaBoneco
21	400	6	#line 400 "C:\Users\Lucas\Desktop\UnB\Droid\sekksi2016\tentativa2\consultor.nxc"
21	401	6		tst 5, __D0BonecoNaFrente, __D0BonecoNaFrente
21	400	9	#line 400 "C:\Users\Lucas\Desktop\UnB\Droid\sekksi2016\tentativa2\consultor.nxc"
21	401	9		brtst 4, __ASM_Label_819, __D0BonecoNaFrente
21	400	12	#line 400 "C:\Users\Lucas\Desktop\UnB\Droid\sekksi2016\tentativa2\consultor.nxc"
21	401	12		subcall CorBoneco, __CorBoneco_return
21	400	14	#line 400 "C:\Users\Lucas\Desktop\UnB\Droid\sekksi2016\tentativa2\consultor.nxc"
21	401	14		mov __BonecoNaFrente_7qG2_cor_7qG2_000, __D0CorBoneco
21	400	16	#line 400 "C:\Users\Lucas\Desktop\UnB\Droid\sekksi2016\tentativa2\consultor.nxc"
21	400	16	#line 400 "C:\Users\Lucas\Desktop\UnB\Droid\sekksi2016\tentativa2\consultor.nxc"
21	403	16	#line 403 "C:\Users\Lucas\Desktop\UnB\Droid\sekksi2016\tentativa2\consultor.nxc"
21	404	16		mov __signed_stack_001BonecoNaFrente, __D0CorBoneco
21	403	18	#line 403 "C:\Users\Lucas\Desktop\UnB\Droid\sekksi2016\tentativa2\consultor.nxc"
21	404	18	#line 404 "C:\Users\Lucas\Desktop\UnB\Droid\sekksi2016\tentativa2\consultor.nxc"
21	405	18		mov __D0BonecoNaFrente, bonecoAlvo
21	404	20	#line 404 "C:\Users\Lucas\Desktop\UnB\Droid\sekksi2016\tentativa2\consultor.nxc"
21	405	20		cmp 4, __D0BonecoNaFrente, __signed_stack_001BonecoNaFrente, __D0BonecoNaFrente
21	405	24	#line 405 "C:\Users\Lucas\Desktop\UnB\Droid\sekksi2016\tentativa2\consultor.nxc"
21	406	24		brtst 4, __ASM_Label_824, __D0BonecoNaFrente
21	405	27	#line 405 "C:\Users\Lucas\Desktop\UnB\Droid\sekksi2016\tentativa2\consultor.nxc"
21	406	27		mov __signed_stack_001BonecoNaFrente, BonecosCapturados
21	405	29	#line 405 "C:\Users\Lucas\Desktop\UnB\Droid\sekksi2016\tentativa2\consultor.nxc"
21	406	29	#line 406 "C:\Users\Lucas\Desktop\UnB\Droid\sekksi2016\tentativa2\consultor.nxc"
21	407	29		set __D0BonecoNaFrente, 3
21	406	32	#line 406 "C:\Users\Lucas\Desktop\UnB\Droid\sekksi2016\tentativa2\consultor.nxc"
21	407	32		cmp 4, __D0BonecoNaFrente, __signed_stack_001BonecoNaFrente, __D0BonecoNaFrente
21	407	36	#line 407 "C:\Users\Lucas\Desktop\UnB\Droid\sekksi2016\tentativa2\consultor.nxc"
21	408	36		brtst 4, __ASM_Label_827, __D0BonecoNaFrente
21	407	39	#line 407 "C:\Users\Lucas\Desktop\UnB\Droid\sekksi2016\tentativa2\consultor.nxc"
21	408	39		subcall LevantaBoneco, __LevantaBoneco_return
21	407	41	#line 407 "C:\Users\Lucas\Desktop\UnB\Droid\sekksi2016\tentativa2\consultor.nxc"
21	408	41	#line 408 "C:\Users\Lucas\Desktop\UnB\Droid\sekksi2016\tentativa2\consultor.nxc"
21	409	41		set __nbip_7qG2_n_7qG2_000, 4
21	408	44	#line 408 "C:\Users\Lucas\Desktop\UnB\Droid\sekksi2016\tentativa2\consultor.nxc"
21	408	44	#line 408 "C:\Users\Lucas\Desktop\UnB\Droid\sekksi2016\tentativa2\consultor.nxc"
21	409	44		subcall nbip, __nbip_return
21	408	47	#line 408 "C:\Users\Lucas\Desktop\UnB\Droid\sekksi2016\tentativa2\consultor.nxc"
21	409	47	#line 409 "C:\Users\Lucas\Desktop\UnB\Droid\sekksi2016\tentativa2\consultor.nxc"
21	410	47		subcall MandaTeste, __MandaTeste_return
21	409	49	#line 409 "C:\Users\Lucas\Desktop\UnB\Droid\sekksi2016\tentativa2\consultor.nxc"
21	410	49	#line 410 "C:\Users\Lucas\Desktop\UnB\Droid\sekksi2016\tentativa2\consultor.nxc"
21	411	49		set __D0BonecoNaFrente, 1
21	410	52	#line 410 "C:\Users\Lucas\Desktop\UnB\Droid\sekksi2016\tentativa2\consultor.nxc"
21	411	52		tst 5, __D0BonecoNaFrente, __D0BonecoNaFrente
21	410	55	#line 410 "C:\Users\Lucas\Desktop\UnB\Droid\sekksi2016\tentativa2\consultor.nxc"
21	411	55		brtst 4, __ASM_Label_831, __D0BonecoNaFrente
21	412	58	#line 412 "C:\Users\Lucas\Desktop\UnB\Droid\sekksi2016\tentativa2\consultor.nxc"
21	413	58		jmp __ASM_Label_830
21	412	60	#line 412 "C:\Users\Lucas\Desktop\UnB\Droid\sekksi2016\tentativa2\consultor.nxc"
21	414	60	#line 414 "C:\Users\Lucas\Desktop\UnB\Droid\sekksi2016\tentativa2\consultor.nxc"
21	415	60		jmp __ASM_Label_834
21	414	62	#line 414 "C:\Users\Lucas\Desktop\UnB\Droid\sekksi2016\tentativa2\consultor.nxc"
21	415	62		subcall Pega, __Pega_return
21	414	64	#line 414 "C:\Users\Lucas\Desktop\UnB\Droid\sekksi2016\tentativa2\consultor.nxc"
21	415	64	#line 415 "C:\Users\Lucas\Desktop\UnB\Droid\sekksi2016\tentativa2\consultor.nxc"
21	416	64		subcall MandarSeguir, __MandarSeguir_return
21	415	66	#line 415 "C:\Users\Lucas\Desktop\UnB\Droid\sekksi2016\tentativa2\consultor.nxc"
21	416	66	#line 416 "C:\Users\Lucas\Desktop\UnB\Droid\sekksi2016\tentativa2\consultor.nxc"
21	417	66		add BonecosCapturados, BonecosCapturados, __constVal1
21	416	70	#line 416 "C:\Users\Lucas\Desktop\UnB\Droid\sekksi2016\tentativa2\consultor.nxc"
21	417	70	#line 417 "C:\Users\Lucas\Desktop\UnB\Droid\sekksi2016\tentativa2\consultor.nxc"
21	418	70		mov __nbip_7qG2_n_7qG2_000, BonecosCapturados
21	417	72	#line 417 "C:\Users\Lucas\Desktop\UnB\Droid\sekksi2016\tentativa2\consultor.nxc"
21	417	72	#line 417 "C:\Users\Lucas\Desktop\UnB\Droid\sekksi2016\tentativa2\consultor.nxc"
21	418	72		subcall nbip, __nbip_return
21	417	75	#line 417 "C:\Users\Lucas\Desktop\UnB\Droid\sekksi2016\tentativa2\consultor.nxc"
21	420	75	#line 420 "C:\Users\Lucas\Desktop\UnB\Droid\sekksi2016\tentativa2\consultor.nxc"
21	420	75	#line 420 "C:\Users\Lucas\Desktop\UnB\Droid\sekksi2016\tentativa2\consultor.nxc"
21	421	75		jmp __ASM_Label_837
21	420	77	#line 420 "C:\Users\Lucas\Desktop\UnB\Droid\sekksi2016\tentativa2\consultor.nxc"
21	421	77		mov __signed_stack_001BonecoNaFrente, __BonecoNaFrente_7qG2_cor_7qG2_000
21	420	79	#line 420 "C:\Users\Lucas\Desktop\UnB\Droid\sekksi2016\tentativa2\consultor.nxc"
21	421	79	#line 421 "C:\Users\Lucas\Desktop\UnB\Droid\sekksi2016\tentativa2\consultor.nxc"
21	422	79		mov __D0BonecoNaFrente, bonecoNaoAlvo
21	421	81	#line 421 "C:\Users\Lucas\Desktop\UnB\Droid\sekksi2016\tentativa2\consultor.nxc"
21	422	81		cmp 4, __D0BonecoNaFrente, __signed_stack_001BonecoNaFrente, __D0BonecoNaFrente
21	424	85	#line 424 "C:\Users\Lucas\Desktop\UnB\Droid\sekksi2016\tentativa2\consultor.nxc"
21	425	85		brtst 4, __ASM_Label_840, __D0BonecoNaFrente
21	424	88	#line 424 "C:\Users\Lucas\Desktop\UnB\Droid\sekksi2016\tentativa2\consultor.nxc"
21	425	88		subcall Rejeita, __Rejeita_return
21	424	90	#line 424 "C:\Users\Lucas\Desktop\UnB\Droid\sekksi2016\tentativa2\consultor.nxc"
21	426	90	#line 426 "C:\Users\Lucas\Desktop\UnB\Droid\sekksi2016\tentativa2\consultor.nxc"
21	427	90		jmp __ASM_Label_841
21	426	92	#line 426 "C:\Users\Lucas\Desktop\UnB\Droid\sekksi2016\tentativa2\consultor.nxc"
21	427	92		mov __signed_stack_001BonecoNaFrente, __BonecoNaFrente_7qG2_cor_7qG2_000
21	426	94	#line 426 "C:\Users\Lucas\Desktop\UnB\Droid\sekksi2016\tentativa2\consultor.nxc"
21	427	94	#line 427 "C:\Users\Lucas\Desktop\UnB\Droid\sekksi2016\tentativa2\consultor.nxc"
21	428	94		set __D0BonecoNaFrente, 3
21	427	97	#line 427 "C:\Users\Lucas\Desktop\UnB\Droid\sekksi2016\tentativa2\consultor.nxc"
21	428	97		cmp 4, __D0BonecoNaFrente, __signed_stack_001BonecoNaFrente, __D0BonecoNaFrente
21	430	101	#line 430 "C:\Users\Lucas\Desktop\UnB\Droid\sekksi2016\tentativa2\consultor.nxc"
21	431	101		brtst 4, __ASM_Label_844, __D0BonecoNaFrente
21	430	104	#line 430 "C:\Users\Lucas\Desktop\UnB\Droid\sekksi2016\tentativa2\consultor.nxc"
21	431	104		subcall Rejeita, __Rejeita_return
21	430	106	#line 430 "C:\Users\Lucas\Desktop\UnB\Droid\sekksi2016\tentativa2\consultor.nxc"
21	435	106	#line 435 "C:\Users\Lucas\Desktop\UnB\Droid\sekksi2016\tentativa2\consultor.nxc"
21	436	106		jmp __ASM_Label_845
21	435	108	#line 435 "C:\Users\Lucas\Desktop\UnB\Droid\sekksi2016\tentativa2\consultor.nxc"
21	436	108		subcall bip, __bip_return
21	435	111	#line 435 "C:\Users\Lucas\Desktop\UnB\Droid\sekksi2016\tentativa2\consultor.nxc"
21	436	111	#line 436 "C:\Users\Lucas\Desktop\UnB\Droid\sekksi2016\tentativa2\consultor.nxc"
21	437	111		subcall bip, __bip_return
21	436	114	#line 436 "C:\Users\Lucas\Desktop\UnB\Droid\sekksi2016\tentativa2\consultor.nxc"
21	6921	114	#line 6921 "NXCDefs.h"
21	6922	114	#pragma macro 6
21	6922	114		mov __PointOutArgs.Location.X, __constVal200
21	6922	116		mov __PointOutArgs.Location.Y, __constVal200
21	6922	118		mov __PointOutArgs.Options, __constVal1
21	6922	120		syscall 14, __PointOutArgs
21	6831	123	#line 6831 "NXCDefs.h"
21	6921	123	#line 6921 "NXCDefs.h"
21	438	123	#line 438 "C:\Users\Lucas\Desktop\UnB\Droid\sekksi2016\tentativa2\consultor.nxc"
21	439	123	#line 439 "C:\Users\Lucas\Desktop\UnB\Droid\sekksi2016\tentativa2\consultor.nxc"
21	440	123		set __signed_stack_001BonecoNaFrente, 0
21	439	126	#line 439 "C:\Users\Lucas\Desktop\UnB\Droid\sekksi2016\tentativa2\consultor.nxc"
21	439	126	#line 439 "C:\Users\Lucas\Desktop\UnB\Droid\sekksi2016\tentativa2\consultor.nxc"
21	440	126		set __signed_stack_002BonecoNaFrente, 56
21	439	129	#line 439 "C:\Users\Lucas\Desktop\UnB\Droid\sekksi2016\tentativa2\consultor.nxc"
21	439	129	#line 439 "C:\Users\Lucas\Desktop\UnB\Droid\sekksi2016\tentativa2\consultor.nxc"
21	440	129		mov __D0BonecoNaFrente, __BonecoNaFrente_7qG2_cor_7qG2_000
21	439	131	#line 439 "C:\Users\Lucas\Desktop\UnB\Droid\sekksi2016\tentativa2\consultor.nxc"
21	440	131		acquire __TextOutMutex
21	439	132	#line 439 "C:\Users\Lucas\Desktop\UnB\Droid\sekksi2016\tentativa2\consultor.nxc"
21	440	132		mov __TextOutArgs.Location.X, __signed_stack_001BonecoNaFrente
21	439	135	#line 439 "C:\Users\Lucas\Desktop\UnB\Droid\sekksi2016\tentativa2\consultor.nxc"
21	440	135		mov __TextOutArgs.Location.Y, __signed_stack_002BonecoNaFrente
21	439	138	#line 439 "C:\Users\Lucas\Desktop\UnB\Droid\sekksi2016\tentativa2\consultor.nxc"
21	440	138		set __TextOutArgs.Options, 0
21	439	141	#line 439 "C:\Users\Lucas\Desktop\UnB\Droid\sekksi2016\tentativa2\consultor.nxc"
21	440	141		numtostr __TextOutArgs.Text, __D0BonecoNaFrente
21	439	144	#line 439 "C:\Users\Lucas\Desktop\UnB\Droid\sekksi2016\tentativa2\consultor.nxc"
21	440	144		syscall 13, __TextOutArgs
21	439	147	#line 439 "C:\Users\Lucas\Desktop\UnB\Droid\sekksi2016\tentativa2\consultor.nxc"
21	440	147		mov __D0BonecoNaFrente, __TextOutArgs.Result
21	439	150	#line 439 "C:\Users\Lucas\Desktop\UnB\Droid\sekksi2016\tentativa2\consultor.nxc"
21	440	150		release __TextOutMutex
21	439	151	#line 439 "C:\Users\Lucas\Desktop\UnB\Droid\sekksi2016\tentativa2\consultor.nxc"
21	443	151	#line 443 "C:\Users\Lucas\Desktop\UnB\Droid\sekksi2016\tentativa2\consultor.nxc"
21	444	151		subcall VoltaGarra, __VoltaGarra_return
21	443	154	#line 443 "C:\Users\Lucas\Desktop\UnB\Droid\sekksi2016\tentativa2\consultor.nxc"
21	444	154	#line 444 "C:\Users\Lucas\Desktop\UnB\Droid\sekksi2016\tentativa2\consultor.nxc"
21	445	154		subcall MandarSeguir, __MandarSeguir_return
21	444	156	#line 444 "C:\Users\Lucas\Desktop\UnB\Droid\sekksi2016\tentativa2\consultor.nxc"
21	445	156	#line 445 "C:\Users\Lucas\Desktop\UnB\Droid\sekksi2016\tentativa2\consultor.nxc"
21	446	156		set __Wait_7qG2_ms_7qG2_000_inline_BonecoNaFrente, 400
21	445	159	#line 445 "C:\Users\Lucas\Desktop\UnB\Droid\sekksi2016\tentativa2\consultor.nxc"
21	8869	159	#line 8869 "NXCDefs.h"
21	8870	159		wait2 NA, __Wait_7qG2_ms_7qG2_000_inline_BonecoNaFrente
21	8869	162	#line 8869 "NXCDefs.h"
21	445	162	#line 445 "C:\Users\Lucas\Desktop\UnB\Droid\sekksi2016\tentativa2\consultor.nxc"
21	448	162	#line 448 "C:\Users\Lucas\Desktop\UnB\Droid\sekksi2016\tentativa2\consultor.nxc"
21	448	162	#line 448 "C:\Users\Lucas\Desktop\UnB\Droid\sekksi2016\tentativa2\consultor.nxc"
21	448	162	#line 448 "C:\Users\Lucas\Desktop\UnB\Droid\sekksi2016\tentativa2\consultor.nxc"
21	450	162	#line 450 "C:\Users\Lucas\Desktop\UnB\Droid\sekksi2016\tentativa2\consultor.nxc"
21	451	162		jmp __ASM_Label_854
21	450	164	#line 450 "C:\Users\Lucas\Desktop\UnB\Droid\sekksi2016\tentativa2\consultor.nxc"
21	451	164		subcall VoltaGarra, __VoltaGarra_return
21	450	167	#line 450 "C:\Users\Lucas\Desktop\UnB\Droid\sekksi2016\tentativa2\consultor.nxc"
21	451	167	#line 451 "C:\Users\Lucas\Desktop\UnB\Droid\sekksi2016\tentativa2\consultor.nxc"
21	452	167		subcall MandarSeguir, __MandarSeguir_return
21	451	169	#line 451 "C:\Users\Lucas\Desktop\UnB\Droid\sekksi2016\tentativa2\consultor.nxc"
21	452	169	#line 452 "C:\Users\Lucas\Desktop\UnB\Droid\sekksi2016\tentativa2\consultor.nxc"
21	453	169		set __Wait_7qG2_ms_7qG2_000_inline_BonecoNaFrente, 400
21	452	172	#line 452 "C:\Users\Lucas\Desktop\UnB\Droid\sekksi2016\tentativa2\consultor.nxc"
21	8869	172	#line 8869 "NXCDefs.h"
21	8870	172		wait2 NA, __Wait_7qG2_ms_7qG2_000_inline_BonecoNaFrente
21	8869	175	#line 8869 "NXCDefs.h"
21	452	175	#line 452 "C:\Users\Lucas\Desktop\UnB\Droid\sekksi2016\tentativa2\consultor.nxc"
21	456	175	#line 456 "C:\Users\Lucas\Desktop\UnB\Droid\sekksi2016\tentativa2\consultor.nxc"
21	456	175	#line 456 "C:\Users\Lucas\Desktop\UnB\Droid\sekksi2016\tentativa2\consultor.nxc"
21	457	175		subret __BonecoNaFrente_return
22	458	0	#line 458 "C:\Users\Lucas\Desktop\UnB\Droid\sekksi2016\tentativa2\consultor.nxc"
22	459	0		subcall LevantaBoneco, __LevantaBoneco_return
22	458	2	#line 458 "C:\Users\Lucas\Desktop\UnB\Droid\sekksi2016\tentativa2\consultor.nxc"
22	459	2	#line 459 "C:\Users\Lucas\Desktop\UnB\Droid\sekksi2016\tentativa2\consultor.nxc"
22	460	2		subcall MandaRejeitar, __MandaRejeitar_return
22	459	4	#line 459 "C:\Users\Lucas\Desktop\UnB\Droid\sekksi2016\tentativa2\consultor.nxc"
22	460	4	#line 460 "C:\Users\Lucas\Desktop\UnB\Droid\sekksi2016\tentativa2\consultor.nxc"
22	461	4		subcall RecebiGirei, __RecebiGirei_return
22	460	6	#line 460 "C:\Users\Lucas\Desktop\UnB\Droid\sekksi2016\tentativa2\consultor.nxc"
22	460	6	#line 460 "C:\Users\Lucas\Desktop\UnB\Droid\sekksi2016\tentativa2\consultor.nxc"
22	461	6		not __D0Rejeita, __D0RecebiGirei
22	460	9	#line 460 "C:\Users\Lucas\Desktop\UnB\Droid\sekksi2016\tentativa2\consultor.nxc"
22	461	9		tst 5, __D0Rejeita, __D0Rejeita
22	460	12	#line 460 "C:\Users\Lucas\Desktop\UnB\Droid\sekksi2016\tentativa2\consultor.nxc"
22	461	12		brtst 4, __ASM_Label_858, __D0Rejeita
22	461	15	#line 461 "C:\Users\Lucas\Desktop\UnB\Droid\sekksi2016\tentativa2\consultor.nxc"
22	462	15		jmp __ASM_Label_857
22	461	17	#line 461 "C:\Users\Lucas\Desktop\UnB\Droid\sekksi2016\tentativa2\consultor.nxc"
22	461	17	#line 461 "C:\Users\Lucas\Desktop\UnB\Droid\sekksi2016\tentativa2\consultor.nxc"
22	462	17		subcall VoltaGarra, __VoltaGarra_return
22	461	20	#line 461 "C:\Users\Lucas\Desktop\UnB\Droid\sekksi2016\tentativa2\consultor.nxc"
22	462	20	#line 462 "C:\Users\Lucas\Desktop\UnB\Droid\sekksi2016\tentativa2\consultor.nxc"
22	463	20		subcall MandaDesgirar, __MandaDesgirar_return
22	462	22	#line 462 "C:\Users\Lucas\Desktop\UnB\Droid\sekksi2016\tentativa2\consultor.nxc"
22	463	22	#line 463 "C:\Users\Lucas\Desktop\UnB\Droid\sekksi2016\tentativa2\consultor.nxc"
22	464	22		subcall RecebiDesGirei, __RecebiDesGirei_return
22	463	24	#line 463 "C:\Users\Lucas\Desktop\UnB\Droid\sekksi2016\tentativa2\consultor.nxc"
22	463	24	#line 463 "C:\Users\Lucas\Desktop\UnB\Droid\sekksi2016\tentativa2\consultor.nxc"
22	464	24		not __D0Rejeita, __D0RecebiDesGirei
22	463	27	#line 463 "C:\Users\Lucas\Desktop\UnB\Droid\sekksi2016\tentativa2\consultor.nxc"
22	464	27		tst 5, __D0Rejeita, __D0Rejeita
22	463	30	#line 463 "C:\Users\Lucas\Desktop\UnB\Droid\sekksi2016\tentativa2\consultor.nxc"
22	464	30		brtst 4, __ASM_Label_862, __D0Rejeita
22	466	33	#line 466 "C:\Users\Lucas\Desktop\UnB\Droid\sekksi2016\tentativa2\consultor.nxc"
22	467	33		jmp __ASM_Label_861
22	466	35	#line 466 "C:\Users\Lucas\Desktop\UnB\Droid\sekksi2016\tentativa2\consultor.nxc"
22	466	35	#line 466 "C:\Users\Lucas\Desktop\UnB\Droid\sekksi2016\tentativa2\consultor.nxc"
22	467	35		subret __Rejeita_return
23	469	0	#line 469 "C:\Users\Lucas\Desktop\UnB\Droid\sekksi2016\tentativa2\consultor.nxc"
23	470	0	#pragma macro 9
23	470	0		acquire __MRMutex
23	470	1		mov __MRArgs.QueueID, __constVal2
23	470	3		mov __MRArgs.Remove, __constVal1
23	470	5		set __RRNTmpVal, 0
23	470	8		syscall 27, __MRArgs
23	470	11		unflatten __RRNTmpVal, __RRNErr, __MRArgs.Message, __RRNTmpVal
23	470	16		mov __RecebiGirei_7qG2_aux_7qG2_000, __RRNTmpVal
23	470	18		mov __D0RecebiGirei, __MRArgs.Result
23	470	21		release __MRMutex
23	6971	22	#line 6971 "C:\Users\Lucas\Desktop\UnB\Droid\sekksi2016\tentativa2\consultor.nxc"
23	469	22	#line 469 "C:\Users\Lucas\Desktop\UnB\Droid\sekksi2016\tentativa2\consultor.nxc"
23	469	22	#line 469 "C:\Users\Lucas\Desktop\UnB\Droid\sekksi2016\tentativa2\consultor.nxc"
23	470	22	#line 470 "C:\Users\Lucas\Desktop\UnB\Droid\sekksi2016\tentativa2\consultor.nxc"
23	471	22		mov __signed_stack_001RecebiGirei, __RecebiGirei_7qG2_aux_7qG2_000
23	470	24	#line 470 "C:\Users\Lucas\Desktop\UnB\Droid\sekksi2016\tentativa2\consultor.nxc"
23	471	24	#line 471 "C:\Users\Lucas\Desktop\UnB\Droid\sekksi2016\tentativa2\consultor.nxc"
23	472	24		set __D0RecebiGirei, 3
23	471	27	#line 471 "C:\Users\Lucas\Desktop\UnB\Droid\sekksi2016\tentativa2\consultor.nxc"
23	472	27		cmp 4, __D0RecebiGirei, __signed_stack_001RecebiGirei, __D0RecebiGirei
23	471	31	#line 471 "C:\Users\Lucas\Desktop\UnB\Droid\sekksi2016\tentativa2\consultor.nxc"
23	472	31		brtst 4, __ASM_Label_867, __D0RecebiGirei
23	471	34	#line 471 "C:\Users\Lucas\Desktop\UnB\Droid\sekksi2016\tentativa2\consultor.nxc"
23	472	34		set __D0RecebiGirei, 1
23	471	37	#line 471 "C:\Users\Lucas\Desktop\UnB\Droid\sekksi2016\tentativa2\consultor.nxc"
23	472	37		subret __RecebiGirei_return
23	471	39	#line 471 "C:\Users\Lucas\Desktop\UnB\Droid\sekksi2016\tentativa2\consultor.nxc"
23	472	39	#line 472 "C:\Users\Lucas\Desktop\UnB\Droid\sekksi2016\tentativa2\consultor.nxc"
23	472	39	#line 472 "C:\Users\Lucas\Desktop\UnB\Droid\sekksi2016\tentativa2\consultor.nxc"
23	473	39		set __D0RecebiGirei, 0
23	472	42	#line 472 "C:\Users\Lucas\Desktop\UnB\Droid\sekksi2016\tentativa2\consultor.nxc"
23	473	42		subret __RecebiGirei_return
23	472	44	#line 472 "C:\Users\Lucas\Desktop\UnB\Droid\sekksi2016\tentativa2\consultor.nxc"
23	475	44	#line 475 "C:\Users\Lucas\Desktop\UnB\Droid\sekksi2016\tentativa2\consultor.nxc"
23	476	44		subret __RecebiGirei_return
24	478	0	#line 478 "C:\Users\Lucas\Desktop\UnB\Droid\sekksi2016\tentativa2\consultor.nxc"
24	479	0	#pragma macro 9
24	479	0		acquire __MRMutex
24	479	1		mov __MRArgs.QueueID, __constVal2
24	479	3		mov __MRArgs.Remove, __constVal1
24	479	5		set __RRNTmpVal, 0
24	479	8		syscall 27, __MRArgs
24	479	11		unflatten __RRNTmpVal, __RRNErr, __MRArgs.Message, __RRNTmpVal
24	479	16		mov __RecebiDesGirei_7qG2_aux_7qG2_000, __RRNTmpVal
24	479	18		mov __D0RecebiDesGirei, __MRArgs.Result
24	479	21		release __MRMutex
24	7010	22	#line 7010 "C:\Users\Lucas\Desktop\UnB\Droid\sekksi2016\tentativa2\consultor.nxc"
24	478	22	#line 478 "C:\Users\Lucas\Desktop\UnB\Droid\sekksi2016\tentativa2\consultor.nxc"
24	478	22	#line 478 "C:\Users\Lucas\Desktop\UnB\Droid\sekksi2016\tentativa2\consultor.nxc"
24	479	22	#line 479 "C:\Users\Lucas\Desktop\UnB\Droid\sekksi2016\tentativa2\consultor.nxc"
24	480	22		mov __signed_stack_001RecebiDesGirei, __RecebiDesGirei_7qG2_aux_7qG2_000
24	479	24	#line 479 "C:\Users\Lucas\Desktop\UnB\Droid\sekksi2016\tentativa2\consultor.nxc"
24	480	24	#line 480 "C:\Users\Lucas\Desktop\UnB\Droid\sekksi2016\tentativa2\consultor.nxc"
24	481	24		set __D0RecebiDesGirei, 6
24	480	27	#line 480 "C:\Users\Lucas\Desktop\UnB\Droid\sekksi2016\tentativa2\consultor.nxc"
24	481	27		cmp 4, __D0RecebiDesGirei, __signed_stack_001RecebiDesGirei, __D0RecebiDesGirei
24	480	31	#line 480 "C:\Users\Lucas\Desktop\UnB\Droid\sekksi2016\tentativa2\consultor.nxc"
24	481	31		brtst 4, __ASM_Label_874, __D0RecebiDesGirei
24	480	34	#line 480 "C:\Users\Lucas\Desktop\UnB\Droid\sekksi2016\tentativa2\consultor.nxc"
24	481	34		set __D0RecebiDesGirei, 1
24	480	37	#line 480 "C:\Users\Lucas\Desktop\UnB\Droid\sekksi2016\tentativa2\consultor.nxc"
24	481	37		subret __RecebiDesGirei_return
24	480	39	#line 480 "C:\Users\Lucas\Desktop\UnB\Droid\sekksi2016\tentativa2\consultor.nxc"
24	481	39	#line 481 "C:\Users\Lucas\Desktop\UnB\Droid\sekksi2016\tentativa2\consultor.nxc"
24	481	39	#line 481 "C:\Users\Lucas\Desktop\UnB\Droid\sekksi2016\tentativa2\consultor.nxc"
24	482	39		set __D0RecebiDesGirei, 0
24	481	42	#line 481 "C:\Users\Lucas\Desktop\UnB\Droid\sekksi2016\tentativa2\consultor.nxc"
24	482	42		subret __RecebiDesGirei_return
24	481	44	#line 481 "C:\Users\Lucas\Desktop\UnB\Droid\sekksi2016\tentativa2\consultor.nxc"
24	484	44	#line 484 "C:\Users\Lucas\Desktop\UnB\Droid\sekksi2016\tentativa2\consultor.nxc"
24	485	44		subret __RecebiDesGirei_return
25	489	0	#line 489 "C:\Users\Lucas\Desktop\UnB\Droid\sekksi2016\tentativa2\consultor.nxc"
25	490	0	#pragma macro 14
25	490	0		acquire __RemoteMutex
25	490	1		mov __SRSTmpBuf, __DCMessageWritePacket
25	490	3		replace __SRSTmpBuf, __SRSTmpBuf, __constVal2, __constVal1
25	490	8		replace __SRSTmpBuf, __SRSTmpBuf, __constVal3, __constVal5
25	490	13		mov __SRSTmpLongVal, __constVal5
25	490	15		flatten __SRSFlattenBuf, __SRSTmpLongVal
25	490	18		arrbuild __SRSSendBuf, __SRSTmpBuf, __SRSFlattenBuf
25	490	23		acquire __CBTWMutex
25	490	24		mov __CBTWArgs.Connection, __constVal0
25	490	26		mov __CBTWArgs.Buffer, __SRSSendBuf
25	490	28		syscall 29, __CBTWArgs
25	490	31		release __CBTWMutex
25	490	32		release __RemoteMutex
25	7045	33	#line 7045 "C:\Users\Lucas\Desktop\UnB\Droid\sekksi2016\tentativa2\consultor.nxc"
25	489	33	#line 489 "C:\Users\Lucas\Desktop\UnB\Droid\sekksi2016\tentativa2\consultor.nxc"
25	489	33	#line 489 "C:\Users\Lucas\Desktop\UnB\Droid\sekksi2016\tentativa2\consultor.nxc"
25	492	33	#line 492 "C:\Users\Lucas\Desktop\UnB\Droid\sekksi2016\tentativa2\consultor.nxc"
25	493	33		subret __MandaRejeitar_return
26	494	0	#line 494 "C:\Users\Lucas\Desktop\UnB\Droid\sekksi2016\tentativa2\consultor.nxc"
26	495	0	#pragma macro 14
26	495	0		acquire __RemoteMutex
26	495	1		mov __SRSTmpBuf, __DCMessageWritePacket
26	495	3		replace __SRSTmpBuf, __SRSTmpBuf, __constVal2, __constVal1
26	495	8		replace __SRSTmpBuf, __SRSTmpBuf, __constVal3, __constVal5
26	495	13		mov __SRSTmpLongVal, __constVal4
26	495	15		flatten __SRSFlattenBuf, __SRSTmpLongVal
26	495	18		arrbuild __SRSSendBuf, __SRSTmpBuf, __SRSFlattenBuf
26	495	23		acquire __CBTWMutex
26	495	24		mov __CBTWArgs.Connection, __constVal0
26	495	26		mov __CBTWArgs.Buffer, __SRSSendBuf
26	495	28		syscall 29, __CBTWArgs
26	495	31		release __CBTWMutex
26	495	32		release __RemoteMutex
26	7054	33	#line 7054 "C:\Users\Lucas\Desktop\UnB\Droid\sekksi2016\tentativa2\consultor.nxc"
26	494	33	#line 494 "C:\Users\Lucas\Desktop\UnB\Droid\sekksi2016\tentativa2\consultor.nxc"
26	494	33	#line 494 "C:\Users\Lucas\Desktop\UnB\Droid\sekksi2016\tentativa2\consultor.nxc"
26	497	33	#line 497 "C:\Users\Lucas\Desktop\UnB\Droid\sekksi2016\tentativa2\consultor.nxc"
26	498	33		subret __MandaDesgirar_return
27	501	0	#line 501 "C:\Users\Lucas\Desktop\UnB\Droid\sekksi2016\tentativa2\consultor.nxc"
27	502	0	#pragma macro 26
27	502	0		acquire __RLSBmutex3
27	502	1		mov __RLSReadBuf3, __RLSBbufLSWrite1
27	502	3		set __RLSBytesCount3, 1
27	502	6		wait2 NA, __constVal15
27	502	9		subcall __ReadLSBytes3, ____ReadLSBytes3_return
27	502	12		index __D0MandaUs, __RLSReadBuf3, 65535
27	502	16		release __RLSBmutex3
27	7067	17	#line 7067 "C:\Users\Lucas\Desktop\UnB\Droid\sekksi2016\tentativa2\consultor.nxc"
27	501	17	#line 501 "C:\Users\Lucas\Desktop\UnB\Droid\sekksi2016\tentativa2\consultor.nxc"
27	502	17		mov __MandaUs_7qG2_aux_7qG2_000, __D0MandaUs
27	501	19	#line 501 "C:\Users\Lucas\Desktop\UnB\Droid\sekksi2016\tentativa2\consultor.nxc"
27	501	19	#line 501 "C:\Users\Lucas\Desktop\UnB\Droid\sekksi2016\tentativa2\consultor.nxc"
27	503	19	#line 503 "C:\Users\Lucas\Desktop\UnB\Droid\sekksi2016\tentativa2\consultor.nxc"
27	504	19	#pragma macro 14
27	504	19		acquire __RemoteMutex
27	504	20		mov __SRSTmpBuf, __DCMessageWritePacket
27	504	22		replace __SRSTmpBuf, __SRSTmpBuf, __constVal2, __constVal3
27	504	27		replace __SRSTmpBuf, __SRSTmpBuf, __constVal3, __constVal5
27	504	32		mov __SRSTmpLongVal, __MandaUs_7qG2_aux_7qG2_000
27	504	34		flatten __SRSFlattenBuf, __SRSTmpLongVal
27	504	37		arrbuild __SRSSendBuf, __SRSTmpBuf, __SRSFlattenBuf
27	504	42		acquire __CBTWMutex
27	504	43		mov __CBTWArgs.Connection, __constVal0
27	504	45		mov __CBTWArgs.Buffer, __SRSSendBuf
27	504	47		syscall 29, __CBTWArgs
27	504	50		mov __D0MandaUs, __CBTWArgs.Result
27	504	53		release __CBTWMutex
27	504	54		release __RemoteMutex
27	7075	55	#line 7075 "C:\Users\Lucas\Desktop\UnB\Droid\sekksi2016\tentativa2\consultor.nxc"
27	503	55	#line 503 "C:\Users\Lucas\Desktop\UnB\Droid\sekksi2016\tentativa2\consultor.nxc"
27	503	55	#line 503 "C:\Users\Lucas\Desktop\UnB\Droid\sekksi2016\tentativa2\consultor.nxc"
27	506	55	#line 506 "C:\Users\Lucas\Desktop\UnB\Droid\sekksi2016\tentativa2\consultor.nxc"
27	507	55		subret __MandaUs_return
28	508	0	#line 508 "C:\Users\Lucas\Desktop\UnB\Droid\sekksi2016\tentativa2\consultor.nxc"
28	509	0	#pragma macro 14
28	509	0		acquire __RemoteMutex
28	509	1		mov __SRSTmpBuf, __DCMessageWritePacket
28	509	3		replace __SRSTmpBuf, __SRSTmpBuf, __constVal2, __constVal1
28	509	8		replace __SRSTmpBuf, __SRSTmpBuf, __constVal3, __constVal5
28	509	13		mov __SRSTmpLongVal, __constValNeg1
28	509	15		flatten __SRSFlattenBuf, __SRSTmpLongVal
28	509	18		arrbuild __SRSSendBuf, __SRSTmpBuf, __SRSFlattenBuf
28	509	23		acquire __CBTWMutex
28	509	24		mov __CBTWArgs.Connection, __constVal0
28	509	26		mov __CBTWArgs.Buffer, __SRSSendBuf
28	509	28		syscall 29, __CBTWArgs
28	509	31		release __CBTWMutex
28	509	32		release __RemoteMutex
28	7084	33	#line 7084 "C:\Users\Lucas\Desktop\UnB\Droid\sekksi2016\tentativa2\consultor.nxc"
28	508	33	#line 508 "C:\Users\Lucas\Desktop\UnB\Droid\sekksi2016\tentativa2\consultor.nxc"
28	508	33	#line 508 "C:\Users\Lucas\Desktop\UnB\Droid\sekksi2016\tentativa2\consultor.nxc"
28	511	33	#line 511 "C:\Users\Lucas\Desktop\UnB\Droid\sekksi2016\tentativa2\consultor.nxc"
28	512	33		subret __MandaTeste_return
29	513	0	#line 513 "C:\Users\Lucas\Desktop\UnB\Droid\sekksi2016\tentativa2\consultor.nxc"
29	514	0		mov __D0LevantaBoneco, __constValNeg70
29	513	2	#line 513 "C:\Users\Lucas\Desktop\UnB\Droid\sekksi2016\tentativa2\consultor.nxc"
29	514	2	#pragma macro 7
29	514	2		setout __constVal0, 2, __D0LevantaBoneco, 1, __constVal3, 8, __constVal0, 6, __constVal32, 7, __constVal0, 5, __constVal0, 10, __constVal96, 11, __constVal32, 12, __constVal32, 0, __constVal63
29	7095	25	#line 7095 "C:\Users\Lucas\Desktop\UnB\Droid\sekksi2016\tentativa2\consultor.nxc"
29	513	25	#line 513 "C:\Users\Lucas\Desktop\UnB\Droid\sekksi2016\tentativa2\consultor.nxc"
29	514	25	#line 514 "C:\Users\Lucas\Desktop\UnB\Droid\sekksi2016\tentativa2\consultor.nxc"
29	515	25		getout __signed_stack_001LevantaBoneco, __constVal0, 4
29	514	29	#line 514 "C:\Users\Lucas\Desktop\UnB\Droid\sekksi2016\tentativa2\consultor.nxc"
29	514	29	#line 514 "C:\Users\Lucas\Desktop\UnB\Droid\sekksi2016\tentativa2\consultor.nxc"
29	515	29		mov __D0LevantaBoneco, __constValNeg50
29	514	31	#line 514 "C:\Users\Lucas\Desktop\UnB\Droid\sekksi2016\tentativa2\consultor.nxc"
29	515	31		cmp 1, __D0LevantaBoneco, __signed_stack_001LevantaBoneco, __D0LevantaBoneco
29	514	35	#line 514 "C:\Users\Lucas\Desktop\UnB\Droid\sekksi2016\tentativa2\consultor.nxc"
29	515	35		brtst 4, __ASM_Label_884, __D0LevantaBoneco
29	515	38	#line 515 "C:\Users\Lucas\Desktop\UnB\Droid\sekksi2016\tentativa2\consultor.nxc"
29	516	38		jmp __ASM_Label_883
29	515	40	#line 515 "C:\Users\Lucas\Desktop\UnB\Droid\sekksi2016\tentativa2\consultor.nxc"
29	515	40	#line 515 "C:\Users\Lucas\Desktop\UnB\Droid\sekksi2016\tentativa2\consultor.nxc"
29	516	40	#pragma macro 7
29	516	40		setout __constVal0, 2, __constVal0, 1, __constVal3, 8, __constVal0, 6, __constVal32, 7, __constVal0, 5, __constVal0, 10, __constVal96, 11, __constVal32, 12, __constVal32, 0, __constVal63
29	7117	63	#line 7117 "C:\Users\Lucas\Desktop\UnB\Droid\sekksi2016\tentativa2\consultor.nxc"
29	515	63	#line 515 "C:\Users\Lucas\Desktop\UnB\Droid\sekksi2016\tentativa2\consultor.nxc"
29	518	63	#line 518 "C:\Users\Lucas\Desktop\UnB\Droid\sekksi2016\tentativa2\consultor.nxc"
29	519	63		subret __LevantaBoneco_return
30	524	0	#line 524 "C:\Users\Lucas\Desktop\UnB\Droid\sekksi2016\tentativa2\consultor.nxc"
30	525	0		set __lerSensor_7qG2_sensor_7qG2_000, 0
30	524	3	#line 524 "C:\Users\Lucas\Desktop\UnB\Droid\sekksi2016\tentativa2\consultor.nxc"
30	524	3	#line 524 "C:\Users\Lucas\Desktop\UnB\Droid\sekksi2016\tentativa2\consultor.nxc"
30	525	3		subcall lerSensor, __lerSensor_return
30	524	5	#line 524 "C:\Users\Lucas\Desktop\UnB\Droid\sekksi2016\tentativa2\consultor.nxc"
30	525	5		mov __CalibraFaixaBase_7qG2_rgb_dir_7qG2_000, __D0lerSensor
30	524	7	#line 524 "C:\Users\Lucas\Desktop\UnB\Droid\sekksi2016\tentativa2\consultor.nxc"
30	524	7	#line 524 "C:\Users\Lucas\Desktop\UnB\Droid\sekksi2016\tentativa2\consultor.nxc"
30	525	7	#line 525 "C:\Users\Lucas\Desktop\UnB\Droid\sekksi2016\tentativa2\consultor.nxc"
30	526	7		set __lerSensor_7qG2_sensor_7qG2_000, 1
30	525	10	#line 525 "C:\Users\Lucas\Desktop\UnB\Droid\sekksi2016\tentativa2\consultor.nxc"
30	525	10	#line 525 "C:\Users\Lucas\Desktop\UnB\Droid\sekksi2016\tentativa2\consultor.nxc"
30	526	10		subcall lerSensor, __lerSensor_return
30	525	12	#line 525 "C:\Users\Lucas\Desktop\UnB\Droid\sekksi2016\tentativa2\consultor.nxc"
30	526	12		mov __CalibraFaixaBase_7qG2_rgb_esq_7qG2_000, __D0lerSensor
30	525	14	#line 525 "C:\Users\Lucas\Desktop\UnB\Droid\sekksi2016\tentativa2\consultor.nxc"
30	525	14	#line 525 "C:\Users\Lucas\Desktop\UnB\Droid\sekksi2016\tentativa2\consultor.nxc"
30	526	14	#line 526 "C:\Users\Lucas\Desktop\UnB\Droid\sekksi2016\tentativa2\consultor.nxc"
30	527	14		set __lerSensor_7qG2_sensor_7qG2_000, 2
30	526	17	#line 526 "C:\Users\Lucas\Desktop\UnB\Droid\sekksi2016\tentativa2\consultor.nxc"
30	526	17	#line 526 "C:\Users\Lucas\Desktop\UnB\Droid\sekksi2016\tentativa2\consultor.nxc"
30	527	17		subcall lerSensor, __lerSensor_return
30	526	19	#line 526 "C:\Users\Lucas\Desktop\UnB\Droid\sekksi2016\tentativa2\consultor.nxc"
30	527	19		mov __CalibraFaixaBase_7qG2_rgb_meio_7qG2_000, __D0lerSensor
30	526	21	#line 526 "C:\Users\Lucas\Desktop\UnB\Droid\sekksi2016\tentativa2\consultor.nxc"
30	526	21	#line 526 "C:\Users\Lucas\Desktop\UnB\Droid\sekksi2016\tentativa2\consultor.nxc"
30	528	21	#line 528 "C:\Users\Lucas\Desktop\UnB\Droid\sekksi2016\tentativa2\consultor.nxc"
30	529	21		mov __signed_stack_001CalibraFaixaBase, __CalibraFaixaBase_7qG2_rgb_dir_7qG2_000
30	528	23	#line 528 "C:\Users\Lucas\Desktop\UnB\Droid\sekksi2016\tentativa2\consultor.nxc"
30	528	23	#line 528 "C:\Users\Lucas\Desktop\UnB\Droid\sekksi2016\tentativa2\consultor.nxc"
30	529	23		set __D0CalibraFaixaBase, 97
30	528	26	#line 528 "C:\Users\Lucas\Desktop\UnB\Droid\sekksi2016\tentativa2\consultor.nxc"
30	529	26		add CorBaseDirMax, __signed_stack_001CalibraFaixaBase, __D0CalibraFaixaBase
30	528	30	#line 528 "C:\Users\Lucas\Desktop\UnB\Droid\sekksi2016\tentativa2\consultor.nxc"
30	528	30	#line 528 "C:\Users\Lucas\Desktop\UnB\Droid\sekksi2016\tentativa2\consultor.nxc"
30	529	30	#line 529 "C:\Users\Lucas\Desktop\UnB\Droid\sekksi2016\tentativa2\consultor.nxc"
30	530	30		mov __signed_stack_001CalibraFaixaBase, __CalibraFaixaBase_7qG2_rgb_dir_7qG2_000
30	529	32	#line 529 "C:\Users\Lucas\Desktop\UnB\Droid\sekksi2016\tentativa2\consultor.nxc"
30	529	32	#line 529 "C:\Users\Lucas\Desktop\UnB\Droid\sekksi2016\tentativa2\consultor.nxc"
30	530	32		set __D0CalibraFaixaBase, 97
30	529	35	#line 529 "C:\Users\Lucas\Desktop\UnB\Droid\sekksi2016\tentativa2\consultor.nxc"
30	530	35		sub CorBaseDirMin, __signed_stack_001CalibraFaixaBase, __D0CalibraFaixaBase
30	529	39	#line 529 "C:\Users\Lucas\Desktop\UnB\Droid\sekksi2016\tentativa2\consultor.nxc"
30	529	39	#line 529 "C:\Users\Lucas\Desktop\UnB\Droid\sekksi2016\tentativa2\consultor.nxc"
30	530	39	#line 530 "C:\Users\Lucas\Desktop\UnB\Droid\sekksi2016\tentativa2\consultor.nxc"
30	531	39		mov __signed_stack_001CalibraFaixaBase, __CalibraFaixaBase_7qG2_rgb_esq_7qG2_000
30	530	41	#line 530 "C:\Users\Lucas\Desktop\UnB\Droid\sekksi2016\tentativa2\consultor.nxc"
30	530	41	#line 530 "C:\Users\Lucas\Desktop\UnB\Droid\sekksi2016\tentativa2\consultor.nxc"
30	531	41		set __D0CalibraFaixaBase, 97
30	530	44	#line 530 "C:\Users\Lucas\Desktop\UnB\Droid\sekksi2016\tentativa2\consultor.nxc"
30	531	44		add CorBaseEsqMax, __signed_stack_001CalibraFaixaBase, __D0CalibraFaixaBase
30	530	48	#line 530 "C:\Users\Lucas\Desktop\UnB\Droid\sekksi2016\tentativa2\consultor.nxc"
30	530	48	#line 530 "C:\Users\Lucas\Desktop\UnB\Droid\sekksi2016\tentativa2\consultor.nxc"
30	531	48	#line 531 "C:\Users\Lucas\Desktop\UnB\Droid\sekksi2016\tentativa2\consultor.nxc"
30	532	48		mov __signed_stack_001CalibraFaixaBase, __CalibraFaixaBase_7qG2_rgb_esq_7qG2_000
30	531	50	#line 531 "C:\Users\Lucas\Desktop\UnB\Droid\sekksi2016\tentativa2\consultor.nxc"
30	531	50	#line 531 "C:\Users\Lucas\Desktop\UnB\Droid\sekksi2016\tentativa2\consultor.nxc"
30	532	50		set __D0CalibraFaixaBase, 97
30	531	53	#line 531 "C:\Users\Lucas\Desktop\UnB\Droid\sekksi2016\tentativa2\consultor.nxc"
30	532	53		sub CorBaseEsqMin, __signed_stack_001CalibraFaixaBase, __D0CalibraFaixaBase
30	531	57	#line 531 "C:\Users\Lucas\Desktop\UnB\Droid\sekksi2016\tentativa2\consultor.nxc"
30	531	57	#line 531 "C:\Users\Lucas\Desktop\UnB\Droid\sekksi2016\tentativa2\consultor.nxc"
30	532	57	#line 532 "C:\Users\Lucas\Desktop\UnB\Droid\sekksi2016\tentativa2\consultor.nxc"
30	533	57		mov __signed_stack_001CalibraFaixaBase, __CalibraFaixaBase_7qG2_rgb_meio_7qG2_000
30	532	59	#line 532 "C:\Users\Lucas\Desktop\UnB\Droid\sekksi2016\tentativa2\consultor.nxc"
30	532	59	#line 532 "C:\Users\Lucas\Desktop\UnB\Droid\sekksi2016\tentativa2\consultor.nxc"
30	533	59		set __D0CalibraFaixaBase, 247
30	532	62	#line 532 "C:\Users\Lucas\Desktop\UnB\Droid\sekksi2016\tentativa2\consultor.nxc"
30	533	62		add CorBaseMeioMax, __signed_stack_001CalibraFaixaBase, __D0CalibraFaixaBase
30	532	66	#line 532 "C:\Users\Lucas\Desktop\UnB\Droid\sekksi2016\tentativa2\consultor.nxc"
30	532	66	#line 532 "C:\Users\Lucas\Desktop\UnB\Droid\sekksi2016\tentativa2\consultor.nxc"
30	533	66	#line 533 "C:\Users\Lucas\Desktop\UnB\Droid\sekksi2016\tentativa2\consultor.nxc"
30	534	66		mov __signed_stack_001CalibraFaixaBase, __CalibraFaixaBase_7qG2_rgb_meio_7qG2_000
30	533	68	#line 533 "C:\Users\Lucas\Desktop\UnB\Droid\sekksi2016\tentativa2\consultor.nxc"
30	533	68	#line 533 "C:\Users\Lucas\Desktop\UnB\Droid\sekksi2016\tentativa2\consultor.nxc"
30	534	68		set __D0CalibraFaixaBase, 247
30	533	71	#line 533 "C:\Users\Lucas\Desktop\UnB\Droid\sekksi2016\tentativa2\consultor.nxc"
30	534	71		sub CorBaseMeioMin, __signed_stack_001CalibraFaixaBase, __D0CalibraFaixaBase
30	533	75	#line 533 "C:\Users\Lucas\Desktop\UnB\Droid\sekksi2016\tentativa2\consultor.nxc"
30	533	75	#line 533 "C:\Users\Lucas\Desktop\UnB\Droid\sekksi2016\tentativa2\consultor.nxc"
30	535	75	#line 535 "C:\Users\Lucas\Desktop\UnB\Droid\sekksi2016\tentativa2\consultor.nxc"
30	536	75		set __nbip_7qG2_n_7qG2_000, 2
30	535	78	#line 535 "C:\Users\Lucas\Desktop\UnB\Droid\sekksi2016\tentativa2\consultor.nxc"
30	535	78	#line 535 "C:\Users\Lucas\Desktop\UnB\Droid\sekksi2016\tentativa2\consultor.nxc"
30	536	78		subcall nbip, __nbip_return
30	535	81	#line 535 "C:\Users\Lucas\Desktop\UnB\Droid\sekksi2016\tentativa2\consultor.nxc"
30	540	81	#line 540 "C:\Users\Lucas\Desktop\UnB\Droid\sekksi2016\tentativa2\consultor.nxc"
30	541	81		subret __CalibraFaixaBase_return
31	541	0	#line 541 "C:\Users\Lucas\Desktop\UnB\Droid\sekksi2016\tentativa2\consultor.nxc"
31	542	0		subret ____initialize_global_data_return
#CLUMPS
Clump	Name	Offset	File
0	main	0	C:\Users\Lucas\Desktop\UnB\Droid\sekksi2016\tentativa2\consultor.nxc
1	__ResetSensorSubroutine	8	NXTDefs.h
2	__ReadLSBytes3	21	NXTDefs.h
3	PlaySound	111	NXCDefs.h
4	bip	545	C:\Users\Lucas\Desktop\UnB\Droid\sekksi2016\tentativa2\consultor.nxc
5	nbip	553	C:\Users\Lucas\Desktop\UnB\Droid\sekksi2016\tentativa2\consultor.nxc
6	consultor	582	C:\Users\Lucas\Desktop\UnB\Droid\sekksi2016\tentativa2\consultor.nxc
7	init	651	C:\Users\Lucas\Desktop\UnB\Droid\sekksi2016\tentativa2\consultor.nxc
8	InicializaSensores	667	C:\Users\Lucas\Desktop\UnB\Droid\sekksi2016\tentativa2\consultor.nxc
9	BonecoAlvo	756	C:\Users\Lucas\Desktop\UnB\Droid\sekksi2016\tentativa2\consultor.nxc
10	TemBoneco	798	C:\Users\Lucas\Desktop\UnB\Droid\sekksi2016\tentativa2\consultor.nxc
11	RecebeBoneco	897	C:\Users\Lucas\Desktop\UnB\Droid\sekksi2016\tentativa2\consultor.nxc
12	lerSensor	904	C:\Users\Lucas\Desktop\UnB\Droid\sekksi2016\tentativa2\consultor.nxc
13	PegaBoneco	1057	C:\Users\Lucas\Desktop\UnB\Droid\sekksi2016\tentativa2\consultor.nxc
14	VoltaGarra	1189	C:\Users\Lucas\Desktop\UnB\Droid\sekksi2016\tentativa2\consultor.nxc
15	CorBoneco	1276	C:\Users\Lucas\Desktop\UnB\Droid\sekksi2016\tentativa2\consultor.nxc
16	Pega	1372	C:\Users\Lucas\Desktop\UnB\Droid\sekksi2016\tentativa2\consultor.nxc
17	MandarParar	1467	C:\Users\Lucas\Desktop\UnB\Droid\sekksi2016\tentativa2\consultor.nxc
18	MandarSeguir	1502	C:\Users\Lucas\Desktop\UnB\Droid\sekksi2016\tentativa2\consultor.nxc
19	BipBranco	1537	C:\Users\Lucas\Desktop\UnB\Droid\sekksi2016\tentativa2\consultor.nxc
20	BipPreto	1551	C:\Users\Lucas\Desktop\UnB\Droid\sekksi2016\tentativa2\consultor.nxc
21	BonecoNaFrente	1565	C:\Users\Lucas\Desktop\UnB\Droid\sekksi2016\tentativa2\consultor.nxc
22	Rejeita	1742	C:\Users\Lucas\Desktop\UnB\Droid\sekksi2016\tentativa2\consultor.nxc
23	RecebiGirei	1779	C:\Users\Lucas\Desktop\UnB\Droid\sekksi2016\tentativa2\consultor.nxc
24	RecebiDesGirei	1825	C:\Users\Lucas\Desktop\UnB\Droid\sekksi2016\tentativa2\consultor.nxc
25	MandaRejeitar	1871	C:\Users\Lucas\Desktop\UnB\Droid\sekksi2016\tentativa2\consultor.nxc
26	MandaDesgirar	1906	C:\Users\Lucas\Desktop\UnB\Droid\sekksi2016\tentativa2\consultor.nxc
27	MandaUs	1941	C:\Users\Lucas\Desktop\UnB\Droid\sekksi2016\tentativa2\consultor.nxc
28	MandaTeste	1998	C:\Users\Lucas\Desktop\UnB\Droid\sekksi2016\tentativa2\consultor.nxc
29	LevantaBoneco	2033	C:\Users\Lucas\Desktop\UnB\Droid\sekksi2016\tentativa2\consultor.nxc
30	CalibraFaixaBase	2098	C:\Users\Lucas\Desktop\UnB\Droid\sekksi2016\tentativa2\consultor.nxc
31	__initialize_global_data	2181	C:\Users\Lucas\Desktop\UnB\Droid\sekksi2016\tentativa2\consultor.nxc
