#SYMBOLS
Index	Identifier	Type	Flag	Data	Size	RefCount
0	__D0RecebiDesGirei	6	1	0	4	9
1	__D0RecebiGirei	6	1	4	4	9
2	__D0PlaySound	6	1	8	4	69
3	__D0RecebeBoneco	6	1	12	4	2
4	__D0Rejeita	6	1	16	4	8
5	__D0SetSensorLowspeed_inline_InicializaSensores	6	1	20	4	2
6	__DU0SetSensorLowspeed_inline_InicializaSensores	5	1	24	4	5
7	__D0TemBoneco	6	1	28	4	19
8	__D0VoltaGarra	6	1	32	4	10
9	__D0PegaBoneco	6	1	36	4	17
10	__D0BonecoAlvo	6	1	40	4	8
11	__D0BonecoNaFrente	6	1	44	4	19
12	__RemoteMutex	9	0	48	4	10
13	__SPTArgsMutex	9	0	52	4	14
14	__D0consultor	6	1	56	4	8
15	__D0MandaUs	6	1	60	4	3
16	__D0Pega	6	1	64	4	10
17	__D0CorBoneco	6	1	68	4	28
18	__D0lerSensor	6	1	72	4	32
19	__signed_stack_001RecebiGirei	6	1	76	4	2
20	__signed_stack_001TemBoneco	6	1	80	4	8
21	__signed_stack_003PlaySound	6	1	84	4	14
22	__signed_stack_001RecebiDesGirei	6	1	88	4	2
23	__signed_stack_001VoltaGarra	6	1	92	4	4
24	__Wait_7qG2_ms_7qG2_000_inline_Pega	5	1	96	4	2
25	__Wait_7qG2_ms_7qG2_000_inline_BonecoNaFrente	5	1	100	4	2
26	__Wait_7qG2_ms_7qG2_000_inline_PegaBoneco	5	1	104	4	2
27	__Wait_7qG2_ms_7qG2_000_inline_VoltaGarra	5	1	108	4	2
28	__signed_stack_002PlaySound	6	1	112	4	14
29	__signed_stack_002BonecoNaFrente	6	1	116	4	2
30	__signed_stack_001CorBoneco	6	1	120	4	12
31	__signed_stack_001BonecoAlvo	6	1	124	4	4
32	__signed_stack_001BonecoNaFrente	6	1	128	4	8
33	__signed_stack_001lerSensor	6	1	132	4	18
34	__signed_stack_001PegaBoneco	6	1	136	4	4
35	__signed_stack_001PlaySound	6	1	140	4	44
36	__signed_stack_002lerSensor	6	1	144	4	6
37	__signed_stack_001Pega	6	1	148	4	4
38	__CLSWMutex3	9	0	152	4	2
39	__CLSCSMutex3	9	0	156	4	2
40	__CLSRMutex3	9	0	160	4	2
41	__TextOutMutex	9	0	164	4	2
42	__CBTWMutex	9	0	168	4	10
43	__RRNTmpVal	6	1	172	4	8
44	__MRMutex	9	0	176	4	4
45	__SRSTmpLongVal	6	1	180	4	10
46	__RLSBmutex3	9	0	184	4	2
47	__VoltaGarra_7qG2_old_tc_7qG2_000	4	1	188	2	2
48	__constVal150	4	0	190	2	1
49	__constVal500	4	0	192	2	1
50	__PlaySound_7qG2_i_7qG2_001	4	1	194	2	15
51	__VoltaGarra_7qG2_tc_7qG2_000	4	1	196	2	4
52	__lerSensor_7qG2_j_7qG2_000	4	1	198	2	8
53	__lerSensor_7qG2_k_7qG2_000	4	1	200	2	6
54	__TemBoneco_7qG2_rgb_dir_7qG2_000	4	1	202	2	3
55	__lerSensor_7qG2_i_7qG2_000	4	1	204	2	8
56	__lerSensor_7qG2_aux_7qG2_000	4	1	206	2	4
57	__PegaBoneco_7qG2_old_tc_7qG2_000	4	1	208	2	2
58	__PlaySound_7qG2_aCode_7qG2_000	4	1	210	2	11
59	__TemBoneco_7qG2_rgb_esq_7qG2_000	4	1	212	2	3
60	__PegaBoneco_7qG2_tc_7qG2_000	4	1	214	2	5
61	bonecoAlvo	4	1	216	2	4
62	__constVal128	4	0	218	2	3
63	__constVal200	4	0	220	2	3
64	__BonecoNaFrente_7qG2_cor_7qG2_000	4	1	222	2	5
65	__MandaUs_7qG2_aux_7qG2_000	4	1	224	2	2
66	__RecebiDesGirei_7qG2_aux_7qG2_000	4	1	226	2	2
67	__RecebiGirei_7qG2_aux_7qG2_000	4	1	228	2	2
68	__lerSensor_7qG2_sensor_7qG2_000	4	1	230	2	4
69	__CorBoneco_7qG2_leitura_7qG2_000	4	1	232	2	7
70	bonecoNaoAlvo	4	1	234	2	3
71	__SetSensorLowspeed_7qG2_port_7qG2_000_inline_InicializaSensores	1	1	236	1	4
72	__SetSensorLowspeed_7qG2_bIsPowered_7qG2_000_inline_InicializaSensores	1	1	237	1	2
73	__SetSensorColorRed_7qG2_port_7qG2_000_inline_InicializaSensores	1	1	238	1	8
74	__SetSensorColorGreen_7qG2_port_7qG2_000_inline_InicializaSensores	1	1	239	1	4
75	__SetSensorMode_7qG2_mode_7qG2_000_inline_SetSensorLowspeed_inline_InicializaSensores	1	1	240	1	2
76	__SetSensorMode_7qG2_port_7qG2_000_inline_SetSensorLowspeed_inline_InicializaSensores	1	1	241	1	2
77	__BipBranco_return	1	1	242	1	3
78	__RecebeBoneco_return	1	1	243	1	4
79	__SetSensorType_7qG2_port_7qG2_000_inline_SetSensorLowspeed_inline_InicializaSensores	1	1	244	1	2
80	__SetSensorType_7qG2_type_7qG2_000_inline_SetSensorLowspeed_inline_InicializaSensores	1	1	245	1	2
81	__BipPreto_return	1	1	246	1	3
82	__MandarSeguir_return	1	1	247	1	5
83	__Rejeita_return	1	1	248	1	4
84	__MandarParar_return	1	1	249	1	3
85	__constValNeg70	2	0	250	1	1
86	__constVal1	2	0	251	1	18
87	__MandaDesgirar_return	1	1	252	1	3
88	__RecebiDesGirei_return	1	1	253	1	5
89	__RecebiGirei_return	1	1	254	1	5
90	__constVal32	2	0	255	1	21
91	__MandaGirar_return	1	1	256	1	3
92	__constVal96	2	0	257	1	7
93	__constVal63	2	0	258	1	7
94	__constValNeg30	2	0	259	1	2
95	__lerSensor_return	1	1	260	1	6
96	__PegaBoneco_return	1	1	261	1	5
97	__CorBoneco_return	1	1	262	1	6
98	__Pega_return	1	1	263	1	3
99	__constVal0	2	1	264	1	43
100	__constVal50	2	0	265	1	1
101	__constValNeg125	2	0	266	1	1
102	__constVal8	2	0	267	1	1
103	__LSWriteOptions3	1	1	268	1	1
104	__constVal15	2	0	269	1	4
105	__PFTmp	1	1	270	1	1
106	____ResetSensorSubroutine_return	1	1	271	1	6
107	__constVal100	2	0	272	1	2
108	__constValNeg100	2	0	273	1	1
109	__constVal11	2	0	274	1	1
110	__RLSBytesCount3	1	1	275	1	7
111	__RLSBIterations3	1	1	276	1	4
112	__RRNErr	1	1	277	1	2
113	__RLSBResult3	2	1	278	1	7
114	__constVal14	2	0	279	1	2
115	__constVal2	2	0	280	1	8
116	____ReadLSBytes3_return	1	1	281	1	3
117	__ResetSensorTmp	1	1	282	1	2
118	__BonecoNaFrente_return	1	1	283	1	3
119	__TemBoneco_return	1	1	284	1	5
120	__init_return	1	1	285	1	3
121	__MandaUs_return	1	1	286	1	3
122	__BonecoAlvo_return	1	1	287	1	3
123	__VoltaGarra_return	1	1	288	1	8
124	__InicializaSensores_return	1	1	289	1	3
125	__consultor_return	1	1	290	1	3
126	__constVal4	2	0	291	1	1
127	__constVal3	2	0	292	1	14
128	__ResetSensorPort	1	1	293	1	6
129	__constVal5	2	0	294	1	6
130	__bip_return	1	1	295	1	4
131	____initialize_global_data_return	1	1	296	1	3
132	__PlaySound_return	1	1	297	1	7
133	__SPTArgs	8	0	5	8	42
134	__SPTArgs.Result	2	1	300	1	42
135	__SPTArgs.Frequency	3	1	302	2	42
136	__SPTArgs.Duration	3	1	304	2	42
137	__SPTArgs.Loop	1	1	306	1	42
138	__SPTArgs.Volume	1	1	307	1	42
139	__CBTWArgs	8	0	3	8	16
140	__CBTWArgs.Result	2	1	308	1	16
141	__CBTWArgs.Connection	1	1	309	1	16
142	__CBTWArgs.Buffer	7	0	310	4	16
143	__CBTWArgs.Buffer.Buffer_type	1	0	0	1	0
144	__TextOutArgs	8	0	4	16	6
145	__TextOutArgs.Result	2	1	312	1	6
146	__TextOutArgs.Location	8	0	2	4	6
147	__TextOutArgs.Location.X	4	1	316	2	6
148	__TextOutArgs.Location.Y	4	1	318	2	6
149	__TextOutArgs.Text	7	0	320	4	6
150	__TextOutArgs.Text.Text_type	1	0	0	1	0
151	__TextOutArgs.Options	5	1	324	4	6
152	__PointOutArgs	8	0	3	12	4
153	__PointOutArgs.Result	2	1	328	1	4
154	__PointOutArgs.Location	8	0	2	4	4
155	__PointOutArgs.Location.X	4	1	332	2	4
156	__PointOutArgs.Location.Y	4	1	334	2	4
157	__PointOutArgs.Options	5	1	336	4	4
158	__CLSRArgs3	8	0	4	12	5
159	__CLSRArgs3.Result	2	1	340	1	5
160	__CLSRArgs3.Port	1	1	341	1	5
161	__CLSRArgs3.Buffer	7	0	342	4	5
162	__CLSRArgs3.Buffer.Buffer_type	1	0	0	1	0
163	__CLSRArgs3.BufferLen	1	1	344	1	5
164	__CLSCSArgs3	8	0	3	4	4
165	__CLSCSArgs3.Result	2	1	348	1	4
166	__CLSCSArgs3.Port	1	1	349	1	4
167	__CLSCSArgs3.BytesReady	1	1	350	1	4
168	__CLSWArgs3	8	0	4	12	5
169	__CLSWArgs3.Result	2	1	352	1	5
170	__CLSWArgs3.Port	1	1	353	1	5
171	__CLSWArgs3.Buffer	7	0	354	4	5
172	__CLSWArgs3.Buffer.Buffer_type	1	0	0	1	0
173	__CLSWArgs3.ReturnLen	1	1	356	1	5
174	__MRArgs	8	0	4	8	10
175	__MRArgs.Result	2	1	360	1	10
176	__MRArgs.QueueID	1	1	361	1	10
177	__MRArgs.Remove	1	1	362	1	10
178	__MRArgs.Message	7	0	364	4	10
179	__MRArgs.Message.Message_type	1	0	0	1	0
180	__lerSensor_7qG2_leitura_7qG2_000	7	0	366	4	10
181	__lerSensor_7qG2_leitura_7qG2_000.__lerSensor_7qG2_leitura_7qG2_000_type	4	0	0	2	0
182	__SRSFlattenBuf	7	0	368	4	10
183	__SRSFlattenBuf.__SRSFlattenBuf_type	1	0	0	1	0
184	__DCMessageWritePacket	7	0	370	4	5
185	__DCMessageWritePacket.__DCMessageWritePacket_type	1	0	0	1	0
186	__RLSReadBuf3	7	0	372	4	8
187	__RLSReadBuf3.__RLSReadBuf3_type	1	0	0	1	0
188	__RLSLastGoodRead3	7	0	374	4	2
189	__RLSLastGoodRead3.__RLSLastGoodRead3_type	1	0	0	1	0
190	__RLSBbufLSWrite1	7	0	376	4	1
191	__RLSBbufLSWrite1.__RLSBbufLSWrite1_type	1	0	0	1	0
192	__SRSTmpBuf	7	0	378	4	30
193	__SRSTmpBuf.__SRSTmpBuf_type	1	0	0	1	0
194	__SRSSendBuf	7	0	380	4	10
195	__SRSSendBuf.__SRSSendBuf_type	1	0	0	1	0
#SOURCES
Clump	Line	PC	Source
0	116	0	#line 116 "C:\Users\luan\Documents\GitHub\Droid\sekksi2016\tentativa2\consultor.nxc"
0	117	0		subcall __initialize_global_data, ____initialize_global_data_return
0	116	2	#line 116 "C:\Users\luan\Documents\GitHub\Droid\sekksi2016\tentativa2\consultor.nxc"
0	117	2	#line 117 "C:\Users\luan\Documents\GitHub\Droid\sekksi2016\tentativa2\consultor.nxc"
0	118	2		subcall consultor, __consultor_return
0	117	4	#line 117 "C:\Users\luan\Documents\GitHub\Droid\sekksi2016\tentativa2\consultor.nxc"
0	118	4		exit -1, -1
1	5476	0		setin __constVal1, __ResetSensorPort, 5
1	5478	4		getin __ResetSensorTmp, __ResetSensorPort, 5
1	5479	8		brtst 5, __SensorStillInvalid, __ResetSensorTmp
1	5480	11		subret ____ResetSensorSubroutine_return
2	6393	0	#pragma macro 25
2	6393	0		acquire __CLSWMutex3
2	6393	1		or __CLSWArgs3.Port, __constVal3, __LSWriteOptions3
2	6393	5		mov __CLSWArgs3.ReturnLen, __RLSBytesCount3
2	6393	7		mov __CLSWArgs3.Buffer, __RLSReadBuf3
2	6393	9		syscall 21, __CLSWArgs3
2	6393	12		mov __RLSBResult3, __CLSWArgs3.Result
2	6393	14		release __CLSWMutex3
2	6393	15	#line 6393 "NXTDefs.h"
2	6394	15		brtst 5, __RLSBError3, __RLSBResult3
2	6395	18		set __RLSBIterations3, 60
2	6397	21	#pragma macro 23
2	6397	21		acquire __CLSCSMutex3
2	6397	22		set __CLSCSArgs3.Port, 3
2	6397	25		syscall 23, __CLSCSArgs3
2	6397	28		mov __RLSBytesCount3, __CLSCSArgs3.BytesReady
2	6397	30		mov __RLSBResult3, __CLSCSArgs3.Result
2	6397	32		release __CLSCSMutex3
2	6397	33	#line 6397 "NXTDefs.h"
2	6398	33		sub __RLSBIterations3, __RLSBIterations3, __constVal1
2	6399	37		brtst 2, __RLSBError3, __RLSBIterations3
2	6400	40		brtst 0, __RLSBError3, __RLSBResult3
2	6401	43		brtst 4, __RLSBReadyToRead3, __RLSBResult3
2	6403	46		wait2 NA, __constVal1
2	6404	49		jmp __RLSBDoCheckStatus3
2	6406	51		brtst 4, __RLSBReturn3, __RLSBytesCount3
2	6407	54		arrinit __RLSReadBuf3, __constVal0, __RLSBytesCount3
2	6409	58	#pragma macro 25
2	6409	58		acquire __CLSRMutex3
2	6409	59		set __CLSRArgs3.Port, 3
2	6409	62		mov __CLSRArgs3.BufferLen, __RLSBytesCount3
2	6409	64		syscall 22, __CLSRArgs3
2	6409	67		mov __RLSReadBuf3, __CLSRArgs3.Buffer
2	6409	69		mov __RLSBResult3, __CLSRArgs3.Result
2	6409	71		release __CLSRMutex3
2	6409	72	#line 6409 "NXTDefs.h"
2	6410	72		brtst 5, __RLSBError3, __RLSBResult3
2	6411	75		mov __RLSLastGoodRead3, __RLSReadBuf3
2	6412	77		jmp __RLSBDone3
2	6414	79		mov __RLSReadBuf3, __RLSLastGoodRead3
2	6416	81		arrsize __RLSBytesCount3, __RLSReadBuf3
2	6418	84		subret ____ReadLSBytes3_return
3	7127	0	#line 7127 "NXCDefs.h"
3	7128	0		mov __signed_stack_001PlaySound, __PlaySound_7qG2_aCode_7qG2_000
3	7127	2	#line 7127 "NXCDefs.h"
3	7128	2	#line 7128 "NXCDefs.h"
3	7129	2		set __D0PlaySound, 0
3	7128	5	#line 7128 "NXCDefs.h"
3	7129	5		cmp 4, __D0PlaySound, __signed_stack_001PlaySound, __D0PlaySound
3	7128	9	#line 7128 "NXCDefs.h"
3	7129	9		brtst 4, __ASM_Label_56, __D0PlaySound
3	7128	12	#line 7128 "NXCDefs.h"
3	7129	12		set __signed_stack_001PlaySound, 600
3	7128	15	#line 7128 "NXCDefs.h"
3	7128	15	#line 7128 "NXCDefs.h"
3	7129	15		set __signed_stack_002PlaySound, 200
3	7128	18	#line 7128 "NXCDefs.h"
3	7128	18	#line 7128 "NXCDefs.h"
3	7129	18		set __signed_stack_003PlaySound, 4
3	7128	21	#line 7128 "NXCDefs.h"
3	7128	21	#line 7128 "NXCDefs.h"
3	7129	21		set __D0PlaySound, 0
3	7129	24	#line 7129 "NXCDefs.h"
3	7130	24		acquire __SPTArgsMutex
3	7129	25	#line 7129 "NXCDefs.h"
3	7130	25		mov __SPTArgs.Frequency, __signed_stack_001PlaySound
3	7129	27	#line 7129 "NXCDefs.h"
3	7130	27		mov __SPTArgs.Duration, __signed_stack_002PlaySound
3	7129	29	#line 7129 "NXCDefs.h"
3	7130	29		mov __SPTArgs.Volume, __signed_stack_003PlaySound
3	7129	31	#line 7129 "NXCDefs.h"
3	7130	31		mov __SPTArgs.Loop, __D0PlaySound
3	7129	34	#line 7129 "NXCDefs.h"
3	7130	34		syscall 10, __SPTArgs
3	7129	37	#line 7129 "NXCDefs.h"
3	7130	37		mov __D0PlaySound, __SPTArgs.Result
3	7129	40	#line 7129 "NXCDefs.h"
3	7130	40		release __SPTArgsMutex
3	7129	41	#line 7129 "NXCDefs.h"
3	7129	41	#line 7129 "NXCDefs.h"
3	7130	41		jmp __ASM_Label_65
3	7129	43	#line 7129 "NXCDefs.h"
3	7130	43		mov __signed_stack_001PlaySound, __PlaySound_7qG2_aCode_7qG2_000
3	7129	45	#line 7129 "NXCDefs.h"
3	7130	45	#line 7130 "NXCDefs.h"
3	7131	45		set __D0PlaySound, 1
3	7130	48	#line 7130 "NXCDefs.h"
3	7131	48		cmp 4, __D0PlaySound, __signed_stack_001PlaySound, __D0PlaySound
3	7131	52	#line 7131 "NXCDefs.h"
3	7132	52		brtst 4, __ASM_Label_68, __D0PlaySound
3	7131	55	#line 7131 "NXCDefs.h"
3	7132	55		set __signed_stack_001PlaySound, 600
3	7131	58	#line 7131 "NXCDefs.h"
3	7131	58	#line 7131 "NXCDefs.h"
3	7132	58		set __signed_stack_002PlaySound, 150
3	7131	61	#line 7131 "NXCDefs.h"
3	7131	61	#line 7131 "NXCDefs.h"
3	7132	61		set __signed_stack_003PlaySound, 4
3	7131	64	#line 7131 "NXCDefs.h"
3	7131	64	#line 7131 "NXCDefs.h"
3	7132	64		set __D0PlaySound, 0
3	7132	67	#line 7132 "NXCDefs.h"
3	7133	67		acquire __SPTArgsMutex
3	7132	68	#line 7132 "NXCDefs.h"
3	7133	68		mov __SPTArgs.Frequency, __signed_stack_001PlaySound
3	7132	70	#line 7132 "NXCDefs.h"
3	7133	70		mov __SPTArgs.Duration, __signed_stack_002PlaySound
3	7132	72	#line 7132 "NXCDefs.h"
3	7133	72		mov __SPTArgs.Volume, __signed_stack_003PlaySound
3	7132	74	#line 7132 "NXCDefs.h"
3	7133	74		mov __SPTArgs.Loop, __D0PlaySound
3	7132	77	#line 7132 "NXCDefs.h"
3	7133	77		syscall 10, __SPTArgs
3	7132	80	#line 7132 "NXCDefs.h"
3	7133	80		mov __D0PlaySound, __SPTArgs.Result
3	7132	83	#line 7132 "NXCDefs.h"
3	7133	83		release __SPTArgsMutex
3	7132	84	#line 7132 "NXCDefs.h"
3	7132	84	#line 7132 "NXCDefs.h"
3	7133	84		wait2 NA, __constVal200
3	7132	87	#line 7132 "NXCDefs.h"
3	7132	87	#line 7132 "NXCDefs.h"
3	7133	87	#line 7133 "NXCDefs.h"
3	7134	87		set __signed_stack_001PlaySound, 600
3	7133	90	#line 7133 "NXCDefs.h"
3	7133	90	#line 7133 "NXCDefs.h"
3	7134	90		set __signed_stack_002PlaySound, 150
3	7133	93	#line 7133 "NXCDefs.h"
3	7133	93	#line 7133 "NXCDefs.h"
3	7134	93		set __signed_stack_003PlaySound, 4
3	7133	96	#line 7133 "NXCDefs.h"
3	7133	96	#line 7133 "NXCDefs.h"
3	7134	96		set __D0PlaySound, 0
3	7134	99	#line 7134 "NXCDefs.h"
3	7135	99		acquire __SPTArgsMutex
3	7134	100	#line 7134 "NXCDefs.h"
3	7135	100		mov __SPTArgs.Frequency, __signed_stack_001PlaySound
3	7134	102	#line 7134 "NXCDefs.h"
3	7135	102		mov __SPTArgs.Duration, __signed_stack_002PlaySound
3	7134	104	#line 7134 "NXCDefs.h"
3	7135	104		mov __SPTArgs.Volume, __signed_stack_003PlaySound
3	7134	106	#line 7134 "NXCDefs.h"
3	7135	106		mov __SPTArgs.Loop, __D0PlaySound
3	7134	109	#line 7134 "NXCDefs.h"
3	7135	109		syscall 10, __SPTArgs
3	7134	112	#line 7134 "NXCDefs.h"
3	7135	112		mov __D0PlaySound, __SPTArgs.Result
3	7134	115	#line 7134 "NXCDefs.h"
3	7135	115		release __SPTArgsMutex
3	7134	116	#line 7134 "NXCDefs.h"
3	7134	116	#line 7134 "NXCDefs.h"
3	7135	116		wait2 NA, __constVal150
3	7134	119	#line 7134 "NXCDefs.h"
3	7134	119	#line 7134 "NXCDefs.h"
3	7136	119	#line 7136 "NXCDefs.h"
3	7137	119		jmp __ASM_Label_85
3	7136	121	#line 7136 "NXCDefs.h"
3	7137	121		mov __signed_stack_001PlaySound, __PlaySound_7qG2_aCode_7qG2_000
3	7136	123	#line 7136 "NXCDefs.h"
3	7137	123	#line 7137 "NXCDefs.h"
3	7138	123		set __D0PlaySound, 3
3	7137	126	#line 7137 "NXCDefs.h"
3	7138	126		cmp 4, __D0PlaySound, __signed_stack_001PlaySound, __D0PlaySound
3	7137	130	#line 7137 "NXCDefs.h"
3	7138	130		brtst 4, __ASM_Label_88, __D0PlaySound
3	7137	133	#line 7137 "NXCDefs.h"
3	7138	133		set __PlaySound_7qG2_i_7qG2_001, 4
3	7137	136	#line 7137 "NXCDefs.h"
3	7137	136	#line 7137 "NXCDefs.h"
3	7138	136		mov __signed_stack_001PlaySound, __PlaySound_7qG2_i_7qG2_001
3	7137	138	#line 7137 "NXCDefs.h"
3	7137	138	#line 7137 "NXCDefs.h"
3	7138	138		set __D0PlaySound, 8
3	7137	141	#line 7137 "NXCDefs.h"
3	7138	141		cmp 0, __D0PlaySound, __signed_stack_001PlaySound, __D0PlaySound
3	7137	145	#line 7137 "NXCDefs.h"
3	7138	145		brtst 4, __ASM_Label_90, __D0PlaySound
3	7137	148	#line 7137 "NXCDefs.h"
3	7138	148		jmp __ASM_Label_91
3	7138	150	#line 7138 "NXCDefs.h"
3	7139	150		add __PlaySound_7qG2_i_7qG2_001, __PlaySound_7qG2_i_7qG2_001, __constVal1
3	7139	154	#line 7139 "NXCDefs.h"
3	7140	154		jmp __ASM_Label_89
3	7139	156	#line 7139 "NXCDefs.h"
3	7140	156		set __signed_stack_001PlaySound, 523
3	7139	159	#line 7139 "NXCDefs.h"
3	7139	159	#line 7139 "NXCDefs.h"
3	7140	159		mov __D0PlaySound, __PlaySound_7qG2_i_7qG2_001
3	7139	161	#line 7139 "NXCDefs.h"
3	7140	161		mul __signed_stack_001PlaySound, __signed_stack_001PlaySound, __D0PlaySound
3	7139	165	#line 7139 "NXCDefs.h"
3	7139	165	#line 7139 "NXCDefs.h"
3	7140	165		set __D0PlaySound, 4
3	7139	168	#line 7139 "NXCDefs.h"
3	7140	168		div __signed_stack_001PlaySound, __signed_stack_001PlaySound, __D0PlaySound
3	7139	172	#line 7139 "NXCDefs.h"
3	7139	172	#line 7139 "NXCDefs.h"
3	7140	172		set __signed_stack_002PlaySound, 100
3	7139	175	#line 7139 "NXCDefs.h"
3	7139	175	#line 7139 "NXCDefs.h"
3	7140	175		set __signed_stack_003PlaySound, 4
3	7139	178	#line 7139 "NXCDefs.h"
3	7139	178	#line 7139 "NXCDefs.h"
3	7140	178		set __D0PlaySound, 0
3	7140	181	#line 7140 "NXCDefs.h"
3	7141	181		acquire __SPTArgsMutex
3	7140	182	#line 7140 "NXCDefs.h"
3	7141	182		mov __SPTArgs.Frequency, __signed_stack_001PlaySound
3	7140	184	#line 7140 "NXCDefs.h"
3	7141	184		mov __SPTArgs.Duration, __signed_stack_002PlaySound
3	7140	186	#line 7140 "NXCDefs.h"
3	7141	186		mov __SPTArgs.Volume, __signed_stack_003PlaySound
3	7140	188	#line 7140 "NXCDefs.h"
3	7141	188		mov __SPTArgs.Loop, __D0PlaySound
3	7140	191	#line 7140 "NXCDefs.h"
3	7141	191		syscall 10, __SPTArgs
3	7140	194	#line 7140 "NXCDefs.h"
3	7141	194		mov __D0PlaySound, __SPTArgs.Result
3	7140	197	#line 7140 "NXCDefs.h"
3	7141	197		release __SPTArgsMutex
3	7140	198	#line 7140 "NXCDefs.h"
3	7140	198	#line 7140 "NXCDefs.h"
3	7141	198		wait2 NA, __constVal100
3	7140	201	#line 7140 "NXCDefs.h"
3	7140	201	#line 7140 "NXCDefs.h"
3	7142	201	#line 7142 "NXCDefs.h"
3	7143	201		jmp __ASM_Label_92
3	7142	203	#line 7142 "NXCDefs.h"
3	7142	203	#line 7142 "NXCDefs.h"
3	7143	203		jmp __ASM_Label_105
3	7142	205	#line 7142 "NXCDefs.h"
3	7143	205		mov __signed_stack_001PlaySound, __PlaySound_7qG2_aCode_7qG2_000
3	7142	207	#line 7142 "NXCDefs.h"
3	7143	207	#line 7143 "NXCDefs.h"
3	7144	207		set __D0PlaySound, 2
3	7143	210	#line 7143 "NXCDefs.h"
3	7144	210		cmp 4, __D0PlaySound, __signed_stack_001PlaySound, __D0PlaySound
3	7143	214	#line 7143 "NXCDefs.h"
3	7144	214		brtst 4, __ASM_Label_108, __D0PlaySound
3	7143	217	#line 7143 "NXCDefs.h"
3	7144	217		set __PlaySound_7qG2_i_7qG2_001, 7
3	7143	220	#line 7143 "NXCDefs.h"
3	7143	220	#line 7143 "NXCDefs.h"
3	7144	220		mov __signed_stack_001PlaySound, __PlaySound_7qG2_i_7qG2_001
3	7143	222	#line 7143 "NXCDefs.h"
3	7143	222	#line 7143 "NXCDefs.h"
3	7144	222		set __D0PlaySound, 3
3	7143	225	#line 7143 "NXCDefs.h"
3	7144	225		cmp 1, __D0PlaySound, __signed_stack_001PlaySound, __D0PlaySound
3	7143	229	#line 7143 "NXCDefs.h"
3	7144	229		brtst 4, __ASM_Label_110, __D0PlaySound
3	7143	232	#line 7143 "NXCDefs.h"
3	7144	232		jmp __ASM_Label_111
3	7144	234	#line 7144 "NXCDefs.h"
3	7145	234		sub __PlaySound_7qG2_i_7qG2_001, __PlaySound_7qG2_i_7qG2_001, __constVal1
3	7145	238	#line 7145 "NXCDefs.h"
3	7146	238		jmp __ASM_Label_109
3	7145	240	#line 7145 "NXCDefs.h"
3	7146	240		set __signed_stack_001PlaySound, 523
3	7145	243	#line 7145 "NXCDefs.h"
3	7145	243	#line 7145 "NXCDefs.h"
3	7146	243		mov __D0PlaySound, __PlaySound_7qG2_i_7qG2_001
3	7145	245	#line 7145 "NXCDefs.h"
3	7146	245		mul __signed_stack_001PlaySound, __signed_stack_001PlaySound, __D0PlaySound
3	7145	249	#line 7145 "NXCDefs.h"
3	7145	249	#line 7145 "NXCDefs.h"
3	7146	249		set __D0PlaySound, 4
3	7145	252	#line 7145 "NXCDefs.h"
3	7146	252		div __signed_stack_001PlaySound, __signed_stack_001PlaySound, __D0PlaySound
3	7145	256	#line 7145 "NXCDefs.h"
3	7145	256	#line 7145 "NXCDefs.h"
3	7146	256		set __signed_stack_002PlaySound, 100
3	7145	259	#line 7145 "NXCDefs.h"
3	7145	259	#line 7145 "NXCDefs.h"
3	7146	259		set __signed_stack_003PlaySound, 4
3	7145	262	#line 7145 "NXCDefs.h"
3	7145	262	#line 7145 "NXCDefs.h"
3	7146	262		set __D0PlaySound, 0
3	7146	265	#line 7146 "NXCDefs.h"
3	7147	265		acquire __SPTArgsMutex
3	7146	266	#line 7146 "NXCDefs.h"
3	7147	266		mov __SPTArgs.Frequency, __signed_stack_001PlaySound
3	7146	268	#line 7146 "NXCDefs.h"
3	7147	268		mov __SPTArgs.Duration, __signed_stack_002PlaySound
3	7146	270	#line 7146 "NXCDefs.h"
3	7147	270		mov __SPTArgs.Volume, __signed_stack_003PlaySound
3	7146	272	#line 7146 "NXCDefs.h"
3	7147	272		mov __SPTArgs.Loop, __D0PlaySound
3	7146	275	#line 7146 "NXCDefs.h"
3	7147	275		syscall 10, __SPTArgs
3	7146	278	#line 7146 "NXCDefs.h"
3	7147	278		mov __D0PlaySound, __SPTArgs.Result
3	7146	281	#line 7146 "NXCDefs.h"
3	7147	281		release __SPTArgsMutex
3	7146	282	#line 7146 "NXCDefs.h"
3	7146	282	#line 7146 "NXCDefs.h"
3	7147	282		wait2 NA, __constVal100
3	7146	285	#line 7146 "NXCDefs.h"
3	7146	285	#line 7146 "NXCDefs.h"
3	7148	285	#line 7148 "NXCDefs.h"
3	7149	285		jmp __ASM_Label_112
3	7148	287	#line 7148 "NXCDefs.h"
3	7148	287	#line 7148 "NXCDefs.h"
3	7149	287		jmp __ASM_Label_125
3	7148	289	#line 7148 "NXCDefs.h"
3	7149	289		mov __signed_stack_001PlaySound, __PlaySound_7qG2_aCode_7qG2_000
3	7148	291	#line 7148 "NXCDefs.h"
3	7149	291	#line 7149 "NXCDefs.h"
3	7150	291		set __D0PlaySound, 4
3	7149	294	#line 7149 "NXCDefs.h"
3	7150	294		cmp 4, __D0PlaySound, __signed_stack_001PlaySound, __D0PlaySound
3	7150	298	#line 7150 "NXCDefs.h"
3	7151	298		brtst 4, __ASM_Label_128, __D0PlaySound
3	7150	301	#line 7150 "NXCDefs.h"
3	7151	301		set __signed_stack_001PlaySound, 100
3	7150	304	#line 7150 "NXCDefs.h"
3	7150	304	#line 7150 "NXCDefs.h"
3	7151	304		set __signed_stack_002PlaySound, 500
3	7150	307	#line 7150 "NXCDefs.h"
3	7150	307	#line 7150 "NXCDefs.h"
3	7151	307		set __signed_stack_003PlaySound, 4
3	7150	310	#line 7150 "NXCDefs.h"
3	7150	310	#line 7150 "NXCDefs.h"
3	7151	310		set __D0PlaySound, 0
3	7151	313	#line 7151 "NXCDefs.h"
3	7152	313		acquire __SPTArgsMutex
3	7151	314	#line 7151 "NXCDefs.h"
3	7152	314		mov __SPTArgs.Frequency, __signed_stack_001PlaySound
3	7151	316	#line 7151 "NXCDefs.h"
3	7152	316		mov __SPTArgs.Duration, __signed_stack_002PlaySound
3	7151	318	#line 7151 "NXCDefs.h"
3	7152	318		mov __SPTArgs.Volume, __signed_stack_003PlaySound
3	7151	320	#line 7151 "NXCDefs.h"
3	7152	320		mov __SPTArgs.Loop, __D0PlaySound
3	7151	323	#line 7151 "NXCDefs.h"
3	7152	323		syscall 10, __SPTArgs
3	7151	326	#line 7151 "NXCDefs.h"
3	7152	326		mov __D0PlaySound, __SPTArgs.Result
3	7151	329	#line 7151 "NXCDefs.h"
3	7152	329		release __SPTArgsMutex
3	7151	330	#line 7151 "NXCDefs.h"
3	7151	330	#line 7151 "NXCDefs.h"
3	7152	330		wait2 NA, __constVal500
3	7151	333	#line 7151 "NXCDefs.h"
3	7151	333	#line 7151 "NXCDefs.h"
3	7153	333	#line 7153 "NXCDefs.h"
3	7154	333		jmp __ASM_Label_137
3	7153	335	#line 7153 "NXCDefs.h"
3	7154	335		mov __signed_stack_001PlaySound, __PlaySound_7qG2_aCode_7qG2_000
3	7153	337	#line 7153 "NXCDefs.h"
3	7154	337	#line 7154 "NXCDefs.h"
3	7155	337		set __D0PlaySound, 5
3	7154	340	#line 7154 "NXCDefs.h"
3	7155	340		cmp 4, __D0PlaySound, __signed_stack_001PlaySound, __D0PlaySound
3	7154	344	#line 7154 "NXCDefs.h"
3	7155	344		brtst 4, __ASM_Label_140, __D0PlaySound
3	7154	347	#line 7154 "NXCDefs.h"
3	7155	347		set __PlaySound_7qG2_i_7qG2_001, 4
3	7154	350	#line 7154 "NXCDefs.h"
3	7154	350	#line 7154 "NXCDefs.h"
3	7155	350		mov __signed_stack_001PlaySound, __PlaySound_7qG2_i_7qG2_001
3	7154	352	#line 7154 "NXCDefs.h"
3	7154	352	#line 7154 "NXCDefs.h"
3	7155	352		set __D0PlaySound, 8
3	7154	355	#line 7154 "NXCDefs.h"
3	7155	355		cmp 0, __D0PlaySound, __signed_stack_001PlaySound, __D0PlaySound
3	7154	359	#line 7154 "NXCDefs.h"
3	7155	359		brtst 4, __ASM_Label_142, __D0PlaySound
3	7154	362	#line 7154 "NXCDefs.h"
3	7155	362		jmp __ASM_Label_143
3	7155	364	#line 7155 "NXCDefs.h"
3	7156	364		add __PlaySound_7qG2_i_7qG2_001, __PlaySound_7qG2_i_7qG2_001, __constVal1
3	7156	368	#line 7156 "NXCDefs.h"
3	7157	368		jmp __ASM_Label_141
3	7156	370	#line 7156 "NXCDefs.h"
3	7157	370		set __signed_stack_001PlaySound, 523
3	7156	373	#line 7156 "NXCDefs.h"
3	7156	373	#line 7156 "NXCDefs.h"
3	7157	373		mov __D0PlaySound, __PlaySound_7qG2_i_7qG2_001
3	7156	375	#line 7156 "NXCDefs.h"
3	7157	375		mul __signed_stack_001PlaySound, __signed_stack_001PlaySound, __D0PlaySound
3	7156	379	#line 7156 "NXCDefs.h"
3	7156	379	#line 7156 "NXCDefs.h"
3	7157	379		set __D0PlaySound, 4
3	7156	382	#line 7156 "NXCDefs.h"
3	7157	382		div __signed_stack_001PlaySound, __signed_stack_001PlaySound, __D0PlaySound
3	7156	386	#line 7156 "NXCDefs.h"
3	7156	386	#line 7156 "NXCDefs.h"
3	7157	386		set __signed_stack_002PlaySound, 50
3	7156	389	#line 7156 "NXCDefs.h"
3	7156	389	#line 7156 "NXCDefs.h"
3	7157	389		set __signed_stack_003PlaySound, 4
3	7156	392	#line 7156 "NXCDefs.h"
3	7156	392	#line 7156 "NXCDefs.h"
3	7157	392		set __D0PlaySound, 0
3	7157	395	#line 7157 "NXCDefs.h"
3	7158	395		acquire __SPTArgsMutex
3	7157	396	#line 7157 "NXCDefs.h"
3	7158	396		mov __SPTArgs.Frequency, __signed_stack_001PlaySound
3	7157	398	#line 7157 "NXCDefs.h"
3	7158	398		mov __SPTArgs.Duration, __signed_stack_002PlaySound
3	7157	400	#line 7157 "NXCDefs.h"
3	7158	400		mov __SPTArgs.Volume, __signed_stack_003PlaySound
3	7157	402	#line 7157 "NXCDefs.h"
3	7158	402		mov __SPTArgs.Loop, __D0PlaySound
3	7157	405	#line 7157 "NXCDefs.h"
3	7158	405		syscall 10, __SPTArgs
3	7157	408	#line 7157 "NXCDefs.h"
3	7158	408		mov __D0PlaySound, __SPTArgs.Result
3	7157	411	#line 7157 "NXCDefs.h"
3	7158	411		release __SPTArgsMutex
3	7157	412	#line 7157 "NXCDefs.h"
3	7157	412	#line 7157 "NXCDefs.h"
3	7158	412		wait2 NA, __constVal50
3	7157	415	#line 7157 "NXCDefs.h"
3	7157	415	#line 7157 "NXCDefs.h"
3	7169	415	#line 7169 "NXCDefs.h"
3	7170	415		jmp __ASM_Label_144
3	7169	417	#line 7169 "NXCDefs.h"
3	7169	417	#line 7169 "NXCDefs.h"
3	7169	417	#line 7169 "NXCDefs.h"
3	7169	417	#line 7169 "NXCDefs.h"
3	7169	417	#line 7169 "NXCDefs.h"
3	7169	417	#line 7169 "NXCDefs.h"
3	7169	417	#line 7169 "NXCDefs.h"
3	7169	417	#line 7169 "NXCDefs.h"
3	7170	417		subret __PlaySound_return
4	111	0	#line 111 "C:\Users\luan\Documents\GitHub\Droid\sekksi2016\tentativa2\consultor.nxc"
4	112	0		set __PlaySound_7qG2_aCode_7qG2_000, 2
4	111	3	#line 111 "C:\Users\luan\Documents\GitHub\Droid\sekksi2016\tentativa2\consultor.nxc"
4	112	3	#line 112 "C:\Users\luan\Documents\GitHub\Droid\sekksi2016\tentativa2\consultor.nxc"
4	113	3		subcall PlaySound, __PlaySound_return
4	112	6	#line 112 "C:\Users\luan\Documents\GitHub\Droid\sekksi2016\tentativa2\consultor.nxc"
4	114	6	#line 114 "C:\Users\luan\Documents\GitHub\Droid\sekksi2016\tentativa2\consultor.nxc"
4	115	6		subret __bip_return
5	123	0	#line 123 "C:\Users\luan\Documents\GitHub\Droid\sekksi2016\tentativa2\consultor.nxc"
5	124	0		subcall init, __init_return
5	123	2	#line 123 "C:\Users\luan\Documents\GitHub\Droid\sekksi2016\tentativa2\consultor.nxc"
5	124	2	#line 124 "C:\Users\luan\Documents\GitHub\Droid\sekksi2016\tentativa2\consultor.nxc"
5	125	2		set __D0consultor, 1
5	125	5	#line 125 "C:\Users\luan\Documents\GitHub\Droid\sekksi2016\tentativa2\consultor.nxc"
5	126	5		tst 5, __D0consultor, __D0consultor
5	125	8	#line 125 "C:\Users\luan\Documents\GitHub\Droid\sekksi2016\tentativa2\consultor.nxc"
5	126	8		brtst 4, __ASM_Label_492, __D0consultor
5	126	11	#line 126 "C:\Users\luan\Documents\GitHub\Droid\sekksi2016\tentativa2\consultor.nxc"
5	127	11		subcall TemBoneco, __TemBoneco_return
5	126	13	#line 126 "C:\Users\luan\Documents\GitHub\Droid\sekksi2016\tentativa2\consultor.nxc"
5	127	13		mov __D0consultor, __D0TemBoneco
5	127	15	#line 127 "C:\Users\luan\Documents\GitHub\Droid\sekksi2016\tentativa2\consultor.nxc"
5	128	15		tst 5, __D0consultor, __D0consultor
5	127	18	#line 127 "C:\Users\luan\Documents\GitHub\Droid\sekksi2016\tentativa2\consultor.nxc"
5	128	18		brtst 4, __ASM_Label_497, __D0consultor
5	128	21	#line 128 "C:\Users\luan\Documents\GitHub\Droid\sekksi2016\tentativa2\consultor.nxc"
5	129	21		subcall BonecoNaFrente, __BonecoNaFrente_return
5	128	23	#line 128 "C:\Users\luan\Documents\GitHub\Droid\sekksi2016\tentativa2\consultor.nxc"
5	131	23	#line 131 "C:\Users\luan\Documents\GitHub\Droid\sekksi2016\tentativa2\consultor.nxc"
5	132	23		jmp __ASM_Label_498
5	132	25	#line 132 "C:\Users\luan\Documents\GitHub\Droid\sekksi2016\tentativa2\consultor.nxc"
5	133	25		subcall MandaUs, __MandaUs_return
5	132	27	#line 132 "C:\Users\luan\Documents\GitHub\Droid\sekksi2016\tentativa2\consultor.nxc"
5	134	27	#line 134 "C:\Users\luan\Documents\GitHub\Droid\sekksi2016\tentativa2\consultor.nxc"
5	136	27	#line 136 "C:\Users\luan\Documents\GitHub\Droid\sekksi2016\tentativa2\consultor.nxc"
5	137	27		jmp __ASM_Label_491
5	136	29	#line 136 "C:\Users\luan\Documents\GitHub\Droid\sekksi2016\tentativa2\consultor.nxc"
5	136	29	#line 136 "C:\Users\luan\Documents\GitHub\Droid\sekksi2016\tentativa2\consultor.nxc"
5	137	29		subret __consultor_return
6	139	0	#line 139 "C:\Users\luan\Documents\GitHub\Droid\sekksi2016\tentativa2\consultor.nxc"
6	140	0		subcall InicializaSensores, __InicializaSensores_return
6	139	2	#line 139 "C:\Users\luan\Documents\GitHub\Droid\sekksi2016\tentativa2\consultor.nxc"
6	140	2	#line 140 "C:\Users\luan\Documents\GitHub\Droid\sekksi2016\tentativa2\consultor.nxc"
6	141	2		subcall VoltaGarra, __VoltaGarra_return
6	140	4	#line 140 "C:\Users\luan\Documents\GitHub\Droid\sekksi2016\tentativa2\consultor.nxc"
6	142	4	#line 142 "C:\Users\luan\Documents\GitHub\Droid\sekksi2016\tentativa2\consultor.nxc"
6	143	4		subcall BonecoAlvo, __BonecoAlvo_return
6	142	6	#line 142 "C:\Users\luan\Documents\GitHub\Droid\sekksi2016\tentativa2\consultor.nxc"
6	144	6	#line 144 "C:\Users\luan\Documents\GitHub\Droid\sekksi2016\tentativa2\consultor.nxc"
6	145	6		subret __init_return
7	146	0	#line 146 "C:\Users\luan\Documents\GitHub\Droid\sekksi2016\tentativa2\consultor.nxc"
7	147	0		set __SetSensorColorRed_7qG2_port_7qG2_000_inline_InicializaSensores, 0
7	146	3	#line 146 "C:\Users\luan\Documents\GitHub\Droid\sekksi2016\tentativa2\consultor.nxc"
7	4396	3	#line 4396 "NXCDefs.h"
7	4397	3	#pragma macro 6
7	4397	3		setin __constVal14, __SetSensorColorRed_7qG2_port_7qG2_000_inline_InicializaSensores, 0
7	4397	7		setin __constVal128, __SetSensorColorRed_7qG2_port_7qG2_000_inline_InicializaSensores, 1
7	4397	11		mov __ResetSensorPort, __SetSensorColorRed_7qG2_port_7qG2_000_inline_InicializaSensores
7	4397	13		subcall __ResetSensorSubroutine, ____ResetSensorSubroutine_return
7	5008	15	#line 5008 "NXCDefs.h"
7	4396	15	#line 4396 "NXCDefs.h"
7	147	15	#line 147 "C:\Users\luan\Documents\GitHub\Droid\sekksi2016\tentativa2\consultor.nxc"
7	147	15	#line 147 "C:\Users\luan\Documents\GitHub\Droid\sekksi2016\tentativa2\consultor.nxc"
7	148	15		set __SetSensorColorRed_7qG2_port_7qG2_000_inline_InicializaSensores, 1
7	147	18	#line 147 "C:\Users\luan\Documents\GitHub\Droid\sekksi2016\tentativa2\consultor.nxc"
7	4396	18	#line 4396 "NXCDefs.h"
7	4397	18	#pragma macro 6
7	4397	18		setin __constVal14, __SetSensorColorRed_7qG2_port_7qG2_000_inline_InicializaSensores, 0
7	4397	22		setin __constVal128, __SetSensorColorRed_7qG2_port_7qG2_000_inline_InicializaSensores, 1
7	4397	26		mov __ResetSensorPort, __SetSensorColorRed_7qG2_port_7qG2_000_inline_InicializaSensores
7	4397	28		subcall __ResetSensorSubroutine, ____ResetSensorSubroutine_return
7	5016	30	#line 5016 "NXCDefs.h"
7	4396	30	#line 4396 "NXCDefs.h"
7	148	30	#line 148 "C:\Users\luan\Documents\GitHub\Droid\sekksi2016\tentativa2\consultor.nxc"
7	148	30	#line 148 "C:\Users\luan\Documents\GitHub\Droid\sekksi2016\tentativa2\consultor.nxc"
7	149	30		set __SetSensorColorGreen_7qG2_port_7qG2_000_inline_InicializaSensores, 2
7	148	33	#line 148 "C:\Users\luan\Documents\GitHub\Droid\sekksi2016\tentativa2\consultor.nxc"
7	4406	33	#line 4406 "NXCDefs.h"
7	4407	33	#pragma macro 6
7	4407	33		setin __constVal15, __SetSensorColorGreen_7qG2_port_7qG2_000_inline_InicializaSensores, 0
7	4407	37		setin __constVal128, __SetSensorColorGreen_7qG2_port_7qG2_000_inline_InicializaSensores, 1
7	4407	41		mov __ResetSensorPort, __SetSensorColorGreen_7qG2_port_7qG2_000_inline_InicializaSensores
7	4407	43		subcall __ResetSensorSubroutine, ____ResetSensorSubroutine_return
7	5028	45	#line 5028 "NXCDefs.h"
7	4406	45	#line 4406 "NXCDefs.h"
7	149	45	#line 149 "C:\Users\luan\Documents\GitHub\Droid\sekksi2016\tentativa2\consultor.nxc"
7	149	45	#line 149 "C:\Users\luan\Documents\GitHub\Droid\sekksi2016\tentativa2\consultor.nxc"
7	150	45		set __SetSensorLowspeed_7qG2_port_7qG2_000_inline_InicializaSensores, 3
7	149	48	#line 149 "C:\Users\luan\Documents\GitHub\Droid\sekksi2016\tentativa2\consultor.nxc"
7	150	48	#line 150 "C:\Users\luan\Documents\GitHub\Droid\sekksi2016\tentativa2\consultor.nxc"
7	151	48		mov __SetSensorLowspeed_7qG2_bIsPowered_7qG2_000_inline_InicializaSensores, __constVal1
7	4342	50	#line 4342 "NXCDefs.h"
7	4343	50		mov __SetSensorType_7qG2_port_7qG2_000_inline_SetSensorLowspeed_inline_InicializaSensores, __SetSensorLowspeed_7qG2_port_7qG2_000_inline_InicializaSensores
7	4342	52	#line 4342 "NXCDefs.h"
7	4342	52	#line 4342 "NXCDefs.h"
7	4343	52		mov __DU0SetSensorLowspeed_inline_InicializaSensores, __SetSensorLowspeed_7qG2_bIsPowered_7qG2_000_inline_InicializaSensores
7	4342	54	#line 4342 "NXCDefs.h"
7	4343	54		tst 5, __D0SetSensorLowspeed_inline_InicializaSensores, __DU0SetSensorLowspeed_inline_InicializaSensores
7	4342	57	#line 4342 "NXCDefs.h"
7	4343	57		brtst 4, __004__ASM_Label_36, __D0SetSensorLowspeed_inline_InicializaSensores
7	4342	60	#line 4342 "NXCDefs.h"
7	4343	60		set __DU0SetSensorLowspeed_inline_InicializaSensores, 11
7	4342	63	#line 4342 "NXCDefs.h"
7	4342	63	#line 4342 "NXCDefs.h"
7	4343	63		jmp __004__ASM_Label_37
7	4342	65	#line 4342 "NXCDefs.h"
7	4343	65		set __DU0SetSensorLowspeed_inline_InicializaSensores, 10
7	4342	68	#line 4342 "NXCDefs.h"
7	4342	68	#line 4342 "NXCDefs.h"
7	4343	68		mov __SetSensorType_7qG2_type_7qG2_000_inline_SetSensorLowspeed_inline_InicializaSensores, __DU0SetSensorLowspeed_inline_InicializaSensores
7	4247	70	#line 4247 "NXCDefs.h"
7	4248	70		setin __SetSensorType_7qG2_type_7qG2_000_inline_SetSensorLowspeed_inline_InicializaSensores, __SetSensorType_7qG2_port_7qG2_000_inline_SetSensorLowspeed_inline_InicializaSensores, 0
7	4247	74	#line 4247 "NXCDefs.h"
7	4343	74	#line 4343 "NXCDefs.h"
7	4343	74	#line 4343 "NXCDefs.h"
7	4344	74		mov __SetSensorMode_7qG2_port_7qG2_000_inline_SetSensorLowspeed_inline_InicializaSensores, __SetSensorLowspeed_7qG2_port_7qG2_000_inline_InicializaSensores
7	4343	76	#line 4343 "NXCDefs.h"
7	4343	76	#line 4343 "NXCDefs.h"
7	4344	76		set __SetSensorMode_7qG2_mode_7qG2_000_inline_SetSensorLowspeed_inline_InicializaSensores, 0
7	4343	79	#line 4343 "NXCDefs.h"
7	4260	79	#line 4260 "NXCDefs.h"
7	4261	79		setin __SetSensorMode_7qG2_mode_7qG2_000_inline_SetSensorLowspeed_inline_InicializaSensores, __SetSensorMode_7qG2_port_7qG2_000_inline_SetSensorLowspeed_inline_InicializaSensores, 1
7	4260	83	#line 4260 "NXCDefs.h"
7	4344	83	#line 4344 "NXCDefs.h"
7	4344	83	#line 4344 "NXCDefs.h"
7	4344	83	#line 4344 "NXCDefs.h"
7	4278	83	#line 4278 "NXCDefs.h"
7	4279	83	#pragma macro 4
7	4279	83		mov __ResetSensorPort, __SetSensorLowspeed_7qG2_port_7qG2_000_inline_InicializaSensores
7	4279	85		subcall __ResetSensorSubroutine, ____ResetSensorSubroutine_return
7	5118	87	#line 5118 "NXCDefs.h"
7	4278	87	#line 4278 "NXCDefs.h"
7	4345	87	#line 4345 "NXCDefs.h"
7	150	87	#line 150 "C:\Users\luan\Documents\GitHub\Droid\sekksi2016\tentativa2\consultor.nxc"
7	152	87	#line 152 "C:\Users\luan\Documents\GitHub\Droid\sekksi2016\tentativa2\consultor.nxc"
7	153	87		subret __InicializaSensores_return
8	157	0	#line 157 "C:\Users\luan\Documents\GitHub\Droid\sekksi2016\tentativa2\consultor.nxc"
8	158	0		subcall RecebeBoneco, __RecebeBoneco_return
8	157	2	#line 157 "C:\Users\luan\Documents\GitHub\Droid\sekksi2016\tentativa2\consultor.nxc"
8	158	2		mov bonecoAlvo, __D0RecebeBoneco
8	157	4	#line 157 "C:\Users\luan\Documents\GitHub\Droid\sekksi2016\tentativa2\consultor.nxc"
8	157	4	#line 157 "C:\Users\luan\Documents\GitHub\Droid\sekksi2016\tentativa2\consultor.nxc"
8	157	4	#line 157 "C:\Users\luan\Documents\GitHub\Droid\sekksi2016\tentativa2\consultor.nxc"
8	158	4		mov __signed_stack_001BonecoAlvo, bonecoAlvo
8	157	6	#line 157 "C:\Users\luan\Documents\GitHub\Droid\sekksi2016\tentativa2\consultor.nxc"
8	158	6	#line 158 "C:\Users\luan\Documents\GitHub\Droid\sekksi2016\tentativa2\consultor.nxc"
8	159	6		set __D0BonecoAlvo, 2
8	158	9	#line 158 "C:\Users\luan\Documents\GitHub\Droid\sekksi2016\tentativa2\consultor.nxc"
8	159	9		cmp 4, __D0BonecoAlvo, __signed_stack_001BonecoAlvo, __D0BonecoAlvo
8	159	13	#line 159 "C:\Users\luan\Documents\GitHub\Droid\sekksi2016\tentativa2\consultor.nxc"
8	160	13		brtst 4, __ASM_Label_511, __D0BonecoAlvo
8	160	16	#line 160 "C:\Users\luan\Documents\GitHub\Droid\sekksi2016\tentativa2\consultor.nxc"
8	161	16		subcall BipPreto, __BipPreto_return
8	160	18	#line 160 "C:\Users\luan\Documents\GitHub\Droid\sekksi2016\tentativa2\consultor.nxc"
8	161	18	#line 161 "C:\Users\luan\Documents\GitHub\Droid\sekksi2016\tentativa2\consultor.nxc"
8	162	18		set bonecoNaoAlvo, 1
8	161	21	#line 161 "C:\Users\luan\Documents\GitHub\Droid\sekksi2016\tentativa2\consultor.nxc"
8	161	21	#line 161 "C:\Users\luan\Documents\GitHub\Droid\sekksi2016\tentativa2\consultor.nxc"
8	162	21	#line 162 "C:\Users\luan\Documents\GitHub\Droid\sekksi2016\tentativa2\consultor.nxc"
8	163	21		jmp __ASM_Label_514
8	162	23	#line 162 "C:\Users\luan\Documents\GitHub\Droid\sekksi2016\tentativa2\consultor.nxc"
8	163	23		mov __signed_stack_001BonecoAlvo, bonecoAlvo
8	162	25	#line 162 "C:\Users\luan\Documents\GitHub\Droid\sekksi2016\tentativa2\consultor.nxc"
8	163	25	#line 163 "C:\Users\luan\Documents\GitHub\Droid\sekksi2016\tentativa2\consultor.nxc"
8	164	25		set __D0BonecoAlvo, 1
8	163	28	#line 163 "C:\Users\luan\Documents\GitHub\Droid\sekksi2016\tentativa2\consultor.nxc"
8	164	28		cmp 4, __D0BonecoAlvo, __signed_stack_001BonecoAlvo, __D0BonecoAlvo
8	164	32	#line 164 "C:\Users\luan\Documents\GitHub\Droid\sekksi2016\tentativa2\consultor.nxc"
8	165	32		brtst 4, __ASM_Label_517, __D0BonecoAlvo
8	165	35	#line 165 "C:\Users\luan\Documents\GitHub\Droid\sekksi2016\tentativa2\consultor.nxc"
8	166	35		subcall BipBranco, __BipBranco_return
8	165	37	#line 165 "C:\Users\luan\Documents\GitHub\Droid\sekksi2016\tentativa2\consultor.nxc"
8	166	37	#line 166 "C:\Users\luan\Documents\GitHub\Droid\sekksi2016\tentativa2\consultor.nxc"
8	167	37		set bonecoNaoAlvo, 2
8	166	40	#line 166 "C:\Users\luan\Documents\GitHub\Droid\sekksi2016\tentativa2\consultor.nxc"
8	166	40	#line 166 "C:\Users\luan\Documents\GitHub\Droid\sekksi2016\tentativa2\consultor.nxc"
8	169	40	#line 169 "C:\Users\luan\Documents\GitHub\Droid\sekksi2016\tentativa2\consultor.nxc"
8	169	40	#line 169 "C:\Users\luan\Documents\GitHub\Droid\sekksi2016\tentativa2\consultor.nxc"
8	169	40	#line 169 "C:\Users\luan\Documents\GitHub\Droid\sekksi2016\tentativa2\consultor.nxc"
8	170	40		subret __BonecoAlvo_return
9	175	0	#line 175 "C:\Users\luan\Documents\GitHub\Droid\sekksi2016\tentativa2\consultor.nxc"
9	176	0		set __lerSensor_7qG2_sensor_7qG2_000, 0
9	175	3	#line 175 "C:\Users\luan\Documents\GitHub\Droid\sekksi2016\tentativa2\consultor.nxc"
9	176	3	#line 176 "C:\Users\luan\Documents\GitHub\Droid\sekksi2016\tentativa2\consultor.nxc"
9	177	3		subcall lerSensor, __lerSensor_return
9	176	5	#line 176 "C:\Users\luan\Documents\GitHub\Droid\sekksi2016\tentativa2\consultor.nxc"
9	177	5		mov __TemBoneco_7qG2_rgb_dir_7qG2_000, __D0lerSensor
9	176	7	#line 176 "C:\Users\luan\Documents\GitHub\Droid\sekksi2016\tentativa2\consultor.nxc"
9	176	7	#line 176 "C:\Users\luan\Documents\GitHub\Droid\sekksi2016\tentativa2\consultor.nxc"
9	176	7	#line 176 "C:\Users\luan\Documents\GitHub\Droid\sekksi2016\tentativa2\consultor.nxc"
9	177	7		set __lerSensor_7qG2_sensor_7qG2_000, 1
9	176	10	#line 176 "C:\Users\luan\Documents\GitHub\Droid\sekksi2016\tentativa2\consultor.nxc"
9	181	10	#line 181 "C:\Users\luan\Documents\GitHub\Droid\sekksi2016\tentativa2\consultor.nxc"
9	182	10		subcall lerSensor, __lerSensor_return
9	181	12	#line 181 "C:\Users\luan\Documents\GitHub\Droid\sekksi2016\tentativa2\consultor.nxc"
9	182	12		mov __TemBoneco_7qG2_rgb_esq_7qG2_000, __D0lerSensor
9	181	14	#line 181 "C:\Users\luan\Documents\GitHub\Droid\sekksi2016\tentativa2\consultor.nxc"
9	181	14	#line 181 "C:\Users\luan\Documents\GitHub\Droid\sekksi2016\tentativa2\consultor.nxc"
9	181	14	#line 181 "C:\Users\luan\Documents\GitHub\Droid\sekksi2016\tentativa2\consultor.nxc"
9	182	14		mov __signed_stack_001TemBoneco, __TemBoneco_7qG2_rgb_dir_7qG2_000
9	181	16	#line 181 "C:\Users\luan\Documents\GitHub\Droid\sekksi2016\tentativa2\consultor.nxc"
9	181	16	#line 181 "C:\Users\luan\Documents\GitHub\Droid\sekksi2016\tentativa2\consultor.nxc"
9	182	16		set __D0TemBoneco, 702
9	181	19	#line 181 "C:\Users\luan\Documents\GitHub\Droid\sekksi2016\tentativa2\consultor.nxc"
9	182	19		cmp 0, __D0TemBoneco, __signed_stack_001TemBoneco, __D0TemBoneco
9	181	23	#line 181 "C:\Users\luan\Documents\GitHub\Droid\sekksi2016\tentativa2\consultor.nxc"
9	182	23		brtst 4, __ASM_Label_531, __D0TemBoneco
9	181	26	#line 181 "C:\Users\luan\Documents\GitHub\Droid\sekksi2016\tentativa2\consultor.nxc"
9	182	26		mov __signed_stack_001TemBoneco, __TemBoneco_7qG2_rgb_dir_7qG2_000
9	181	28	#line 181 "C:\Users\luan\Documents\GitHub\Droid\sekksi2016\tentativa2\consultor.nxc"
9	181	28	#line 181 "C:\Users\luan\Documents\GitHub\Droid\sekksi2016\tentativa2\consultor.nxc"
9	182	28		set __D0TemBoneco, 593
9	181	31	#line 181 "C:\Users\luan\Documents\GitHub\Droid\sekksi2016\tentativa2\consultor.nxc"
9	182	31		cmp 1, __D0TemBoneco, __signed_stack_001TemBoneco, __D0TemBoneco
9	181	35	#line 181 "C:\Users\luan\Documents\GitHub\Droid\sekksi2016\tentativa2\consultor.nxc"
9	182	35		brtst 4, __ASM_Label_529, __D0TemBoneco
9	181	38	#line 181 "C:\Users\luan\Documents\GitHub\Droid\sekksi2016\tentativa2\consultor.nxc"
9	182	38		mov __signed_stack_001TemBoneco, __TemBoneco_7qG2_rgb_esq_7qG2_000
9	181	40	#line 181 "C:\Users\luan\Documents\GitHub\Droid\sekksi2016\tentativa2\consultor.nxc"
9	181	40	#line 181 "C:\Users\luan\Documents\GitHub\Droid\sekksi2016\tentativa2\consultor.nxc"
9	182	40		set __D0TemBoneco, 453
9	181	43	#line 181 "C:\Users\luan\Documents\GitHub\Droid\sekksi2016\tentativa2\consultor.nxc"
9	182	43		cmp 0, __D0TemBoneco, __signed_stack_001TemBoneco, __D0TemBoneco
9	181	47	#line 181 "C:\Users\luan\Documents\GitHub\Droid\sekksi2016\tentativa2\consultor.nxc"
9	182	47		brtst 4, __ASM_Label_537, __D0TemBoneco
9	181	50	#line 181 "C:\Users\luan\Documents\GitHub\Droid\sekksi2016\tentativa2\consultor.nxc"
9	182	50		mov __signed_stack_001TemBoneco, __TemBoneco_7qG2_rgb_esq_7qG2_000
9	181	52	#line 181 "C:\Users\luan\Documents\GitHub\Droid\sekksi2016\tentativa2\consultor.nxc"
9	181	52	#line 181 "C:\Users\luan\Documents\GitHub\Droid\sekksi2016\tentativa2\consultor.nxc"
9	182	52		set __D0TemBoneco, 348
9	181	55	#line 181 "C:\Users\luan\Documents\GitHub\Droid\sekksi2016\tentativa2\consultor.nxc"
9	182	55		cmp 1, __D0TemBoneco, __signed_stack_001TemBoneco, __D0TemBoneco
9	182	59	#line 182 "C:\Users\luan\Documents\GitHub\Droid\sekksi2016\tentativa2\consultor.nxc"
9	183	59		brtst 4, __ASM_Label_542, __D0TemBoneco
9	183	62	#line 183 "C:\Users\luan\Documents\GitHub\Droid\sekksi2016\tentativa2\consultor.nxc"
9	184	62		set __D0TemBoneco, 0
9	183	65	#line 183 "C:\Users\luan\Documents\GitHub\Droid\sekksi2016\tentativa2\consultor.nxc"
9	184	65		subret __TemBoneco_return
9	183	67	#line 183 "C:\Users\luan\Documents\GitHub\Droid\sekksi2016\tentativa2\consultor.nxc"
9	183	67	#line 183 "C:\Users\luan\Documents\GitHub\Droid\sekksi2016\tentativa2\consultor.nxc"
9	184	67	#line 184 "C:\Users\luan\Documents\GitHub\Droid\sekksi2016\tentativa2\consultor.nxc"
9	185	67		set __D0TemBoneco, 1
9	184	70	#line 184 "C:\Users\luan\Documents\GitHub\Droid\sekksi2016\tentativa2\consultor.nxc"
9	185	70		subret __TemBoneco_return
9	184	72	#line 184 "C:\Users\luan\Documents\GitHub\Droid\sekksi2016\tentativa2\consultor.nxc"
9	186	72	#line 186 "C:\Users\luan\Documents\GitHub\Droid\sekksi2016\tentativa2\consultor.nxc"
9	187	72		subret __TemBoneco_return
10	218	0	#line 218 "C:\Users\luan\Documents\GitHub\Droid\sekksi2016\tentativa2\consultor.nxc"
10	218	0	#line 218 "C:\Users\luan\Documents\GitHub\Droid\sekksi2016\tentativa2\consultor.nxc"
10	220	0	#line 220 "C:\Users\luan\Documents\GitHub\Droid\sekksi2016\tentativa2\consultor.nxc"
10	221	0		set __D0RecebeBoneco, 1
10	220	3	#line 220 "C:\Users\luan\Documents\GitHub\Droid\sekksi2016\tentativa2\consultor.nxc"
10	221	3		subret __RecebeBoneco_return
10	220	5	#line 220 "C:\Users\luan\Documents\GitHub\Droid\sekksi2016\tentativa2\consultor.nxc"
10	222	5	#line 222 "C:\Users\luan\Documents\GitHub\Droid\sekksi2016\tentativa2\consultor.nxc"
10	223	5		subret __RecebeBoneco_return
11	237	0	#line 237 "C:\Users\luan\Documents\GitHub\Droid\sekksi2016\tentativa2\consultor.nxc"
11	238	0		arrinit __lerSensor_7qG2_leitura_7qG2_000, __constVal0, __constVal11
11	237	4	#line 237 "C:\Users\luan\Documents\GitHub\Droid\sekksi2016\tentativa2\consultor.nxc"
11	238	4		set __lerSensor_7qG2_i_7qG2_000, 0
11	237	7	#line 237 "C:\Users\luan\Documents\GitHub\Droid\sekksi2016\tentativa2\consultor.nxc"
11	237	7	#line 237 "C:\Users\luan\Documents\GitHub\Droid\sekksi2016\tentativa2\consultor.nxc"
11	238	7		mov __signed_stack_001lerSensor, __lerSensor_7qG2_i_7qG2_000
11	237	9	#line 237 "C:\Users\luan\Documents\GitHub\Droid\sekksi2016\tentativa2\consultor.nxc"
11	237	9	#line 237 "C:\Users\luan\Documents\GitHub\Droid\sekksi2016\tentativa2\consultor.nxc"
11	238	9		set __D0lerSensor, 11
11	237	12	#line 237 "C:\Users\luan\Documents\GitHub\Droid\sekksi2016\tentativa2\consultor.nxc"
11	238	12		cmp 0, __D0lerSensor, __signed_stack_001lerSensor, __D0lerSensor
11	237	16	#line 237 "C:\Users\luan\Documents\GitHub\Droid\sekksi2016\tentativa2\consultor.nxc"
11	238	16		brtst 4, __ASM_Label_580, __D0lerSensor
11	237	19	#line 237 "C:\Users\luan\Documents\GitHub\Droid\sekksi2016\tentativa2\consultor.nxc"
11	238	19		jmp __ASM_Label_581
11	237	21	#line 237 "C:\Users\luan\Documents\GitHub\Droid\sekksi2016\tentativa2\consultor.nxc"
11	238	21		add __lerSensor_7qG2_i_7qG2_000, __lerSensor_7qG2_i_7qG2_000, __constVal1
11	238	25	#line 238 "C:\Users\luan\Documents\GitHub\Droid\sekksi2016\tentativa2\consultor.nxc"
11	239	25		jmp __ASM_Label_579
11	240	27	#line 240 "C:\Users\luan\Documents\GitHub\Droid\sekksi2016\tentativa2\consultor.nxc"
11	241	27		getin __lerSensor_7qG2_aux_7qG2_000, __lerSensor_7qG2_sensor_7qG2_000, 2
11	240	31	#line 240 "C:\Users\luan\Documents\GitHub\Droid\sekksi2016\tentativa2\consultor.nxc"
11	240	31	#line 240 "C:\Users\luan\Documents\GitHub\Droid\sekksi2016\tentativa2\consultor.nxc"
11	241	31	#line 241 "C:\Users\luan\Documents\GitHub\Droid\sekksi2016\tentativa2\consultor.nxc"
11	242	31		set __lerSensor_7qG2_j_7qG2_000, 0
11	241	34	#line 241 "C:\Users\luan\Documents\GitHub\Droid\sekksi2016\tentativa2\consultor.nxc"
11	241	34	#line 241 "C:\Users\luan\Documents\GitHub\Droid\sekksi2016\tentativa2\consultor.nxc"
11	241	34	#line 241 "C:\Users\luan\Documents\GitHub\Droid\sekksi2016\tentativa2\consultor.nxc"
11	242	34		mov __signed_stack_001lerSensor, __lerSensor_7qG2_aux_7qG2_000
11	241	36	#line 241 "C:\Users\luan\Documents\GitHub\Droid\sekksi2016\tentativa2\consultor.nxc"
11	241	36	#line 241 "C:\Users\luan\Documents\GitHub\Droid\sekksi2016\tentativa2\consultor.nxc"
11	242	36		mov __signed_stack_002lerSensor, __lerSensor_7qG2_j_7qG2_000
11	241	38	#line 241 "C:\Users\luan\Documents\GitHub\Droid\sekksi2016\tentativa2\consultor.nxc"
11	241	38	#line 241 "C:\Users\luan\Documents\GitHub\Droid\sekksi2016\tentativa2\consultor.nxc"
11	242	38		index __D0lerSensor, __lerSensor_7qG2_leitura_7qG2_000, __signed_stack_002lerSensor
11	241	42	#line 241 "C:\Users\luan\Documents\GitHub\Droid\sekksi2016\tentativa2\consultor.nxc"
11	241	42	#line 241 "C:\Users\luan\Documents\GitHub\Droid\sekksi2016\tentativa2\consultor.nxc"
11	242	42		cmp 0, __D0lerSensor, __signed_stack_001lerSensor, __D0lerSensor
11	241	46	#line 241 "C:\Users\luan\Documents\GitHub\Droid\sekksi2016\tentativa2\consultor.nxc"
11	242	46		brtst 4, __ASM_Label_594, __D0lerSensor
11	241	49	#line 241 "C:\Users\luan\Documents\GitHub\Droid\sekksi2016\tentativa2\consultor.nxc"
11	242	49		mov __signed_stack_001lerSensor, __lerSensor_7qG2_j_7qG2_000
11	241	51	#line 241 "C:\Users\luan\Documents\GitHub\Droid\sekksi2016\tentativa2\consultor.nxc"
11	242	51	#line 242 "C:\Users\luan\Documents\GitHub\Droid\sekksi2016\tentativa2\consultor.nxc"
11	243	51		mov __D0lerSensor, __lerSensor_7qG2_i_7qG2_000
11	242	53	#line 242 "C:\Users\luan\Documents\GitHub\Droid\sekksi2016\tentativa2\consultor.nxc"
11	243	53		cmp 0, __D0lerSensor, __signed_stack_001lerSensor, __D0lerSensor
11	243	57	#line 243 "C:\Users\luan\Documents\GitHub\Droid\sekksi2016\tentativa2\consultor.nxc"
11	244	57		brtst 4, __ASM_Label_592, __D0lerSensor
11	244	60	#line 244 "C:\Users\luan\Documents\GitHub\Droid\sekksi2016\tentativa2\consultor.nxc"
11	245	60		add __lerSensor_7qG2_j_7qG2_000, __lerSensor_7qG2_j_7qG2_000, __constVal1
11	244	64	#line 244 "C:\Users\luan\Documents\GitHub\Droid\sekksi2016\tentativa2\consultor.nxc"
11	246	64	#line 246 "C:\Users\luan\Documents\GitHub\Droid\sekksi2016\tentativa2\consultor.nxc"
11	247	64		jmp __ASM_Label_591
11	246	66	#line 246 "C:\Users\luan\Documents\GitHub\Droid\sekksi2016\tentativa2\consultor.nxc"
11	246	66	#line 246 "C:\Users\luan\Documents\GitHub\Droid\sekksi2016\tentativa2\consultor.nxc"
11	247	66		mov __signed_stack_001lerSensor, __lerSensor_7qG2_j_7qG2_000
11	246	68	#line 246 "C:\Users\luan\Documents\GitHub\Droid\sekksi2016\tentativa2\consultor.nxc"
11	246	68	#line 246 "C:\Users\luan\Documents\GitHub\Droid\sekksi2016\tentativa2\consultor.nxc"
11	247	68		mov __D0lerSensor, __lerSensor_7qG2_i_7qG2_000
11	246	70	#line 246 "C:\Users\luan\Documents\GitHub\Droid\sekksi2016\tentativa2\consultor.nxc"
11	247	70		cmp 0, __D0lerSensor, __signed_stack_001lerSensor, __D0lerSensor
11	247	74	#line 247 "C:\Users\luan\Documents\GitHub\Droid\sekksi2016\tentativa2\consultor.nxc"
11	248	74		brtst 4, __ASM_Label_599, __D0lerSensor
11	247	77	#line 247 "C:\Users\luan\Documents\GitHub\Droid\sekksi2016\tentativa2\consultor.nxc"
11	248	77		mov __lerSensor_7qG2_k_7qG2_000, __lerSensor_7qG2_i_7qG2_000
11	247	79	#line 247 "C:\Users\luan\Documents\GitHub\Droid\sekksi2016\tentativa2\consultor.nxc"
11	247	79	#line 247 "C:\Users\luan\Documents\GitHub\Droid\sekksi2016\tentativa2\consultor.nxc"
11	248	79		mov __signed_stack_001lerSensor, __lerSensor_7qG2_k_7qG2_000
11	247	81	#line 247 "C:\Users\luan\Documents\GitHub\Droid\sekksi2016\tentativa2\consultor.nxc"
11	247	81	#line 247 "C:\Users\luan\Documents\GitHub\Droid\sekksi2016\tentativa2\consultor.nxc"
11	248	81		mov __D0lerSensor, __lerSensor_7qG2_j_7qG2_000
11	247	83	#line 247 "C:\Users\luan\Documents\GitHub\Droid\sekksi2016\tentativa2\consultor.nxc"
11	248	83		cmp 1, __D0lerSensor, __signed_stack_001lerSensor, __D0lerSensor
11	247	87	#line 247 "C:\Users\luan\Documents\GitHub\Droid\sekksi2016\tentativa2\consultor.nxc"
11	248	87		brtst 4, __ASM_Label_601, __D0lerSensor
11	247	90	#line 247 "C:\Users\luan\Documents\GitHub\Droid\sekksi2016\tentativa2\consultor.nxc"
11	248	90		jmp __ASM_Label_602
11	247	92	#line 247 "C:\Users\luan\Documents\GitHub\Droid\sekksi2016\tentativa2\consultor.nxc"
11	248	92		sub __lerSensor_7qG2_k_7qG2_000, __lerSensor_7qG2_k_7qG2_000, __constVal1
11	248	96	#line 248 "C:\Users\luan\Documents\GitHub\Droid\sekksi2016\tentativa2\consultor.nxc"
11	249	96		jmp __ASM_Label_600
11	248	98	#line 248 "C:\Users\luan\Documents\GitHub\Droid\sekksi2016\tentativa2\consultor.nxc"
11	249	98		mov __signed_stack_001lerSensor, __lerSensor_7qG2_k_7qG2_000
11	248	100	#line 248 "C:\Users\luan\Documents\GitHub\Droid\sekksi2016\tentativa2\consultor.nxc"
11	248	100	#line 248 "C:\Users\luan\Documents\GitHub\Droid\sekksi2016\tentativa2\consultor.nxc"
11	249	100		mov __signed_stack_002lerSensor, __lerSensor_7qG2_k_7qG2_000
11	248	102	#line 248 "C:\Users\luan\Documents\GitHub\Droid\sekksi2016\tentativa2\consultor.nxc"
11	248	102	#line 248 "C:\Users\luan\Documents\GitHub\Droid\sekksi2016\tentativa2\consultor.nxc"
11	249	102		set __D0lerSensor, 1
11	248	105	#line 248 "C:\Users\luan\Documents\GitHub\Droid\sekksi2016\tentativa2\consultor.nxc"
11	249	105		sub __signed_stack_002lerSensor, __signed_stack_002lerSensor, __D0lerSensor
11	248	109	#line 248 "C:\Users\luan\Documents\GitHub\Droid\sekksi2016\tentativa2\consultor.nxc"
11	248	109	#line 248 "C:\Users\luan\Documents\GitHub\Droid\sekksi2016\tentativa2\consultor.nxc"
11	249	109		index __D0lerSensor, __lerSensor_7qG2_leitura_7qG2_000, __signed_stack_002lerSensor
11	248	113	#line 248 "C:\Users\luan\Documents\GitHub\Droid\sekksi2016\tentativa2\consultor.nxc"
11	249	113	#line 249 "C:\Users\luan\Documents\GitHub\Droid\sekksi2016\tentativa2\consultor.nxc"
11	250	113		replace __lerSensor_7qG2_leitura_7qG2_000, __lerSensor_7qG2_leitura_7qG2_000, __signed_stack_001lerSensor, __D0lerSensor
11	249	118	#line 249 "C:\Users\luan\Documents\GitHub\Droid\sekksi2016\tentativa2\consultor.nxc"
11	250	118	#line 250 "C:\Users\luan\Documents\GitHub\Droid\sekksi2016\tentativa2\consultor.nxc"
11	251	118		jmp __ASM_Label_603
11	250	120	#line 250 "C:\Users\luan\Documents\GitHub\Droid\sekksi2016\tentativa2\consultor.nxc"
11	250	120	#line 250 "C:\Users\luan\Documents\GitHub\Droid\sekksi2016\tentativa2\consultor.nxc"
11	251	120		mov __signed_stack_001lerSensor, __lerSensor_7qG2_j_7qG2_000
11	250	122	#line 250 "C:\Users\luan\Documents\GitHub\Droid\sekksi2016\tentativa2\consultor.nxc"
11	251	122	#line 251 "C:\Users\luan\Documents\GitHub\Droid\sekksi2016\tentativa2\consultor.nxc"
11	252	122		mov __D0lerSensor, __lerSensor_7qG2_aux_7qG2_000
11	251	124	#line 251 "C:\Users\luan\Documents\GitHub\Droid\sekksi2016\tentativa2\consultor.nxc"
11	252	124		replace __lerSensor_7qG2_leitura_7qG2_000, __lerSensor_7qG2_leitura_7qG2_000, __signed_stack_001lerSensor, __D0lerSensor
11	251	129	#line 251 "C:\Users\luan\Documents\GitHub\Droid\sekksi2016\tentativa2\consultor.nxc"
11	253	129	#line 253 "C:\Users\luan\Documents\GitHub\Droid\sekksi2016\tentativa2\consultor.nxc"
11	254	129		jmp __ASM_Label_618
11	253	131	#line 253 "C:\Users\luan\Documents\GitHub\Droid\sekksi2016\tentativa2\consultor.nxc"
11	254	131		mov __signed_stack_001lerSensor, __lerSensor_7qG2_i_7qG2_000
11	253	133	#line 253 "C:\Users\luan\Documents\GitHub\Droid\sekksi2016\tentativa2\consultor.nxc"
11	254	133	#line 254 "C:\Users\luan\Documents\GitHub\Droid\sekksi2016\tentativa2\consultor.nxc"
11	255	133		mov __D0lerSensor, __lerSensor_7qG2_aux_7qG2_000
11	254	135	#line 254 "C:\Users\luan\Documents\GitHub\Droid\sekksi2016\tentativa2\consultor.nxc"
11	255	135		replace __lerSensor_7qG2_leitura_7qG2_000, __lerSensor_7qG2_leitura_7qG2_000, __signed_stack_001lerSensor, __D0lerSensor
11	254	140	#line 254 "C:\Users\luan\Documents\GitHub\Droid\sekksi2016\tentativa2\consultor.nxc"
11	257	140	#line 257 "C:\Users\luan\Documents\GitHub\Droid\sekksi2016\tentativa2\consultor.nxc"
11	257	140	#line 257 "C:\Users\luan\Documents\GitHub\Droid\sekksi2016\tentativa2\consultor.nxc"
11	258	140		jmp __ASM_Label_582
11	257	142	#line 257 "C:\Users\luan\Documents\GitHub\Droid\sekksi2016\tentativa2\consultor.nxc"
11	257	142	#line 257 "C:\Users\luan\Documents\GitHub\Droid\sekksi2016\tentativa2\consultor.nxc"
11	258	142		set __signed_stack_001lerSensor, 5
11	257	145	#line 257 "C:\Users\luan\Documents\GitHub\Droid\sekksi2016\tentativa2\consultor.nxc"
11	257	145	#line 257 "C:\Users\luan\Documents\GitHub\Droid\sekksi2016\tentativa2\consultor.nxc"
11	258	145		index __D0lerSensor, __lerSensor_7qG2_leitura_7qG2_000, __signed_stack_001lerSensor
11	257	149	#line 257 "C:\Users\luan\Documents\GitHub\Droid\sekksi2016\tentativa2\consultor.nxc"
11	258	149	#line 258 "C:\Users\luan\Documents\GitHub\Droid\sekksi2016\tentativa2\consultor.nxc"
11	259	149		subret __lerSensor_return
11	258	151	#line 258 "C:\Users\luan\Documents\GitHub\Droid\sekksi2016\tentativa2\consultor.nxc"
11	260	151	#line 260 "C:\Users\luan\Documents\GitHub\Droid\sekksi2016\tentativa2\consultor.nxc"
11	261	151		subret __lerSensor_return
12	264	0	#line 264 "C:\Users\luan\Documents\GitHub\Droid\sekksi2016\tentativa2\consultor.nxc"
12	265	0		mov __D0PegaBoneco, __constValNeg30
12	265	2	#line 265 "C:\Users\luan\Documents\GitHub\Droid\sekksi2016\tentativa2\consultor.nxc"
12	266	2	#pragma macro 7
12	266	2		setout __constVal0, 2, __D0PegaBoneco, 1, __constVal3, 8, __constVal0, 6, __constVal32, 7, __constVal0, 5, __constVal0, 10, __constVal96, 11, __constVal32, 12, __constVal32, 0, __constVal63
12	5727	25	#line 5727 "C:\Users\luan\Documents\GitHub\Droid\sekksi2016\tentativa2\consultor.nxc"
12	265	25	#line 265 "C:\Users\luan\Documents\GitHub\Droid\sekksi2016\tentativa2\consultor.nxc"
12	267	25	#line 267 "C:\Users\luan\Documents\GitHub\Droid\sekksi2016\tentativa2\consultor.nxc"
12	268	25		getout __PegaBoneco_7qG2_tc_7qG2_000, __constVal0, 4
12	267	29	#line 267 "C:\Users\luan\Documents\GitHub\Droid\sekksi2016\tentativa2\consultor.nxc"
12	267	29	#line 267 "C:\Users\luan\Documents\GitHub\Droid\sekksi2016\tentativa2\consultor.nxc"
12	269	29	#line 269 "C:\Users\luan\Documents\GitHub\Droid\sekksi2016\tentativa2\consultor.nxc"
12	270	29		set __Wait_7qG2_ms_7qG2_000_inline_PegaBoneco, 200
12	269	32	#line 269 "C:\Users\luan\Documents\GitHub\Droid\sekksi2016\tentativa2\consultor.nxc"
12	8551	32	#line 8551 "NXCDefs.h"
12	8552	32		wait2 NA, __Wait_7qG2_ms_7qG2_000_inline_PegaBoneco
12	8551	35	#line 8551 "NXCDefs.h"
12	270	35	#line 270 "C:\Users\luan\Documents\GitHub\Droid\sekksi2016\tentativa2\consultor.nxc"
12	271	35	#line 271 "C:\Users\luan\Documents\GitHub\Droid\sekksi2016\tentativa2\consultor.nxc"
12	272	35		mov __PegaBoneco_7qG2_old_tc_7qG2_000, __PegaBoneco_7qG2_tc_7qG2_000
12	271	37	#line 271 "C:\Users\luan\Documents\GitHub\Droid\sekksi2016\tentativa2\consultor.nxc"
12	271	37	#line 271 "C:\Users\luan\Documents\GitHub\Droid\sekksi2016\tentativa2\consultor.nxc"
12	272	37	#line 272 "C:\Users\luan\Documents\GitHub\Droid\sekksi2016\tentativa2\consultor.nxc"
12	273	37		getout __PegaBoneco_7qG2_tc_7qG2_000, __constVal0, 4
12	272	41	#line 272 "C:\Users\luan\Documents\GitHub\Droid\sekksi2016\tentativa2\consultor.nxc"
12	272	41	#line 272 "C:\Users\luan\Documents\GitHub\Droid\sekksi2016\tentativa2\consultor.nxc"
12	272	41	#line 272 "C:\Users\luan\Documents\GitHub\Droid\sekksi2016\tentativa2\consultor.nxc"
12	273	41		mov __signed_stack_001PegaBoneco, __PegaBoneco_7qG2_tc_7qG2_000
12	272	43	#line 272 "C:\Users\luan\Documents\GitHub\Droid\sekksi2016\tentativa2\consultor.nxc"
12	273	43	#line 273 "C:\Users\luan\Documents\GitHub\Droid\sekksi2016\tentativa2\consultor.nxc"
12	274	43		mov __D0PegaBoneco, __constValNeg125
12	273	45	#line 273 "C:\Users\luan\Documents\GitHub\Droid\sekksi2016\tentativa2\consultor.nxc"
12	274	45		cmp 0, __D0PegaBoneco, __signed_stack_001PegaBoneco, __D0PegaBoneco
12	274	49	#line 274 "C:\Users\luan\Documents\GitHub\Droid\sekksi2016\tentativa2\consultor.nxc"
12	275	49		brtst 4, __ASM_Label_643, __D0PegaBoneco
12	274	52	#line 274 "C:\Users\luan\Documents\GitHub\Droid\sekksi2016\tentativa2\consultor.nxc"
12	275	52		set __D0PegaBoneco, 0
12	276	55	#line 276 "C:\Users\luan\Documents\GitHub\Droid\sekksi2016\tentativa2\consultor.nxc"
12	277	55	#pragma macro 7
12	277	55		setout __constVal0, 2, __D0PegaBoneco, 1, __constVal3, 8, __constVal0, 6, __constVal32, 7, __constVal0, 5, __constVal0, 10, __constVal96, 11, __constVal32, 12, __constVal32, 0, __constVal63
12	5780	78	#line 5780 "C:\Users\luan\Documents\GitHub\Droid\sekksi2016\tentativa2\consultor.nxc"
12	276	78	#line 276 "C:\Users\luan\Documents\GitHub\Droid\sekksi2016\tentativa2\consultor.nxc"
12	277	78	#line 277 "C:\Users\luan\Documents\GitHub\Droid\sekksi2016\tentativa2\consultor.nxc"
12	278	78		subcall VoltaGarra, __VoltaGarra_return
12	277	80	#line 277 "C:\Users\luan\Documents\GitHub\Droid\sekksi2016\tentativa2\consultor.nxc"
12	278	80	#line 278 "C:\Users\luan\Documents\GitHub\Droid\sekksi2016\tentativa2\consultor.nxc"
12	279	80		set __D0PegaBoneco, 0
12	278	83	#line 278 "C:\Users\luan\Documents\GitHub\Droid\sekksi2016\tentativa2\consultor.nxc"
12	279	83		subret __PegaBoneco_return
12	278	85	#line 278 "C:\Users\luan\Documents\GitHub\Droid\sekksi2016\tentativa2\consultor.nxc"
12	279	85	#line 279 "C:\Users\luan\Documents\GitHub\Droid\sekksi2016\tentativa2\consultor.nxc"
12	279	85	#line 279 "C:\Users\luan\Documents\GitHub\Droid\sekksi2016\tentativa2\consultor.nxc"
12	280	85		mov __signed_stack_001PegaBoneco, __PegaBoneco_7qG2_tc_7qG2_000
12	279	87	#line 279 "C:\Users\luan\Documents\GitHub\Droid\sekksi2016\tentativa2\consultor.nxc"
12	279	87	#line 279 "C:\Users\luan\Documents\GitHub\Droid\sekksi2016\tentativa2\consultor.nxc"
12	280	87		mov __D0PegaBoneco, __PegaBoneco_7qG2_old_tc_7qG2_000
12	279	89	#line 279 "C:\Users\luan\Documents\GitHub\Droid\sekksi2016\tentativa2\consultor.nxc"
12	280	89		cmp 5, __D0PegaBoneco, __signed_stack_001PegaBoneco, __D0PegaBoneco
12	281	93	#line 281 "C:\Users\luan\Documents\GitHub\Droid\sekksi2016\tentativa2\consultor.nxc"
12	282	93		brtst 4, __ASM_Label_634, __D0PegaBoneco
12	281	96	#line 281 "C:\Users\luan\Documents\GitHub\Droid\sekksi2016\tentativa2\consultor.nxc"
12	282	96		jmp __ASM_Label_633
12	281	98	#line 281 "C:\Users\luan\Documents\GitHub\Droid\sekksi2016\tentativa2\consultor.nxc"
12	281	98	#line 281 "C:\Users\luan\Documents\GitHub\Droid\sekksi2016\tentativa2\consultor.nxc"
12	281	98	#line 281 "C:\Users\luan\Documents\GitHub\Droid\sekksi2016\tentativa2\consultor.nxc"
12	282	98		set __D0PegaBoneco, 0
12	283	101	#line 283 "C:\Users\luan\Documents\GitHub\Droid\sekksi2016\tentativa2\consultor.nxc"
12	284	101	#pragma macro 7
12	284	101		setout __constVal0, 2, __D0PegaBoneco, 1, __constVal3, 8, __constVal0, 6, __constVal32, 7, __constVal0, 5, __constVal0, 10, __constVal96, 11, __constVal32, 12, __constVal32, 0, __constVal63
12	5814	124	#line 5814 "C:\Users\luan\Documents\GitHub\Droid\sekksi2016\tentativa2\consultor.nxc"
12	283	124	#line 283 "C:\Users\luan\Documents\GitHub\Droid\sekksi2016\tentativa2\consultor.nxc"
12	284	124	#line 284 "C:\Users\luan\Documents\GitHub\Droid\sekksi2016\tentativa2\consultor.nxc"
12	285	124		set __D0PegaBoneco, 1
12	284	127	#line 284 "C:\Users\luan\Documents\GitHub\Droid\sekksi2016\tentativa2\consultor.nxc"
12	285	127		subret __PegaBoneco_return
12	284	129	#line 284 "C:\Users\luan\Documents\GitHub\Droid\sekksi2016\tentativa2\consultor.nxc"
12	286	129	#line 286 "C:\Users\luan\Documents\GitHub\Droid\sekksi2016\tentativa2\consultor.nxc"
12	287	129		subret __PegaBoneco_return
13	290	0	#line 290 "C:\Users\luan\Documents\GitHub\Droid\sekksi2016\tentativa2\consultor.nxc"
13	291	0		set __signed_stack_001VoltaGarra, 0
13	290	3	#line 290 "C:\Users\luan\Documents\GitHub\Droid\sekksi2016\tentativa2\consultor.nxc"
13	290	3	#line 290 "C:\Users\luan\Documents\GitHub\Droid\sekksi2016\tentativa2\consultor.nxc"
13	291	3		mov __D0VoltaGarra, __constValNeg30
13	290	5	#line 290 "C:\Users\luan\Documents\GitHub\Droid\sekksi2016\tentativa2\consultor.nxc"
13	291	5		sub __D0VoltaGarra, __signed_stack_001VoltaGarra, __D0VoltaGarra
13	291	9	#line 291 "C:\Users\luan\Documents\GitHub\Droid\sekksi2016\tentativa2\consultor.nxc"
13	292	9	#pragma macro 7
13	292	9		setout __constVal0, 2, __D0VoltaGarra, 1, __constVal3, 8, __constVal0, 6, __constVal32, 7, __constVal0, 5, __constVal0, 10, __constVal96, 11, __constVal32, 12, __constVal32, 0, __constVal63
13	5847	32	#line 5847 "C:\Users\luan\Documents\GitHub\Droid\sekksi2016\tentativa2\consultor.nxc"
13	291	32	#line 291 "C:\Users\luan\Documents\GitHub\Droid\sekksi2016\tentativa2\consultor.nxc"
13	292	32	#line 292 "C:\Users\luan\Documents\GitHub\Droid\sekksi2016\tentativa2\consultor.nxc"
13	293	32		getout __VoltaGarra_7qG2_tc_7qG2_000, __constVal0, 4
13	292	36	#line 292 "C:\Users\luan\Documents\GitHub\Droid\sekksi2016\tentativa2\consultor.nxc"
13	292	36	#line 292 "C:\Users\luan\Documents\GitHub\Droid\sekksi2016\tentativa2\consultor.nxc"
13	294	36	#line 294 "C:\Users\luan\Documents\GitHub\Droid\sekksi2016\tentativa2\consultor.nxc"
13	295	36		set __Wait_7qG2_ms_7qG2_000_inline_VoltaGarra, 200
13	294	39	#line 294 "C:\Users\luan\Documents\GitHub\Droid\sekksi2016\tentativa2\consultor.nxc"
13	8551	39	#line 8551 "NXCDefs.h"
13	8552	39		wait2 NA, __Wait_7qG2_ms_7qG2_000_inline_VoltaGarra
13	8551	42	#line 8551 "NXCDefs.h"
13	295	42	#line 295 "C:\Users\luan\Documents\GitHub\Droid\sekksi2016\tentativa2\consultor.nxc"
13	296	42	#line 296 "C:\Users\luan\Documents\GitHub\Droid\sekksi2016\tentativa2\consultor.nxc"
13	297	42		mov __VoltaGarra_7qG2_old_tc_7qG2_000, __VoltaGarra_7qG2_tc_7qG2_000
13	296	44	#line 296 "C:\Users\luan\Documents\GitHub\Droid\sekksi2016\tentativa2\consultor.nxc"
13	296	44	#line 296 "C:\Users\luan\Documents\GitHub\Droid\sekksi2016\tentativa2\consultor.nxc"
13	297	44	#line 297 "C:\Users\luan\Documents\GitHub\Droid\sekksi2016\tentativa2\consultor.nxc"
13	298	44		getout __VoltaGarra_7qG2_tc_7qG2_000, __constVal0, 4
13	297	48	#line 297 "C:\Users\luan\Documents\GitHub\Droid\sekksi2016\tentativa2\consultor.nxc"
13	297	48	#line 297 "C:\Users\luan\Documents\GitHub\Droid\sekksi2016\tentativa2\consultor.nxc"
13	297	48	#line 297 "C:\Users\luan\Documents\GitHub\Droid\sekksi2016\tentativa2\consultor.nxc"
13	298	48		mov __signed_stack_001VoltaGarra, __VoltaGarra_7qG2_tc_7qG2_000
13	297	50	#line 297 "C:\Users\luan\Documents\GitHub\Droid\sekksi2016\tentativa2\consultor.nxc"
13	297	50	#line 297 "C:\Users\luan\Documents\GitHub\Droid\sekksi2016\tentativa2\consultor.nxc"
13	298	50		mov __D0VoltaGarra, __VoltaGarra_7qG2_old_tc_7qG2_000
13	297	52	#line 297 "C:\Users\luan\Documents\GitHub\Droid\sekksi2016\tentativa2\consultor.nxc"
13	298	52		cmp 5, __D0VoltaGarra, __signed_stack_001VoltaGarra, __D0VoltaGarra
13	299	56	#line 299 "C:\Users\luan\Documents\GitHub\Droid\sekksi2016\tentativa2\consultor.nxc"
13	300	56		brtst 4, __ASM_Label_661, __D0VoltaGarra
13	299	59	#line 299 "C:\Users\luan\Documents\GitHub\Droid\sekksi2016\tentativa2\consultor.nxc"
13	300	59		jmp __ASM_Label_660
13	299	61	#line 299 "C:\Users\luan\Documents\GitHub\Droid\sekksi2016\tentativa2\consultor.nxc"
13	299	61	#line 299 "C:\Users\luan\Documents\GitHub\Droid\sekksi2016\tentativa2\consultor.nxc"
13	299	61	#line 299 "C:\Users\luan\Documents\GitHub\Droid\sekksi2016\tentativa2\consultor.nxc"
13	300	61		set __D0VoltaGarra, 0
13	300	64	#line 300 "C:\Users\luan\Documents\GitHub\Droid\sekksi2016\tentativa2\consultor.nxc"
13	301	64	#pragma macro 7
13	301	64		setout __constVal0, 2, __D0VoltaGarra, 1, __constVal3, 8, __constVal0, 6, __constVal32, 7, __constVal0, 5, __constVal0, 10, __constVal96, 11, __constVal32, 12, __constVal32, 0, __constVal63
13	5905	87	#line 5905 "C:\Users\luan\Documents\GitHub\Droid\sekksi2016\tentativa2\consultor.nxc"
13	300	87	#line 300 "C:\Users\luan\Documents\GitHub\Droid\sekksi2016\tentativa2\consultor.nxc"
13	302	87	#line 302 "C:\Users\luan\Documents\GitHub\Droid\sekksi2016\tentativa2\consultor.nxc"
13	303	87		subret __VoltaGarra_return
14	306	0	#line 306 "C:\Users\luan\Documents\GitHub\Droid\sekksi2016\tentativa2\consultor.nxc"
14	307	0		set __lerSensor_7qG2_sensor_7qG2_000, 2
14	306	3	#line 306 "C:\Users\luan\Documents\GitHub\Droid\sekksi2016\tentativa2\consultor.nxc"
14	308	3	#line 308 "C:\Users\luan\Documents\GitHub\Droid\sekksi2016\tentativa2\consultor.nxc"
14	309	3		subcall lerSensor, __lerSensor_return
14	308	5	#line 308 "C:\Users\luan\Documents\GitHub\Droid\sekksi2016\tentativa2\consultor.nxc"
14	309	5		mov __CorBoneco_7qG2_leitura_7qG2_000, __D0lerSensor
14	308	7	#line 308 "C:\Users\luan\Documents\GitHub\Droid\sekksi2016\tentativa2\consultor.nxc"
14	308	7	#line 308 "C:\Users\luan\Documents\GitHub\Droid\sekksi2016\tentativa2\consultor.nxc"
14	308	7	#line 308 "C:\Users\luan\Documents\GitHub\Droid\sekksi2016\tentativa2\consultor.nxc"
14	309	7		mov __signed_stack_001CorBoneco, __CorBoneco_7qG2_leitura_7qG2_000
14	308	9	#line 308 "C:\Users\luan\Documents\GitHub\Droid\sekksi2016\tentativa2\consultor.nxc"
14	308	9	#line 308 "C:\Users\luan\Documents\GitHub\Droid\sekksi2016\tentativa2\consultor.nxc"
14	309	9		set __D0CorBoneco, 533
14	308	12	#line 308 "C:\Users\luan\Documents\GitHub\Droid\sekksi2016\tentativa2\consultor.nxc"
14	309	12		cmp 0, __D0CorBoneco, __signed_stack_001CorBoneco, __D0CorBoneco
14	308	16	#line 308 "C:\Users\luan\Documents\GitHub\Droid\sekksi2016\tentativa2\consultor.nxc"
14	309	16		brtst 4, __ASM_Label_677, __D0CorBoneco
14	308	19	#line 308 "C:\Users\luan\Documents\GitHub\Droid\sekksi2016\tentativa2\consultor.nxc"
14	309	19		mov __signed_stack_001CorBoneco, __CorBoneco_7qG2_leitura_7qG2_000
14	308	21	#line 308 "C:\Users\luan\Documents\GitHub\Droid\sekksi2016\tentativa2\consultor.nxc"
14	308	21	#line 308 "C:\Users\luan\Documents\GitHub\Droid\sekksi2016\tentativa2\consultor.nxc"
14	309	21		set __D0CorBoneco, 430
14	308	24	#line 308 "C:\Users\luan\Documents\GitHub\Droid\sekksi2016\tentativa2\consultor.nxc"
14	309	24		cmp 1, __D0CorBoneco, __signed_stack_001CorBoneco, __D0CorBoneco
14	310	28	#line 310 "C:\Users\luan\Documents\GitHub\Droid\sekksi2016\tentativa2\consultor.nxc"
14	311	28		brtst 4, __ASM_Label_682, __D0CorBoneco
14	311	31	#line 311 "C:\Users\luan\Documents\GitHub\Droid\sekksi2016\tentativa2\consultor.nxc"
14	312	31		set __D0CorBoneco, 1
14	311	34	#line 311 "C:\Users\luan\Documents\GitHub\Droid\sekksi2016\tentativa2\consultor.nxc"
14	312	34		subret __CorBoneco_return
14	311	36	#line 311 "C:\Users\luan\Documents\GitHub\Droid\sekksi2016\tentativa2\consultor.nxc"
14	312	36	#line 312 "C:\Users\luan\Documents\GitHub\Droid\sekksi2016\tentativa2\consultor.nxc"
14	312	36	#line 312 "C:\Users\luan\Documents\GitHub\Droid\sekksi2016\tentativa2\consultor.nxc"
14	313	36		mov __signed_stack_001CorBoneco, __CorBoneco_7qG2_leitura_7qG2_000
14	312	38	#line 312 "C:\Users\luan\Documents\GitHub\Droid\sekksi2016\tentativa2\consultor.nxc"
14	312	38	#line 312 "C:\Users\luan\Documents\GitHub\Droid\sekksi2016\tentativa2\consultor.nxc"
14	313	38		set __D0CorBoneco, 164
14	312	41	#line 312 "C:\Users\luan\Documents\GitHub\Droid\sekksi2016\tentativa2\consultor.nxc"
14	313	41		cmp 0, __D0CorBoneco, __signed_stack_001CorBoneco, __D0CorBoneco
14	312	45	#line 312 "C:\Users\luan\Documents\GitHub\Droid\sekksi2016\tentativa2\consultor.nxc"
14	313	45		brtst 4, __ASM_Label_686, __D0CorBoneco
14	312	48	#line 312 "C:\Users\luan\Documents\GitHub\Droid\sekksi2016\tentativa2\consultor.nxc"
14	313	48		mov __signed_stack_001CorBoneco, __CorBoneco_7qG2_leitura_7qG2_000
14	312	50	#line 312 "C:\Users\luan\Documents\GitHub\Droid\sekksi2016\tentativa2\consultor.nxc"
14	312	50	#line 312 "C:\Users\luan\Documents\GitHub\Droid\sekksi2016\tentativa2\consultor.nxc"
14	313	50		set __D0CorBoneco, 124
14	312	53	#line 312 "C:\Users\luan\Documents\GitHub\Droid\sekksi2016\tentativa2\consultor.nxc"
14	313	53		cmp 1, __D0CorBoneco, __signed_stack_001CorBoneco, __D0CorBoneco
14	313	57	#line 313 "C:\Users\luan\Documents\GitHub\Droid\sekksi2016\tentativa2\consultor.nxc"
14	314	57		brtst 4, __ASM_Label_691, __D0CorBoneco
14	314	60	#line 314 "C:\Users\luan\Documents\GitHub\Droid\sekksi2016\tentativa2\consultor.nxc"
14	315	60		set __D0CorBoneco, 2
14	314	63	#line 314 "C:\Users\luan\Documents\GitHub\Droid\sekksi2016\tentativa2\consultor.nxc"
14	315	63		subret __CorBoneco_return
14	314	65	#line 314 "C:\Users\luan\Documents\GitHub\Droid\sekksi2016\tentativa2\consultor.nxc"
14	314	65	#line 314 "C:\Users\luan\Documents\GitHub\Droid\sekksi2016\tentativa2\consultor.nxc"
14	314	65	#line 314 "C:\Users\luan\Documents\GitHub\Droid\sekksi2016\tentativa2\consultor.nxc"
14	315	65		mov __signed_stack_001CorBoneco, __CorBoneco_7qG2_leitura_7qG2_000
14	314	67	#line 314 "C:\Users\luan\Documents\GitHub\Droid\sekksi2016\tentativa2\consultor.nxc"
14	314	67	#line 314 "C:\Users\luan\Documents\GitHub\Droid\sekksi2016\tentativa2\consultor.nxc"
14	315	67		set __D0CorBoneco, 240
14	314	70	#line 314 "C:\Users\luan\Documents\GitHub\Droid\sekksi2016\tentativa2\consultor.nxc"
14	315	70		cmp 0, __D0CorBoneco, __signed_stack_001CorBoneco, __D0CorBoneco
14	314	74	#line 314 "C:\Users\luan\Documents\GitHub\Droid\sekksi2016\tentativa2\consultor.nxc"
14	315	74		brtst 4, __ASM_Label_695, __D0CorBoneco
14	314	77	#line 314 "C:\Users\luan\Documents\GitHub\Droid\sekksi2016\tentativa2\consultor.nxc"
14	315	77		mov __signed_stack_001CorBoneco, __CorBoneco_7qG2_leitura_7qG2_000
14	314	79	#line 314 "C:\Users\luan\Documents\GitHub\Droid\sekksi2016\tentativa2\consultor.nxc"
14	314	79	#line 314 "C:\Users\luan\Documents\GitHub\Droid\sekksi2016\tentativa2\consultor.nxc"
14	315	79		set __D0CorBoneco, 237
14	314	82	#line 314 "C:\Users\luan\Documents\GitHub\Droid\sekksi2016\tentativa2\consultor.nxc"
14	315	82		cmp 1, __D0CorBoneco, __signed_stack_001CorBoneco, __D0CorBoneco
14	315	86	#line 315 "C:\Users\luan\Documents\GitHub\Droid\sekksi2016\tentativa2\consultor.nxc"
14	316	86		brtst 4, __ASM_Label_700, __D0CorBoneco
14	316	89	#line 316 "C:\Users\luan\Documents\GitHub\Droid\sekksi2016\tentativa2\consultor.nxc"
14	317	89		set __D0CorBoneco, 3
14	316	92	#line 316 "C:\Users\luan\Documents\GitHub\Droid\sekksi2016\tentativa2\consultor.nxc"
14	317	92		subret __CorBoneco_return
14	316	94	#line 316 "C:\Users\luan\Documents\GitHub\Droid\sekksi2016\tentativa2\consultor.nxc"
14	318	94	#line 318 "C:\Users\luan\Documents\GitHub\Droid\sekksi2016\tentativa2\consultor.nxc"
14	318	94	#line 318 "C:\Users\luan\Documents\GitHub\Droid\sekksi2016\tentativa2\consultor.nxc"
14	319	94		subret __CorBoneco_return
15	319	0	#line 319 "C:\Users\luan\Documents\GitHub\Droid\sekksi2016\tentativa2\consultor.nxc"
15	320	0		getout __signed_stack_001Pega, __constVal0, 4
15	319	4	#line 319 "C:\Users\luan\Documents\GitHub\Droid\sekksi2016\tentativa2\consultor.nxc"
15	320	4	#line 320 "C:\Users\luan\Documents\GitHub\Droid\sekksi2016\tentativa2\consultor.nxc"
15	321	4		set __D0Pega, 0
15	320	7	#line 320 "C:\Users\luan\Documents\GitHub\Droid\sekksi2016\tentativa2\consultor.nxc"
15	321	7		cmp 5, __D0Pega, __signed_stack_001Pega, __D0Pega
15	321	11	#line 321 "C:\Users\luan\Documents\GitHub\Droid\sekksi2016\tentativa2\consultor.nxc"
15	322	11		brtst 4, __ASM_Label_704, __D0Pega
15	322	14	#line 322 "C:\Users\luan\Documents\GitHub\Droid\sekksi2016\tentativa2\consultor.nxc"
15	323	14	#pragma macro 7
15	323	14		setout __constVal0, 0, __constVal8
15	6061	19	#line 6061 "C:\Users\luan\Documents\GitHub\Droid\sekksi2016\tentativa2\consultor.nxc"
15	322	19	#line 322 "C:\Users\luan\Documents\GitHub\Droid\sekksi2016\tentativa2\consultor.nxc"
15	323	19	#line 323 "C:\Users\luan\Documents\GitHub\Droid\sekksi2016\tentativa2\consultor.nxc"
15	324	19		jmp __ASM_Label_703
15	323	21	#line 323 "C:\Users\luan\Documents\GitHub\Droid\sekksi2016\tentativa2\consultor.nxc"
15	323	21	#line 323 "C:\Users\luan\Documents\GitHub\Droid\sekksi2016\tentativa2\consultor.nxc"
15	324	21		mov __D0Pega, __constValNeg70
15	324	23	#line 324 "C:\Users\luan\Documents\GitHub\Droid\sekksi2016\tentativa2\consultor.nxc"
15	325	23	#pragma macro 7
15	325	23		setout __constVal0, 2, __D0Pega, 1, __constVal3, 8, __constVal0, 6, __constVal32, 7, __constVal0, 5, __constVal0, 10, __constVal96, 11, __constVal32, 12, __constVal32, 0, __constVal63
15	6070	46	#line 6070 "C:\Users\luan\Documents\GitHub\Droid\sekksi2016\tentativa2\consultor.nxc"
15	324	46	#line 324 "C:\Users\luan\Documents\GitHub\Droid\sekksi2016\tentativa2\consultor.nxc"
15	324	46	#line 324 "C:\Users\luan\Documents\GitHub\Droid\sekksi2016\tentativa2\consultor.nxc"
15	325	46		getout __signed_stack_001Pega, __constVal0, 4
15	324	50	#line 324 "C:\Users\luan\Documents\GitHub\Droid\sekksi2016\tentativa2\consultor.nxc"
15	324	50	#line 324 "C:\Users\luan\Documents\GitHub\Droid\sekksi2016\tentativa2\consultor.nxc"
15	325	50		mov __D0Pega, __constValNeg100
15	324	52	#line 324 "C:\Users\luan\Documents\GitHub\Droid\sekksi2016\tentativa2\consultor.nxc"
15	325	52		cmp 1, __D0Pega, __signed_stack_001Pega, __D0Pega
15	325	56	#line 325 "C:\Users\luan\Documents\GitHub\Droid\sekksi2016\tentativa2\consultor.nxc"
15	326	56		brtst 4, __ASM_Label_710, __D0Pega
15	325	59	#line 325 "C:\Users\luan\Documents\GitHub\Droid\sekksi2016\tentativa2\consultor.nxc"
15	325	59	#line 325 "C:\Users\luan\Documents\GitHub\Droid\sekksi2016\tentativa2\consultor.nxc"
15	326	59		jmp __ASM_Label_709
15	325	61	#line 325 "C:\Users\luan\Documents\GitHub\Droid\sekksi2016\tentativa2\consultor.nxc"
15	326	61	#line 326 "C:\Users\luan\Documents\GitHub\Droid\sekksi2016\tentativa2\consultor.nxc"
15	327	61	#pragma macro 7
15	327	61		setout __constVal0, 2, __constVal0, 1, __constVal3, 8, __constVal0, 6, __constVal32, 7, __constVal0, 5, __constVal0, 10, __constVal96, 11, __constVal32, 12, __constVal32, 0, __constVal63
15	6093	84	#line 6093 "C:\Users\luan\Documents\GitHub\Droid\sekksi2016\tentativa2\consultor.nxc"
15	326	84	#line 326 "C:\Users\luan\Documents\GitHub\Droid\sekksi2016\tentativa2\consultor.nxc"
15	326	84	#line 326 "C:\Users\luan\Documents\GitHub\Droid\sekksi2016\tentativa2\consultor.nxc"
15	327	84		set __Wait_7qG2_ms_7qG2_000_inline_Pega, 200
15	326	87	#line 326 "C:\Users\luan\Documents\GitHub\Droid\sekksi2016\tentativa2\consultor.nxc"
15	8551	87	#line 8551 "NXCDefs.h"
15	8552	87		wait2 NA, __Wait_7qG2_ms_7qG2_000_inline_Pega
15	8551	90	#line 8551 "NXCDefs.h"
15	327	90	#line 327 "C:\Users\luan\Documents\GitHub\Droid\sekksi2016\tentativa2\consultor.nxc"
15	328	90	#line 328 "C:\Users\luan\Documents\GitHub\Droid\sekksi2016\tentativa2\consultor.nxc"
15	329	90		subcall VoltaGarra, __VoltaGarra_return
15	328	92	#line 328 "C:\Users\luan\Documents\GitHub\Droid\sekksi2016\tentativa2\consultor.nxc"
15	330	92	#line 330 "C:\Users\luan\Documents\GitHub\Droid\sekksi2016\tentativa2\consultor.nxc"
15	331	92		subret __Pega_return
16	332	0	#line 332 "C:\Users\luan\Documents\GitHub\Droid\sekksi2016\tentativa2\consultor.nxc"
16	333	0	#pragma macro 14
16	333	0		acquire __RemoteMutex
16	333	1		mov __SRSTmpBuf, __DCMessageWritePacket
16	333	3		replace __SRSTmpBuf, __SRSTmpBuf, __constVal2, __constVal1
16	333	8		replace __SRSTmpBuf, __SRSTmpBuf, __constVal3, __constVal5
16	333	13		mov __SRSTmpLongVal, __constVal1
16	333	15		flatten __SRSFlattenBuf, __SRSTmpLongVal
16	333	18		arrbuild __SRSSendBuf, __SRSTmpBuf, __SRSFlattenBuf
16	333	23		acquire __CBTWMutex
16	333	24		mov __CBTWArgs.Connection, __constVal0
16	333	26		mov __CBTWArgs.Buffer, __SRSSendBuf
16	333	28		syscall 29, __CBTWArgs
16	333	31		release __CBTWMutex
16	333	32		release __RemoteMutex
16	6116	33	#line 6116 "C:\Users\luan\Documents\GitHub\Droid\sekksi2016\tentativa2\consultor.nxc"
16	332	33	#line 332 "C:\Users\luan\Documents\GitHub\Droid\sekksi2016\tentativa2\consultor.nxc"
16	332	33	#line 332 "C:\Users\luan\Documents\GitHub\Droid\sekksi2016\tentativa2\consultor.nxc"
16	335	33	#line 335 "C:\Users\luan\Documents\GitHub\Droid\sekksi2016\tentativa2\consultor.nxc"
16	336	33		subret __MandarParar_return
17	337	0	#line 337 "C:\Users\luan\Documents\GitHub\Droid\sekksi2016\tentativa2\consultor.nxc"
17	338	0	#pragma macro 14
17	338	0		acquire __RemoteMutex
17	338	1		mov __SRSTmpBuf, __DCMessageWritePacket
17	338	3		replace __SRSTmpBuf, __SRSTmpBuf, __constVal2, __constVal1
17	338	8		replace __SRSTmpBuf, __SRSTmpBuf, __constVal3, __constVal5
17	338	13		mov __SRSTmpLongVal, __constVal2
17	338	15		flatten __SRSFlattenBuf, __SRSTmpLongVal
17	338	18		arrbuild __SRSSendBuf, __SRSTmpBuf, __SRSFlattenBuf
17	338	23		acquire __CBTWMutex
17	338	24		mov __CBTWArgs.Connection, __constVal0
17	338	26		mov __CBTWArgs.Buffer, __SRSSendBuf
17	338	28		syscall 29, __CBTWArgs
17	338	31		release __CBTWMutex
17	338	32		release __RemoteMutex
17	6125	33	#line 6125 "C:\Users\luan\Documents\GitHub\Droid\sekksi2016\tentativa2\consultor.nxc"
17	337	33	#line 337 "C:\Users\luan\Documents\GitHub\Droid\sekksi2016\tentativa2\consultor.nxc"
17	337	33	#line 337 "C:\Users\luan\Documents\GitHub\Droid\sekksi2016\tentativa2\consultor.nxc"
17	340	33	#line 340 "C:\Users\luan\Documents\GitHub\Droid\sekksi2016\tentativa2\consultor.nxc"
17	341	33		subret __MandarSeguir_return
18	342	0	#line 342 "C:\Users\luan\Documents\GitHub\Droid\sekksi2016\tentativa2\consultor.nxc"
18	343	0		set __PlaySound_7qG2_aCode_7qG2_000, 3
18	342	3	#line 342 "C:\Users\luan\Documents\GitHub\Droid\sekksi2016\tentativa2\consultor.nxc"
18	343	3	#line 343 "C:\Users\luan\Documents\GitHub\Droid\sekksi2016\tentativa2\consultor.nxc"
18	344	3		subcall PlaySound, __PlaySound_return
18	343	6	#line 343 "C:\Users\luan\Documents\GitHub\Droid\sekksi2016\tentativa2\consultor.nxc"
18	343	6	#line 343 "C:\Users\luan\Documents\GitHub\Droid\sekksi2016\tentativa2\consultor.nxc"
18	344	6		set __PlaySound_7qG2_aCode_7qG2_000, 2
18	343	9	#line 343 "C:\Users\luan\Documents\GitHub\Droid\sekksi2016\tentativa2\consultor.nxc"
18	344	9	#line 344 "C:\Users\luan\Documents\GitHub\Droid\sekksi2016\tentativa2\consultor.nxc"
18	345	9		subcall PlaySound, __PlaySound_return
18	344	12	#line 344 "C:\Users\luan\Documents\GitHub\Droid\sekksi2016\tentativa2\consultor.nxc"
18	346	12	#line 346 "C:\Users\luan\Documents\GitHub\Droid\sekksi2016\tentativa2\consultor.nxc"
18	347	12		subret __BipBranco_return
19	349	0	#line 349 "C:\Users\luan\Documents\GitHub\Droid\sekksi2016\tentativa2\consultor.nxc"
19	350	0		set __PlaySound_7qG2_aCode_7qG2_000, 2
19	349	3	#line 349 "C:\Users\luan\Documents\GitHub\Droid\sekksi2016\tentativa2\consultor.nxc"
19	350	3	#line 350 "C:\Users\luan\Documents\GitHub\Droid\sekksi2016\tentativa2\consultor.nxc"
19	351	3		subcall PlaySound, __PlaySound_return
19	350	6	#line 350 "C:\Users\luan\Documents\GitHub\Droid\sekksi2016\tentativa2\consultor.nxc"
19	350	6	#line 350 "C:\Users\luan\Documents\GitHub\Droid\sekksi2016\tentativa2\consultor.nxc"
19	351	6		set __PlaySound_7qG2_aCode_7qG2_000, 3
19	350	9	#line 350 "C:\Users\luan\Documents\GitHub\Droid\sekksi2016\tentativa2\consultor.nxc"
19	351	9	#line 351 "C:\Users\luan\Documents\GitHub\Droid\sekksi2016\tentativa2\consultor.nxc"
19	352	9		subcall PlaySound, __PlaySound_return
19	351	12	#line 351 "C:\Users\luan\Documents\GitHub\Droid\sekksi2016\tentativa2\consultor.nxc"
19	353	12	#line 353 "C:\Users\luan\Documents\GitHub\Droid\sekksi2016\tentativa2\consultor.nxc"
19	354	12		subret __BipPreto_return
20	359	0	#line 359 "C:\Users\luan\Documents\GitHub\Droid\sekksi2016\tentativa2\consultor.nxc"
20	360	0		subcall MandarParar, __MandarParar_return
20	359	2	#line 359 "C:\Users\luan\Documents\GitHub\Droid\sekksi2016\tentativa2\consultor.nxc"
20	360	2	#line 360 "C:\Users\luan\Documents\GitHub\Droid\sekksi2016\tentativa2\consultor.nxc"
20	361	2		subcall PegaBoneco, __PegaBoneco_return
20	360	4	#line 360 "C:\Users\luan\Documents\GitHub\Droid\sekksi2016\tentativa2\consultor.nxc"
20	361	4		mov __D0BonecoNaFrente, __D0PegaBoneco
20	361	6	#line 361 "C:\Users\luan\Documents\GitHub\Droid\sekksi2016\tentativa2\consultor.nxc"
20	362	6		tst 5, __D0BonecoNaFrente, __D0BonecoNaFrente
20	361	9	#line 361 "C:\Users\luan\Documents\GitHub\Droid\sekksi2016\tentativa2\consultor.nxc"
20	362	9		brtst 4, __ASM_Label_727, __D0BonecoNaFrente
20	362	12	#line 362 "C:\Users\luan\Documents\GitHub\Droid\sekksi2016\tentativa2\consultor.nxc"
20	363	12		subcall CorBoneco, __CorBoneco_return
20	362	14	#line 362 "C:\Users\luan\Documents\GitHub\Droid\sekksi2016\tentativa2\consultor.nxc"
20	363	14		mov __BonecoNaFrente_7qG2_cor_7qG2_000, __D0CorBoneco
20	362	16	#line 362 "C:\Users\luan\Documents\GitHub\Droid\sekksi2016\tentativa2\consultor.nxc"
20	362	16	#line 362 "C:\Users\luan\Documents\GitHub\Droid\sekksi2016\tentativa2\consultor.nxc"
20	362	16	#line 362 "C:\Users\luan\Documents\GitHub\Droid\sekksi2016\tentativa2\consultor.nxc"
20	363	16		mov __signed_stack_001BonecoNaFrente, __BonecoNaFrente_7qG2_cor_7qG2_000
20	362	18	#line 362 "C:\Users\luan\Documents\GitHub\Droid\sekksi2016\tentativa2\consultor.nxc"
20	363	18	#line 363 "C:\Users\luan\Documents\GitHub\Droid\sekksi2016\tentativa2\consultor.nxc"
20	364	18		mov __D0BonecoNaFrente, bonecoAlvo
20	363	20	#line 363 "C:\Users\luan\Documents\GitHub\Droid\sekksi2016\tentativa2\consultor.nxc"
20	364	20		cmp 4, __D0BonecoNaFrente, __signed_stack_001BonecoNaFrente, __D0BonecoNaFrente
20	364	24	#line 364 "C:\Users\luan\Documents\GitHub\Droid\sekksi2016\tentativa2\consultor.nxc"
20	365	24		brtst 4, __ASM_Label_732, __D0BonecoNaFrente
20	365	27	#line 365 "C:\Users\luan\Documents\GitHub\Droid\sekksi2016\tentativa2\consultor.nxc"
20	366	27		subcall Pega, __Pega_return
20	365	29	#line 365 "C:\Users\luan\Documents\GitHub\Droid\sekksi2016\tentativa2\consultor.nxc"
20	366	29	#line 366 "C:\Users\luan\Documents\GitHub\Droid\sekksi2016\tentativa2\consultor.nxc"
20	367	29		subcall MandarSeguir, __MandarSeguir_return
20	366	31	#line 366 "C:\Users\luan\Documents\GitHub\Droid\sekksi2016\tentativa2\consultor.nxc"
20	367	31	#line 367 "C:\Users\luan\Documents\GitHub\Droid\sekksi2016\tentativa2\consultor.nxc"
20	368	31		jmp __ASM_Label_733
20	367	33	#line 367 "C:\Users\luan\Documents\GitHub\Droid\sekksi2016\tentativa2\consultor.nxc"
20	368	33		mov __signed_stack_001BonecoNaFrente, __BonecoNaFrente_7qG2_cor_7qG2_000
20	367	35	#line 367 "C:\Users\luan\Documents\GitHub\Droid\sekksi2016\tentativa2\consultor.nxc"
20	368	35	#line 368 "C:\Users\luan\Documents\GitHub\Droid\sekksi2016\tentativa2\consultor.nxc"
20	369	35		mov __D0BonecoNaFrente, bonecoNaoAlvo
20	368	37	#line 368 "C:\Users\luan\Documents\GitHub\Droid\sekksi2016\tentativa2\consultor.nxc"
20	369	37		cmp 4, __D0BonecoNaFrente, __signed_stack_001BonecoNaFrente, __D0BonecoNaFrente
20	371	41	#line 371 "C:\Users\luan\Documents\GitHub\Droid\sekksi2016\tentativa2\consultor.nxc"
20	372	41		brtst 4, __ASM_Label_736, __D0BonecoNaFrente
20	372	44	#line 372 "C:\Users\luan\Documents\GitHub\Droid\sekksi2016\tentativa2\consultor.nxc"
20	373	44		subcall Rejeita, __Rejeita_return
20	372	46	#line 372 "C:\Users\luan\Documents\GitHub\Droid\sekksi2016\tentativa2\consultor.nxc"
20	373	46	#line 373 "C:\Users\luan\Documents\GitHub\Droid\sekksi2016\tentativa2\consultor.nxc"
20	374	46		jmp __ASM_Label_737
20	373	48	#line 373 "C:\Users\luan\Documents\GitHub\Droid\sekksi2016\tentativa2\consultor.nxc"
20	374	48		mov __signed_stack_001BonecoNaFrente, __BonecoNaFrente_7qG2_cor_7qG2_000
20	373	50	#line 373 "C:\Users\luan\Documents\GitHub\Droid\sekksi2016\tentativa2\consultor.nxc"
20	374	50	#line 374 "C:\Users\luan\Documents\GitHub\Droid\sekksi2016\tentativa2\consultor.nxc"
20	375	50		set __D0BonecoNaFrente, 3
20	374	53	#line 374 "C:\Users\luan\Documents\GitHub\Droid\sekksi2016\tentativa2\consultor.nxc"
20	375	53		cmp 4, __D0BonecoNaFrente, __signed_stack_001BonecoNaFrente, __D0BonecoNaFrente
20	377	57	#line 377 "C:\Users\luan\Documents\GitHub\Droid\sekksi2016\tentativa2\consultor.nxc"
20	378	57		brtst 4, __ASM_Label_740, __D0BonecoNaFrente
20	379	60	#line 379 "C:\Users\luan\Documents\GitHub\Droid\sekksi2016\tentativa2\consultor.nxc"
20	380	60		subcall Rejeita, __Rejeita_return
20	379	62	#line 379 "C:\Users\luan\Documents\GitHub\Droid\sekksi2016\tentativa2\consultor.nxc"
20	382	62	#line 382 "C:\Users\luan\Documents\GitHub\Droid\sekksi2016\tentativa2\consultor.nxc"
20	383	62		jmp __ASM_Label_741
20	383	64	#line 383 "C:\Users\luan\Documents\GitHub\Droid\sekksi2016\tentativa2\consultor.nxc"
20	384	64		subcall bip, __bip_return
20	383	66	#line 383 "C:\Users\luan\Documents\GitHub\Droid\sekksi2016\tentativa2\consultor.nxc"
20	385	66	#line 385 "C:\Users\luan\Documents\GitHub\Droid\sekksi2016\tentativa2\consultor.nxc"
20	386	66		subcall bip, __bip_return
20	385	68	#line 385 "C:\Users\luan\Documents\GitHub\Droid\sekksi2016\tentativa2\consultor.nxc"
20	6678	68	#line 6678 "NXCDefs.h"
20	6679	68	#pragma macro 6
20	6679	68		mov __PointOutArgs.Location.X, __constVal200
20	6679	70		mov __PointOutArgs.Location.Y, __constVal200
20	6679	72		mov __PointOutArgs.Options, __constVal1
20	6679	74		syscall 14, __PointOutArgs
20	6267	77	#line 6267 "NXCDefs.h"
20	6678	77	#line 6678 "NXCDefs.h"
20	386	77	#line 386 "C:\Users\luan\Documents\GitHub\Droid\sekksi2016\tentativa2\consultor.nxc"
20	386	77	#line 386 "C:\Users\luan\Documents\GitHub\Droid\sekksi2016\tentativa2\consultor.nxc"
20	387	77		set __signed_stack_001BonecoNaFrente, 0
20	386	80	#line 386 "C:\Users\luan\Documents\GitHub\Droid\sekksi2016\tentativa2\consultor.nxc"
20	386	80	#line 386 "C:\Users\luan\Documents\GitHub\Droid\sekksi2016\tentativa2\consultor.nxc"
20	387	80		set __signed_stack_002BonecoNaFrente, 56
20	386	83	#line 386 "C:\Users\luan\Documents\GitHub\Droid\sekksi2016\tentativa2\consultor.nxc"
20	386	83	#line 386 "C:\Users\luan\Documents\GitHub\Droid\sekksi2016\tentativa2\consultor.nxc"
20	387	83		mov __D0BonecoNaFrente, __BonecoNaFrente_7qG2_cor_7qG2_000
20	390	85	#line 390 "C:\Users\luan\Documents\GitHub\Droid\sekksi2016\tentativa2\consultor.nxc"
20	391	85		acquire __TextOutMutex
20	390	86	#line 390 "C:\Users\luan\Documents\GitHub\Droid\sekksi2016\tentativa2\consultor.nxc"
20	391	86		mov __TextOutArgs.Location.X, __signed_stack_001BonecoNaFrente
20	390	88	#line 390 "C:\Users\luan\Documents\GitHub\Droid\sekksi2016\tentativa2\consultor.nxc"
20	391	88		mov __TextOutArgs.Location.Y, __signed_stack_002BonecoNaFrente
20	390	90	#line 390 "C:\Users\luan\Documents\GitHub\Droid\sekksi2016\tentativa2\consultor.nxc"
20	391	90		set __TextOutArgs.Options, 0
20	390	93	#line 390 "C:\Users\luan\Documents\GitHub\Droid\sekksi2016\tentativa2\consultor.nxc"
20	391	93		numtostr __TextOutArgs.Text, __D0BonecoNaFrente
20	390	96	#line 390 "C:\Users\luan\Documents\GitHub\Droid\sekksi2016\tentativa2\consultor.nxc"
20	391	96		syscall 13, __TextOutArgs
20	390	99	#line 390 "C:\Users\luan\Documents\GitHub\Droid\sekksi2016\tentativa2\consultor.nxc"
20	391	99		mov __D0BonecoNaFrente, __TextOutArgs.Result
20	390	102	#line 390 "C:\Users\luan\Documents\GitHub\Droid\sekksi2016\tentativa2\consultor.nxc"
20	391	102		release __TextOutMutex
20	390	103	#line 390 "C:\Users\luan\Documents\GitHub\Droid\sekksi2016\tentativa2\consultor.nxc"
20	391	103	#line 391 "C:\Users\luan\Documents\GitHub\Droid\sekksi2016\tentativa2\consultor.nxc"
20	392	103		subcall VoltaGarra, __VoltaGarra_return
20	391	105	#line 391 "C:\Users\luan\Documents\GitHub\Droid\sekksi2016\tentativa2\consultor.nxc"
20	392	105	#line 392 "C:\Users\luan\Documents\GitHub\Droid\sekksi2016\tentativa2\consultor.nxc"
20	393	105		subcall MandarSeguir, __MandarSeguir_return
20	392	107	#line 392 "C:\Users\luan\Documents\GitHub\Droid\sekksi2016\tentativa2\consultor.nxc"
20	394	107	#line 394 "C:\Users\luan\Documents\GitHub\Droid\sekksi2016\tentativa2\consultor.nxc"
20	394	107	#line 394 "C:\Users\luan\Documents\GitHub\Droid\sekksi2016\tentativa2\consultor.nxc"
20	394	107	#line 394 "C:\Users\luan\Documents\GitHub\Droid\sekksi2016\tentativa2\consultor.nxc"
20	396	107	#line 396 "C:\Users\luan\Documents\GitHub\Droid\sekksi2016\tentativa2\consultor.nxc"
20	397	107		jmp __ASM_Label_748
20	397	109	#line 397 "C:\Users\luan\Documents\GitHub\Droid\sekksi2016\tentativa2\consultor.nxc"
20	398	109		subcall VoltaGarra, __VoltaGarra_return
20	397	111	#line 397 "C:\Users\luan\Documents\GitHub\Droid\sekksi2016\tentativa2\consultor.nxc"
20	398	111	#line 398 "C:\Users\luan\Documents\GitHub\Droid\sekksi2016\tentativa2\consultor.nxc"
20	399	111		subcall MandarSeguir, __MandarSeguir_return
20	398	113	#line 398 "C:\Users\luan\Documents\GitHub\Droid\sekksi2016\tentativa2\consultor.nxc"
20	398	113	#line 398 "C:\Users\luan\Documents\GitHub\Droid\sekksi2016\tentativa2\consultor.nxc"
20	399	113		set __Wait_7qG2_ms_7qG2_000_inline_BonecoNaFrente, 500
20	398	116	#line 398 "C:\Users\luan\Documents\GitHub\Droid\sekksi2016\tentativa2\consultor.nxc"
20	8551	116	#line 8551 "NXCDefs.h"
20	8552	116		wait2 NA, __Wait_7qG2_ms_7qG2_000_inline_BonecoNaFrente
20	8551	119	#line 8551 "NXCDefs.h"
20	399	119	#line 399 "C:\Users\luan\Documents\GitHub\Droid\sekksi2016\tentativa2\consultor.nxc"
20	402	119	#line 402 "C:\Users\luan\Documents\GitHub\Droid\sekksi2016\tentativa2\consultor.nxc"
20	402	119	#line 402 "C:\Users\luan\Documents\GitHub\Droid\sekksi2016\tentativa2\consultor.nxc"
20	403	119		subret __BonecoNaFrente_return
21	405	0	#line 405 "C:\Users\luan\Documents\GitHub\Droid\sekksi2016\tentativa2\consultor.nxc"
21	406	0		subcall MandaGirar, __MandaGirar_return
21	405	2	#line 405 "C:\Users\luan\Documents\GitHub\Droid\sekksi2016\tentativa2\consultor.nxc"
21	405	2	#line 405 "C:\Users\luan\Documents\GitHub\Droid\sekksi2016\tentativa2\consultor.nxc"
21	406	2		subcall RecebiGirei, __RecebiGirei_return
21	405	4	#line 405 "C:\Users\luan\Documents\GitHub\Droid\sekksi2016\tentativa2\consultor.nxc"
21	405	4	#line 405 "C:\Users\luan\Documents\GitHub\Droid\sekksi2016\tentativa2\consultor.nxc"
21	406	4		not __D0Rejeita, __D0RecebiGirei
21	405	7	#line 405 "C:\Users\luan\Documents\GitHub\Droid\sekksi2016\tentativa2\consultor.nxc"
21	406	7		tst 5, __D0Rejeita, __D0Rejeita
21	405	10	#line 405 "C:\Users\luan\Documents\GitHub\Droid\sekksi2016\tentativa2\consultor.nxc"
21	406	10		brtst 4, __ASM_Label_752, __D0Rejeita
21	406	13	#line 406 "C:\Users\luan\Documents\GitHub\Droid\sekksi2016\tentativa2\consultor.nxc"
21	407	13		jmp __ASM_Label_751
21	406	15	#line 406 "C:\Users\luan\Documents\GitHub\Droid\sekksi2016\tentativa2\consultor.nxc"
21	407	15	#line 407 "C:\Users\luan\Documents\GitHub\Droid\sekksi2016\tentativa2\consultor.nxc"
21	408	15		subcall VoltaGarra, __VoltaGarra_return
21	407	17	#line 407 "C:\Users\luan\Documents\GitHub\Droid\sekksi2016\tentativa2\consultor.nxc"
21	408	17	#line 408 "C:\Users\luan\Documents\GitHub\Droid\sekksi2016\tentativa2\consultor.nxc"
21	409	17		subcall MandaDesgirar, __MandaDesgirar_return
21	408	19	#line 408 "C:\Users\luan\Documents\GitHub\Droid\sekksi2016\tentativa2\consultor.nxc"
21	408	19	#line 408 "C:\Users\luan\Documents\GitHub\Droid\sekksi2016\tentativa2\consultor.nxc"
21	409	19		subcall RecebiDesGirei, __RecebiDesGirei_return
21	408	21	#line 408 "C:\Users\luan\Documents\GitHub\Droid\sekksi2016\tentativa2\consultor.nxc"
21	408	21	#line 408 "C:\Users\luan\Documents\GitHub\Droid\sekksi2016\tentativa2\consultor.nxc"
21	409	21		not __D0Rejeita, __D0RecebiDesGirei
21	408	24	#line 408 "C:\Users\luan\Documents\GitHub\Droid\sekksi2016\tentativa2\consultor.nxc"
21	409	24		tst 5, __D0Rejeita, __D0Rejeita
21	408	27	#line 408 "C:\Users\luan\Documents\GitHub\Droid\sekksi2016\tentativa2\consultor.nxc"
21	409	27		brtst 4, __ASM_Label_756, __D0Rejeita
21	411	30	#line 411 "C:\Users\luan\Documents\GitHub\Droid\sekksi2016\tentativa2\consultor.nxc"
21	412	30		jmp __ASM_Label_755
21	411	32	#line 411 "C:\Users\luan\Documents\GitHub\Droid\sekksi2016\tentativa2\consultor.nxc"
21	411	32	#line 411 "C:\Users\luan\Documents\GitHub\Droid\sekksi2016\tentativa2\consultor.nxc"
21	412	32		subret __Rejeita_return
22	414	0	#line 414 "C:\Users\luan\Documents\GitHub\Droid\sekksi2016\tentativa2\consultor.nxc"
22	415	0	#pragma macro 9
22	415	0		acquire __MRMutex
22	415	1		mov __MRArgs.QueueID, __constVal2
22	415	3		mov __MRArgs.Remove, __constVal1
22	415	5		set __RRNTmpVal, 0
22	415	8		syscall 27, __MRArgs
22	415	11		unflatten __RRNTmpVal, __RRNErr, __MRArgs.Message, __RRNTmpVal
22	415	16		mov __RecebiGirei_7qG2_aux_7qG2_000, __RRNTmpVal
22	415	18		mov __D0RecebiGirei, __MRArgs.Result
22	415	21		release __MRMutex
22	6396	22	#line 6396 "C:\Users\luan\Documents\GitHub\Droid\sekksi2016\tentativa2\consultor.nxc"
22	414	22	#line 414 "C:\Users\luan\Documents\GitHub\Droid\sekksi2016\tentativa2\consultor.nxc"
22	414	22	#line 414 "C:\Users\luan\Documents\GitHub\Droid\sekksi2016\tentativa2\consultor.nxc"
22	415	22	#line 415 "C:\Users\luan\Documents\GitHub\Droid\sekksi2016\tentativa2\consultor.nxc"
22	416	22		mov __signed_stack_001RecebiGirei, __RecebiGirei_7qG2_aux_7qG2_000
22	415	24	#line 415 "C:\Users\luan\Documents\GitHub\Droid\sekksi2016\tentativa2\consultor.nxc"
22	416	24	#line 416 "C:\Users\luan\Documents\GitHub\Droid\sekksi2016\tentativa2\consultor.nxc"
22	417	24		set __D0RecebiGirei, 3
22	416	27	#line 416 "C:\Users\luan\Documents\GitHub\Droid\sekksi2016\tentativa2\consultor.nxc"
22	417	27		cmp 4, __D0RecebiGirei, __signed_stack_001RecebiGirei, __D0RecebiGirei
22	416	31	#line 416 "C:\Users\luan\Documents\GitHub\Droid\sekksi2016\tentativa2\consultor.nxc"
22	417	31		brtst 4, __ASM_Label_761, __D0RecebiGirei
22	417	34	#line 417 "C:\Users\luan\Documents\GitHub\Droid\sekksi2016\tentativa2\consultor.nxc"
22	418	34		set __D0RecebiGirei, 1
22	417	37	#line 417 "C:\Users\luan\Documents\GitHub\Droid\sekksi2016\tentativa2\consultor.nxc"
22	418	37		subret __RecebiGirei_return
22	417	39	#line 417 "C:\Users\luan\Documents\GitHub\Droid\sekksi2016\tentativa2\consultor.nxc"
22	417	39	#line 417 "C:\Users\luan\Documents\GitHub\Droid\sekksi2016\tentativa2\consultor.nxc"
22	418	39	#line 418 "C:\Users\luan\Documents\GitHub\Droid\sekksi2016\tentativa2\consultor.nxc"
22	419	39		set __D0RecebiGirei, 0
22	418	42	#line 418 "C:\Users\luan\Documents\GitHub\Droid\sekksi2016\tentativa2\consultor.nxc"
22	419	42		subret __RecebiGirei_return
22	418	44	#line 418 "C:\Users\luan\Documents\GitHub\Droid\sekksi2016\tentativa2\consultor.nxc"
22	420	44	#line 420 "C:\Users\luan\Documents\GitHub\Droid\sekksi2016\tentativa2\consultor.nxc"
22	421	44		subret __RecebiGirei_return
23	423	0	#line 423 "C:\Users\luan\Documents\GitHub\Droid\sekksi2016\tentativa2\consultor.nxc"
23	424	0	#pragma macro 9
23	424	0		acquire __MRMutex
23	424	1		mov __MRArgs.QueueID, __constVal2
23	424	3		mov __MRArgs.Remove, __constVal1
23	424	5		set __RRNTmpVal, 0
23	424	8		syscall 27, __MRArgs
23	424	11		unflatten __RRNTmpVal, __RRNErr, __MRArgs.Message, __RRNTmpVal
23	424	16		mov __RecebiDesGirei_7qG2_aux_7qG2_000, __RRNTmpVal
23	424	18		mov __D0RecebiDesGirei, __MRArgs.Result
23	424	21		release __MRMutex
23	6435	22	#line 6435 "C:\Users\luan\Documents\GitHub\Droid\sekksi2016\tentativa2\consultor.nxc"
23	423	22	#line 423 "C:\Users\luan\Documents\GitHub\Droid\sekksi2016\tentativa2\consultor.nxc"
23	423	22	#line 423 "C:\Users\luan\Documents\GitHub\Droid\sekksi2016\tentativa2\consultor.nxc"
23	424	22	#line 424 "C:\Users\luan\Documents\GitHub\Droid\sekksi2016\tentativa2\consultor.nxc"
23	425	22		mov __signed_stack_001RecebiDesGirei, __RecebiDesGirei_7qG2_aux_7qG2_000
23	424	24	#line 424 "C:\Users\luan\Documents\GitHub\Droid\sekksi2016\tentativa2\consultor.nxc"
23	425	24	#line 425 "C:\Users\luan\Documents\GitHub\Droid\sekksi2016\tentativa2\consultor.nxc"
23	426	24		set __D0RecebiDesGirei, 6
23	425	27	#line 425 "C:\Users\luan\Documents\GitHub\Droid\sekksi2016\tentativa2\consultor.nxc"
23	426	27		cmp 4, __D0RecebiDesGirei, __signed_stack_001RecebiDesGirei, __D0RecebiDesGirei
23	425	31	#line 425 "C:\Users\luan\Documents\GitHub\Droid\sekksi2016\tentativa2\consultor.nxc"
23	426	31		brtst 4, __ASM_Label_768, __D0RecebiDesGirei
23	426	34	#line 426 "C:\Users\luan\Documents\GitHub\Droid\sekksi2016\tentativa2\consultor.nxc"
23	427	34		set __D0RecebiDesGirei, 1
23	426	37	#line 426 "C:\Users\luan\Documents\GitHub\Droid\sekksi2016\tentativa2\consultor.nxc"
23	427	37		subret __RecebiDesGirei_return
23	426	39	#line 426 "C:\Users\luan\Documents\GitHub\Droid\sekksi2016\tentativa2\consultor.nxc"
23	426	39	#line 426 "C:\Users\luan\Documents\GitHub\Droid\sekksi2016\tentativa2\consultor.nxc"
23	427	39	#line 427 "C:\Users\luan\Documents\GitHub\Droid\sekksi2016\tentativa2\consultor.nxc"
23	428	39		set __D0RecebiDesGirei, 0
23	427	42	#line 427 "C:\Users\luan\Documents\GitHub\Droid\sekksi2016\tentativa2\consultor.nxc"
23	428	42		subret __RecebiDesGirei_return
23	427	44	#line 427 "C:\Users\luan\Documents\GitHub\Droid\sekksi2016\tentativa2\consultor.nxc"
23	429	44	#line 429 "C:\Users\luan\Documents\GitHub\Droid\sekksi2016\tentativa2\consultor.nxc"
23	430	44		subret __RecebiDesGirei_return
24	431	0	#line 431 "C:\Users\luan\Documents\GitHub\Droid\sekksi2016\tentativa2\consultor.nxc"
24	432	0	#pragma macro 14
24	432	0		acquire __RemoteMutex
24	432	1		mov __SRSTmpBuf, __DCMessageWritePacket
24	432	3		replace __SRSTmpBuf, __SRSTmpBuf, __constVal2, __constVal1
24	432	8		replace __SRSTmpBuf, __SRSTmpBuf, __constVal3, __constVal5
24	432	13		mov __SRSTmpLongVal, __constVal5
24	432	15		flatten __SRSFlattenBuf, __SRSTmpLongVal
24	432	18		arrbuild __SRSSendBuf, __SRSTmpBuf, __SRSFlattenBuf
24	432	23		acquire __CBTWMutex
24	432	24		mov __CBTWArgs.Connection, __constVal0
24	432	26		mov __CBTWArgs.Buffer, __SRSSendBuf
24	432	28		syscall 29, __CBTWArgs
24	432	31		release __CBTWMutex
24	432	32		release __RemoteMutex
24	6470	33	#line 6470 "C:\Users\luan\Documents\GitHub\Droid\sekksi2016\tentativa2\consultor.nxc"
24	431	33	#line 431 "C:\Users\luan\Documents\GitHub\Droid\sekksi2016\tentativa2\consultor.nxc"
24	431	33	#line 431 "C:\Users\luan\Documents\GitHub\Droid\sekksi2016\tentativa2\consultor.nxc"
24	434	33	#line 434 "C:\Users\luan\Documents\GitHub\Droid\sekksi2016\tentativa2\consultor.nxc"
24	435	33		subret __MandaGirar_return
25	436	0	#line 436 "C:\Users\luan\Documents\GitHub\Droid\sekksi2016\tentativa2\consultor.nxc"
25	437	0	#pragma macro 14
25	437	0		acquire __RemoteMutex
25	437	1		mov __SRSTmpBuf, __DCMessageWritePacket
25	437	3		replace __SRSTmpBuf, __SRSTmpBuf, __constVal2, __constVal1
25	437	8		replace __SRSTmpBuf, __SRSTmpBuf, __constVal3, __constVal5
25	437	13		mov __SRSTmpLongVal, __constVal4
25	437	15		flatten __SRSFlattenBuf, __SRSTmpLongVal
25	437	18		arrbuild __SRSSendBuf, __SRSTmpBuf, __SRSFlattenBuf
25	437	23		acquire __CBTWMutex
25	437	24		mov __CBTWArgs.Connection, __constVal0
25	437	26		mov __CBTWArgs.Buffer, __SRSSendBuf
25	437	28		syscall 29, __CBTWArgs
25	437	31		release __CBTWMutex
25	437	32		release __RemoteMutex
25	6479	33	#line 6479 "C:\Users\luan\Documents\GitHub\Droid\sekksi2016\tentativa2\consultor.nxc"
25	436	33	#line 436 "C:\Users\luan\Documents\GitHub\Droid\sekksi2016\tentativa2\consultor.nxc"
25	436	33	#line 436 "C:\Users\luan\Documents\GitHub\Droid\sekksi2016\tentativa2\consultor.nxc"
25	439	33	#line 439 "C:\Users\luan\Documents\GitHub\Droid\sekksi2016\tentativa2\consultor.nxc"
25	440	33		subret __MandaDesgirar_return
26	443	0	#line 443 "C:\Users\luan\Documents\GitHub\Droid\sekksi2016\tentativa2\consultor.nxc"
26	444	0	#pragma macro 26
26	444	0		acquire __RLSBmutex3
26	444	1		mov __RLSReadBuf3, __RLSBbufLSWrite1
26	444	3		set __RLSBytesCount3, 1
26	444	6		wait2 NA, __constVal15
26	444	9		subcall __ReadLSBytes3, ____ReadLSBytes3_return
26	444	11		index __D0MandaUs, __RLSReadBuf3, 65535
26	444	15		release __RLSBmutex3
26	6492	16	#line 6492 "C:\Users\luan\Documents\GitHub\Droid\sekksi2016\tentativa2\consultor.nxc"
26	443	16	#line 443 "C:\Users\luan\Documents\GitHub\Droid\sekksi2016\tentativa2\consultor.nxc"
26	444	16		mov __MandaUs_7qG2_aux_7qG2_000, __D0MandaUs
26	443	18	#line 443 "C:\Users\luan\Documents\GitHub\Droid\sekksi2016\tentativa2\consultor.nxc"
26	443	18	#line 443 "C:\Users\luan\Documents\GitHub\Droid\sekksi2016\tentativa2\consultor.nxc"
26	445	18	#line 445 "C:\Users\luan\Documents\GitHub\Droid\sekksi2016\tentativa2\consultor.nxc"
26	446	18	#pragma macro 14
26	446	18		acquire __RemoteMutex
26	446	19		mov __SRSTmpBuf, __DCMessageWritePacket
26	446	21		replace __SRSTmpBuf, __SRSTmpBuf, __constVal2, __constVal3
26	446	26		replace __SRSTmpBuf, __SRSTmpBuf, __constVal3, __constVal5
26	446	31		mov __SRSTmpLongVal, __MandaUs_7qG2_aux_7qG2_000
26	446	33		flatten __SRSFlattenBuf, __SRSTmpLongVal
26	446	36		arrbuild __SRSSendBuf, __SRSTmpBuf, __SRSFlattenBuf
26	446	41		acquire __CBTWMutex
26	446	42		mov __CBTWArgs.Connection, __constVal0
26	446	44		mov __CBTWArgs.Buffer, __SRSSendBuf
26	446	46		syscall 29, __CBTWArgs
26	446	49		mov __D0MandaUs, __CBTWArgs.Result
26	446	51		release __CBTWMutex
26	446	52		release __RemoteMutex
26	6500	53	#line 6500 "C:\Users\luan\Documents\GitHub\Droid\sekksi2016\tentativa2\consultor.nxc"
26	445	53	#line 445 "C:\Users\luan\Documents\GitHub\Droid\sekksi2016\tentativa2\consultor.nxc"
26	445	53	#line 445 "C:\Users\luan\Documents\GitHub\Droid\sekksi2016\tentativa2\consultor.nxc"
26	448	53	#line 448 "C:\Users\luan\Documents\GitHub\Droid\sekksi2016\tentativa2\consultor.nxc"
26	449	53		subret __MandaUs_return
27	449	0	#line 449 "C:\Users\luan\Documents\GitHub\Droid\sekksi2016\tentativa2\consultor.nxc"
27	450	0		subret ____initialize_global_data_return
#CLUMPS
Clump	Name	Offset	File
0	main	0	C:\Users\luan\Documents\GitHub\Droid\sekksi2016\tentativa2\consultor.nxc
1	__ResetSensorSubroutine	7	NXTDefs.h
2	__ReadLSBytes3	20	NXTDefs.h
3	PlaySound	106	NXCDefs.h
4	bip	525	C:\Users\luan\Documents\GitHub\Droid\sekksi2016\tentativa2\consultor.nxc
5	consultor	533	C:\Users\luan\Documents\GitHub\Droid\sekksi2016\tentativa2\consultor.nxc
6	init	564	C:\Users\luan\Documents\GitHub\Droid\sekksi2016\tentativa2\consultor.nxc
7	InicializaSensores	572	C:\Users\luan\Documents\GitHub\Droid\sekksi2016\tentativa2\consultor.nxc
8	BonecoAlvo	661	C:\Users\luan\Documents\GitHub\Droid\sekksi2016\tentativa2\consultor.nxc
9	TemBoneco	703	C:\Users\luan\Documents\GitHub\Droid\sekksi2016\tentativa2\consultor.nxc
10	RecebeBoneco	777	C:\Users\luan\Documents\GitHub\Droid\sekksi2016\tentativa2\consultor.nxc
11	lerSensor	784	C:\Users\luan\Documents\GitHub\Droid\sekksi2016\tentativa2\consultor.nxc
12	PegaBoneco	937	C:\Users\luan\Documents\GitHub\Droid\sekksi2016\tentativa2\consultor.nxc
13	VoltaGarra	1068	C:\Users\luan\Documents\GitHub\Droid\sekksi2016\tentativa2\consultor.nxc
14	CorBoneco	1157	C:\Users\luan\Documents\GitHub\Droid\sekksi2016\tentativa2\consultor.nxc
15	Pega	1253	C:\Users\luan\Documents\GitHub\Droid\sekksi2016\tentativa2\consultor.nxc
16	MandarParar	1347	C:\Users\luan\Documents\GitHub\Droid\sekksi2016\tentativa2\consultor.nxc
17	MandarSeguir	1382	C:\Users\luan\Documents\GitHub\Droid\sekksi2016\tentativa2\consultor.nxc
18	BipBranco	1417	C:\Users\luan\Documents\GitHub\Droid\sekksi2016\tentativa2\consultor.nxc
19	BipPreto	1431	C:\Users\luan\Documents\GitHub\Droid\sekksi2016\tentativa2\consultor.nxc
20	BonecoNaFrente	1445	C:\Users\luan\Documents\GitHub\Droid\sekksi2016\tentativa2\consultor.nxc
21	Rejeita	1566	C:\Users\luan\Documents\GitHub\Droid\sekksi2016\tentativa2\consultor.nxc
22	RecebiGirei	1600	C:\Users\luan\Documents\GitHub\Droid\sekksi2016\tentativa2\consultor.nxc
23	RecebiDesGirei	1646	C:\Users\luan\Documents\GitHub\Droid\sekksi2016\tentativa2\consultor.nxc
24	MandaGirar	1692	C:\Users\luan\Documents\GitHub\Droid\sekksi2016\tentativa2\consultor.nxc
25	MandaDesgirar	1727	C:\Users\luan\Documents\GitHub\Droid\sekksi2016\tentativa2\consultor.nxc
26	MandaUs	1762	C:\Users\luan\Documents\GitHub\Droid\sekksi2016\tentativa2\consultor.nxc
27	__initialize_global_data	1817	C:\Users\luan\Documents\GitHub\Droid\sekksi2016\tentativa2\consultor.nxc
