#SYMBOLS
Index	Identifier	Type	Flag	Data	Size	RefCount
0	__DU0virar	5	1	0	4	2
1	__DF0virar	10	1	4	4	6
2	__D0VoltaGarra	6	1	8	4	10
3	__D0virar	6	1	12	4	8
4	__D0RecebeBoneco	6	1	16	4	16
5	__D0Rejeita	6	1	20	4	20
6	__D0TemBoneco	6	1	24	4	27
7	__D0SetSensorLowspeed_inline_InicializaSensores	6	1	28	4	2
8	__D0SensorHTGyro_inline_virar	6	1	32	4	4
9	__signed_stack_001BonecoAlvo	6	1	36	4	4
10	__signed_stack_001BonecoNaFrente	6	1	40	4	12
11	__D0SensorHTGyro_inline_GetGyroOffset	6	1	44	4	4
12	__DU0SetSensorLowspeed_inline_InicializaSensores	5	1	48	4	5
13	__D0SetSensorLowspeed_inline_SetSensorUltrasonic	6	1	52	4	2
14	__DU0SetSensorLowspeed_inline_SetSensorUltrasonic	5	1	56	4	5
15	__D0PlaySound	6	1	60	4	69
16	__D0BonecoNaFrente	6	1	64	4	32
17	__D0consultor	6	1	68	4	20
18	__D0CorBoneco	6	1	72	4	29
19	__D0BonecoAlvo	6	1	76	4	8
20	__RemoteMutex	9	0	80	4	20
21	__WDSCmutex	9	0	84	4	2
22	__SPTArgsMutex	9	0	88	4	14
23	__D0filterUS	6	1	92	4	34
24	__D0nbip	6	1	96	4	4
25	__D0Pega	6	1	100	4	10
26	__D0PegaBoneco	6	1	104	4	17
27	__D0LevantaBoneco	6	1	108	4	6
28	__D0GetGyroOffset	6	1	112	4	8
29	__DF0GetGyroOffset	10	1	116	4	6
30	__D0lerAngulo	6	1	120	4	9
31	__Wait_7qG2_ms_7qG2_000_inline_VoltaGarra	5	1	124	4	2
32	__Wait_7qG2_ms_7qG2_000_inline_Pega	5	1	128	4	2
33	__Wait_7qG2_ms_7qG2_000_inline_BonecoNaFrente	5	1	132	4	4
34	__Wait_7qG2_ms_7qG2_000_inline_PegaBoneco	5	1	136	4	2
35	__Wait_7qG2_ms_7qG2_000_inline_consultor	5	1	140	4	2
36	__Wait_7qG2_ms_7qG2_000_inline_TemBoneco	5	1	144	4	2
37	__Wait_7qG2_ms_7qG2_000_inline_RecebeBoneco	5	1	148	4	4
38	__virar_7qG2_offset_7qG2_000	10	1	152	4	2
39	__GetGyroOffset_7qG2_gyro_sum_7qG2_000	10	1	156	4	4
40	__GetGyroOffset_7qG2_i_7qG2_000	10	1	160	4	4
41	__Wait_7qG2_ms_7qG2_000_inline_filterUS	5	1	164	4	2
42	__virar_7qG2_gyro_7qG2_000	10	1	168	4	2
43	__virar_7qG2_time_7qG2_000	5	1	172	4	4
44	__virar_7qG2_prev_time_7qG2_000	5	1	176	4	2
45	__virar_7qG2_aux_7qG2_000	10	1	180	4	4
46	__signed_stack_001VoltaGarra	6	1	184	4	4
47	__float_stack_001GetGyroOffset	10	1	188	4	4
48	__signed_stack_001LevantaBoneco	6	1	192	4	2
49	__signed_stack_001nbip	6	1	196	4	2
50	__signed_stack_002filterUS	6	1	200	4	4
51	__signed_stack_002BonecoNaFrente	6	1	204	4	2
52	__signed_stack_001CorBoneco	6	1	208	4	12
53	__signed_stack_001filterUS	6	1	212	4	16
54	__signed_stack_001Pega	6	1	216	4	4
55	__signed_stack_001RecebeBoneco	6	1	220	4	6
56	__signed_stack_001TemBoneco	6	1	224	4	12
57	__float_stack_001virar	10	1	228	4	6
58	__signed_stack_003PlaySound	6	1	232	4	14
59	__signed_stack_001PegaBoneco	6	1	236	4	4
60	__signed_stack_001PlaySound	6	1	240	4	44
61	__signed_stack_002PlaySound	6	1	244	4	14
62	__SRSTmpLongVal	6	1	248	4	20
63	__RLSBmutex2	9	0	252	4	6
64	__RLSBmutex3	9	0	256	4	4
65	__RLSBmutex0	9	0	260	4	4
66	__RLSBmutex1	9	0	264	4	4
67	__CLSCSMutex0	9	0	268	4	4
68	__CLSWMutex0	9	0	272	4	2
69	__CBTWMutex	9	0	276	4	20
70	__MRMutex	9	0	280	4	12
71	__RRNTmpVal	6	1	284	4	24
72	__CLSRMutex3	9	0	288	4	2
73	__CLSWMutex1	9	0	292	4	2
74	__CLSRMutex1	9	0	296	4	2
75	__CLSRMutex0	9	0	300	4	2
76	__CLSCSMutex1	9	0	304	4	4
77	__CLSCSMutex2	9	0	308	4	6
78	__CLSCSMutex3	9	0	312	4	4
79	__CLSWMutex3	9	0	316	4	2
80	__CLSWMutex2	9	0	320	4	4
81	__CLSRMutex2	9	0	324	4	4
82	ht_white	4	1	328	2	8
83	__constVal1000	4	0	330	2	1
84	distUS	4	1	332	2	10
85	__VoltaGarra_7qG2_old_tc_7qG2_000	4	1	334	2	2
86	__constVal500	4	0	336	2	1
87	__constVal600	4	0	338	2	2
88	BonecosCapturados	4	1	340	2	6
89	__filterUS_7qG2_SENSOR_7qG2_000	4	1	342	2	3
90	bonecoNaoAlvo	4	1	344	2	3
91	bonecoAlvo	4	1	346	2	4
92	__SensorHTGyro_7qG2_offset_7qG2_000_inline_virar	4	1	348	2	2
93	__filterUS_7qG2_leitura_7qG2_000	4	1	350	2	6
94	__SensorHTGyro_7qG2_offset_7qG2_000_inline_GetGyroOffset	4	1	352	2	2
95	__filterUS_7qG2_i_7qG2_000	4	1	354	2	4
96	__PlaySound_7qG2_aCode_7qG2_000	4	1	356	2	11
97	__PegaBoneco_7qG2_old_tc_7qG2_000	4	1	358	2	2
98	__constVal150	4	0	360	2	1
99	__lerAngulo_7qG2_leitura_7qG2_000	4	1	362	2	3
100	__VoltaGarra_7qG2_tc_7qG2_000	4	1	364	2	4
101	__constValNeg153	4	0	366	2	1
102	__PlaySound_7qG2_i_7qG2_001	4	1	368	2	15
103	__constVal2048	4	0	370	2	2
104	__Rejeita_7qG2_flag_7qG2_000	4	1	372	2	6
105	__Rejeita_7qG2_aux_7qG2_000	4	1	374	2	4
106	__nbip_7qG2_i_7qG2_000	4	1	376	2	4
107	__virar_7qG2_angulo_7qG2_000	4	1	378	2	2
108	__consultor_7qG2_mensagem_7qG2_000	4	1	380	2	2
109	__RecebeBoneco_7qG2_sinInicial_7qG2_000	4	1	382	2	5
110	__BonecoNaFrente_7qG2_cor_7qG2_000	4	1	384	2	4
111	__nbip_7qG2_n_7qG2_000	4	1	386	2	3
112	__PegaBoneco_7qG2_tc_7qG2_000	4	1	388	2	5
113	__constVal200	4	0	390	2	3
114	__BonecoNaFrente_7qG2_mensagem_7qG2_001	4	1	392	2	2
115	__RecebeBoneco_return	1	1	394	1	5
116	__SetSensorLowspeed_7qG2_bIsPowered_7qG2_000_inline_InicializaSensores	1	1	395	1	2
117	__SetSensorType_7qG2_type_7qG2_000_inline_SetSensorHTGyro_inline_InicializaSensores	1	1	396	1	2
118	__SetSensorMode_7qG2_port_7qG2_000_inline_SetSensorHTGyro_inline_InicializaSensores	1	1	397	1	2
119	__SetSensorLowspeed_7qG2_port_7qG2_000_inline_InicializaSensores	1	1	398	1	4
120	__BipPreto_return	1	1	399	1	3
121	__SetSensorMode_7qG2_mode_7qG2_000_inline_SetSensorHTGyro_inline_InicializaSensores	1	1	400	1	2
122	__SetSensorHTGyro_7qG2_port_7qG2_000_inline_InicializaSensores	1	1	401	1	4
123	__SetSensorMode_7qG2_port_7qG2_000_inline_SetSensorLowspeed_inline_InicializaSensores	1	1	402	1	2
124	__SetSensorMode_7qG2_mode_7qG2_000_inline_SetSensorLowspeed_inline_InicializaSensores	1	1	403	1	2
125	__PegaBoneco_return	1	1	404	1	5
126	__filterUS_return	1	1	405	1	3
127	__SetSensorType_7qG2_port_7qG2_000_inline_SetSensorHTGyro_inline_InicializaSensores	1	1	406	1	2
128	__BipBranco_return	1	1	407	1	3
129	__SetSensorType_7qG2_type_7qG2_000_inline_SetSensorLowspeed_inline_InicializaSensores	1	1	408	1	2
130	__SetSensorType_7qG2_port_7qG2_000_inline_SetSensorLowspeed_inline_InicializaSensores	1	1	409	1	2
131	__constVal3	2	0	410	1	21
132	__constVal6	2	0	411	1	1
133	__lerAngulo_return	1	1	412	1	4
134	__constVal50	2	0	413	1	1
135	__constValNeg50	2	0	414	1	1
136	__MandaDesgirar_return	1	1	415	1	3
137	__constVal4	2	0	416	1	3
138	__constVal5	2	0	417	1	11
139	__constVal1	2	0	418	1	32
140	__constVal0	2	1	419	1	61
141	__constVal32	2	0	420	1	27
142	__SensorHTGyro_7qG2_port_7qG2_000_inline_GetGyroOffset	1	1	421	1	2
143	__MandaGirar_return	1	1	422	1	3
144	__GetGyroOffset_return	1	1	423	1	4
145	__MandaQueJaDeuPorHoje_return	1	1	424	1	3
146	__SensorHTGyro_7qG2_port_7qG2_000_inline_virar	1	1	425	1	2
147	__MandaRejeitar_return	1	1	426	1	3
148	__Pega_return	1	1	427	1	4
149	__CorBoneco_return	1	1	428	1	6
150	__constValNeg110	2	0	429	1	1
151	__constValNeg70	2	0	430	1	2
152	__constVal96	2	0	431	1	9
153	__constValNeg25	2	0	432	1	2
154	____ResetSensorSubroutine_return	1	1	433	1	5
155	__constVal63	2	0	434	1	9
156	__Rejeita_return	1	1	435	1	4
157	__MandaCheio_return	1	1	436	1	3
158	__LevantaBoneco_return	1	1	437	1	3
159	__ResetSensorPort	1	1	438	1	5
160	__ResetSensorTmp	1	1	439	1	2
161	__MandaPeguei_return	1	1	440	1	3
162	__MandarSeguir_return	1	1	441	1	5
163	__MandarParar_return	1	1	442	1	3
164	__SetSensorMode_7qG2_mode_7qG2_000_inline_SetSensorLowspeed_inline_SetSensorUltrasonic_inline_InicializaSensores	1	1	443	1	2
165	__RLSReadPort	1	1	444	1	5
166	__RLSBIterationsVar	1	1	445	1	4
167	__RLSBytesCountVar	1	1	446	1	8
168	__RRNErr	1	1	447	1	6
169	__constVal13	2	0	448	1	1
170	__constVal10	2	0	449	1	1
171	__RLSBResultVar	2	1	450	1	7
172	__RLSBytesCount2	1	1	451	1	7
173	__RLSBResult2	2	1	452	1	8
174	____ReadLSBytes2_return	1	1	453	1	3
175	____ReadLSBytesVar_return	1	1	454	1	4
176	__constVal2	2	0	455	1	18
177	__RLSBIterations2	1	1	456	1	4
178	__constVal9	2	0	457	1	1
179	__constVal15	2	0	458	1	5
180	__constVal7	2	0	459	1	1
181	__constVal12	2	0	460	1	3
182	__constVal100	2	0	461	1	2
183	__PFTmp	1	1	462	1	1
184	__constVal8	2	0	463	1	2
185	__WDSC_Port	1	1	464	1	3
186	____MSWriteBytesSub_return	1	1	465	1	3
187	__constVal16	2	0	466	1	1
188	__constVal14	2	0	467	1	1
189	__WDSC_SensorAddress	1	1	468	1	2
190	__WDSC_SensorRegister	1	1	469	1	2
191	__WDSC_LSStatus	2	1	470	1	2
192	__LSWriteOptions2	1	1	471	1	1
193	__nbip_return	1	1	472	1	4
194	__TemBoneco_return	1	1	473	1	5
195	__bip_return	1	1	474	1	6
196	__BonecoNaFrente_return	1	1	475	1	3
197	__PlaySound_return	1	1	476	1	7
198	__constVal17	2	0	477	1	1
199	__init_return	1	1	478	1	3
200	__virar_return	1	1	479	1	6
201	____initialize_global_data_return	1	1	480	1	3
202	__consultor_return	1	1	481	1	3
203	__CalibraFaixaBase_return	1	1	482	1	3
204	__LSWriteOptionsVar	1	1	483	1	2
205	__SetSensorLowspeed_7qG2_bIsPowered_7qG2_000_inline_SetSensorUltrasonic_inline_InicializaSensores	1	1	484	1	2
206	__SetSensorType_7qG2_port_7qG2_000_inline_SetSensorLowspeed_inline_SetSensorUltrasonic_inline_InicializaSensores	1	1	485	1	2
207	__SetSensorMode_7qG2_port_7qG2_000_inline_SetSensorLowspeed_inline_SetSensorUltrasonic_inline_InicializaSensores	1	1	486	1	2
208	__SetSensorType_7qG2_type_7qG2_000_inline_SetSensorLowspeed_inline_SetSensorUltrasonic_inline_InicializaSensores	1	1	487	1	2
209	__VoltaGarra_return	1	1	488	1	8
210	__InicializaSensores_return	1	1	489	1	3
211	__BonecoAlvo_return	1	1	490	1	3
212	__SetSensorLowspeed_7qG2_port_7qG2_000_inline_SetSensorUltrasonic_inline_InicializaSensores	1	1	491	1	4
213	__SetSensorUltrasonic_7qG2_port_7qG2_000_inline_InicializaSensores	1	1	492	1	2
214	__WDSC_lswArgs	8	0	4	12	4
215	__WDSC_lswArgs.Result	2	1	496	1	4
216	__WDSC_lswArgs.Port	1	1	497	1	4
217	__WDSC_lswArgs.Buffer	7	0	498	4	4
218	__WDSC_lswArgs.Buffer.Buffer_type	1	0	0	1	0
219	__WDSC_lswArgs.ReturnLen	1	1	500	1	4
220	__SPTArgs	8	0	5	8	42
221	__SPTArgs.Result	2	1	504	1	42
222	__SPTArgs.Frequency	3	1	506	2	42
223	__SPTArgs.Duration	3	1	508	2	42
224	__SPTArgs.Loop	1	1	510	1	42
225	__SPTArgs.Volume	1	1	511	1	42
226	__PointOutArgs	8	0	3	12	4
227	__PointOutArgs.Result	2	1	512	1	4
228	__PointOutArgs.Location	8	0	2	4	4
229	__PointOutArgs.Location.X	4	1	516	2	4
230	__PointOutArgs.Location.Y	4	1	518	2	4
231	__PointOutArgs.Options	5	1	520	4	4
232	__TextOutArgs	8	0	4	16	6
233	__TextOutArgs.Result	2	1	524	1	6
234	__TextOutArgs.Location	8	0	2	4	6
235	__TextOutArgs.Location.X	4	1	528	2	6
236	__TextOutArgs.Location.Y	4	1	530	2	6
237	__TextOutArgs.Text	7	0	532	4	6
238	__TextOutArgs.Text.Text_type	1	0	0	1	0
239	__TextOutArgs.Options	5	1	536	4	6
240	__CLSCSArgs2	8	0	3	4	4
241	__CLSCSArgs2.Result	2	1	540	1	4
242	__CLSCSArgs2.Port	1	1	541	1	4
243	__CLSCSArgs2.BytesReady	1	1	542	1	4
244	__CLSRArgs2	8	0	4	12	5
245	__CLSRArgs2.Result	2	1	544	1	5
246	__CLSRArgs2.Port	1	1	545	1	5
247	__CLSRArgs2.Buffer	7	0	546	4	5
248	__CLSRArgs2.Buffer.Buffer_type	1	0	0	1	0
249	__CLSRArgs2.BufferLen	1	1	548	1	5
250	__CLSCSArgs0	8	0	3	4	7
251	__CLSCSArgs0.Result	2	1	552	1	7
252	__CLSCSArgs0.Port	1	1	553	1	7
253	__CLSCSArgs0.BytesReady	1	1	554	1	7
254	__CLSWArgs2	8	0	4	12	5
255	__CLSWArgs2.Result	2	1	556	1	5
256	__CLSWArgs2.Port	1	1	557	1	5
257	__CLSWArgs2.Buffer	7	0	558	4	5
258	__CLSWArgs2.Buffer.Buffer_type	1	0	0	1	0
259	__CLSWArgs2.ReturnLen	1	1	560	1	5
260	__CLSRArgs0	8	0	4	12	5
261	__CLSRArgs0.Result	2	1	564	1	5
262	__CLSRArgs0.Port	1	1	565	1	5
263	__CLSRArgs0.Buffer	7	0	566	4	5
264	__CLSRArgs0.Buffer.Buffer_type	1	0	0	1	0
265	__CLSRArgs0.BufferLen	1	1	568	1	5
266	__CLSWArgs0	8	0	4	12	5
267	__CLSWArgs0.Result	2	1	572	1	5
268	__CLSWArgs0.Port	1	1	573	1	5
269	__CLSWArgs0.Buffer	7	0	574	4	5
270	__CLSWArgs0.Buffer.Buffer_type	1	0	0	1	0
271	__CLSWArgs0.ReturnLen	1	1	576	1	5
272	__MRArgs	8	0	4	8	30
273	__MRArgs.Result	2	1	580	1	30
274	__MRArgs.QueueID	1	1	581	1	30
275	__MRArgs.Remove	1	1	582	1	30
276	__MRArgs.Message	7	0	584	4	30
277	__MRArgs.Message.Message_type	1	0	0	1	0
278	__CBTWArgs	8	0	3	8	32
279	__CBTWArgs.Result	2	1	588	1	32
280	__CBTWArgs.Connection	1	1	589	1	32
281	__CBTWArgs.Buffer	7	0	590	4	32
282	__CBTWArgs.Buffer.Buffer_type	1	0	0	1	0
283	__DCMessageWritePacket	7	0	592	4	10
284	__DCMessageWritePacket.__DCMessageWritePacket_type	1	0	0	1	0
285	__RLSBbufLSWrite1	7	0	594	4	3
286	__RLSBbufLSWrite1.__RLSBbufLSWrite1_type	1	0	0	1	0
287	__SRSFlattenBuf	7	0	596	4	20
288	__SRSFlattenBuf.__SRSFlattenBuf_type	1	0	0	1	0
289	__SRSSendBuf	7	0	598	4	20
290	__SRSSendBuf.__SRSSendBuf_type	1	0	0	1	0
291	__RLSLastGoodReadVar	7	0	600	4	2
292	__RLSLastGoodReadVar.__RLSLastGoodReadVar_type	1	0	0	1	0
293	__SRSTmpBuf	7	0	602	4	60
294	__SRSTmpBuf.__SRSTmpBuf_type	1	0	0	1	0
295	__RLSReadBufVar	7	0	604	4	10
296	__RLSReadBufVar.__RLSReadBufVar_type	1	0	0	1	0
297	__RLSLastGoodRead2	7	0	606	4	2
298	__RLSLastGoodRead2.__RLSLastGoodRead2_type	1	0	0	1	0
299	__WDSC_WriteBytes	7	0	608	4	2
300	__WDSC_WriteBytes.__WDSC_WriteBytes_type	1	0	0	1	0
301	__RLSReadBuf2	7	0	610	4	8
302	__RLSReadBuf2.__RLSReadBuf2_type	1	0	0	1	0
#SOURCES
Clump	Line	PC	Source
0	168	0	#line 168 "C:\Users\luan\AppData\Local\Temp\temp.nxc"
0	169	0		subcall __initialize_global_data, ____initialize_global_data_return
0	168	3	#line 168 "C:\Users\luan\AppData\Local\Temp\temp.nxc"
0	169	3	#line 169 "C:\Users\luan\AppData\Local\Temp\temp.nxc"
0	170	3		subcall consultor, __consultor_return
0	169	6	#line 169 "C:\Users\luan\AppData\Local\Temp\temp.nxc"
0	170	6		exit -1, -1
1	5476	0		setin __constVal1, __ResetSensorPort, 5
1	5478	4		getin __ResetSensorTmp, __ResetSensorPort, 5
1	5479	8		brtst 5, __SensorStillInvalid, __ResetSensorTmp
1	5480	11		subret ____ResetSensorSubroutine_return
2	6356	0	#pragma macro 25
2	6356	0		acquire __CLSWMutex2
2	6356	1		or __CLSWArgs2.Port, __constVal2, __LSWriteOptions2
2	6356	5		mov __CLSWArgs2.ReturnLen, __RLSBytesCount2
2	6356	7		mov __CLSWArgs2.Buffer, __RLSReadBuf2
2	6356	9		syscall 21, __CLSWArgs2
2	6356	12		mov __RLSBResult2, __CLSWArgs2.Result
2	6356	14		release __CLSWMutex2
2	6356	15	#line 6356 "NXTDefs.h"
2	6357	15		brtst 5, __RLSBError2, __RLSBResult2
2	6358	18		set __RLSBIterations2, 60
2	6360	21	#pragma macro 23
2	6360	21		acquire __CLSCSMutex2
2	6360	22		set __CLSCSArgs2.Port, 2
2	6360	25		syscall 23, __CLSCSArgs2
2	6360	28		mov __RLSBytesCount2, __CLSCSArgs2.BytesReady
2	6360	30		mov __RLSBResult2, __CLSCSArgs2.Result
2	6360	32		release __CLSCSMutex2
2	6360	33	#line 6360 "NXTDefs.h"
2	6361	33		sub __RLSBIterations2, __RLSBIterations2, __constVal1
2	6362	37		brtst 2, __RLSBError2, __RLSBIterations2
2	6363	40		brtst 0, __RLSBError2, __RLSBResult2
2	6364	43		brtst 4, __RLSBReadyToRead2, __RLSBResult2
2	6366	46		wait2 NA, __constVal1
2	6367	49		jmp __RLSBDoCheckStatus2
2	6369	51		brtst 4, __RLSBReturn2, __RLSBytesCount2
2	6370	54		arrinit __RLSReadBuf2, __constVal0, __RLSBytesCount2
2	6372	58	#pragma macro 25
2	6372	58		acquire __CLSRMutex2
2	6372	59		set __CLSRArgs2.Port, 2
2	6372	62		mov __CLSRArgs2.BufferLen, __RLSBytesCount2
2	6372	64		syscall 22, __CLSRArgs2
2	6372	67		mov __RLSReadBuf2, __CLSRArgs2.Buffer
2	6372	69		mov __RLSBResult2, __CLSRArgs2.Result
2	6372	71		release __CLSRMutex2
2	6372	72	#line 6372 "NXTDefs.h"
2	6373	72		brtst 5, __RLSBError2, __RLSBResult2
2	6374	75		mov __RLSLastGoodRead2, __RLSReadBuf2
2	6375	77		jmp __RLSBDone2
2	6377	79		mov __RLSReadBuf2, __RLSLastGoodRead2
2	6379	81		arrsize __RLSBytesCount2, __RLSReadBuf2
2	6381	84		subret ____ReadLSBytes2_return
3	6430	0	#pragma macro 25
3	6430	0		acquire __CLSWMutex0
3	6430	1		acquire __CLSWMutex1
3	6430	2		acquire __CLSWMutex2
3	6430	3		acquire __CLSWMutex3
3	6430	4		or __CLSWArgs0.Port, __RLSReadPort, __LSWriteOptionsVar
3	6430	8		mov __CLSWArgs0.ReturnLen, __RLSBytesCountVar
3	6430	10		mov __CLSWArgs0.Buffer, __RLSReadBufVar
3	6430	12		syscall 21, __CLSWArgs0
3	6430	15		mov __RLSBResultVar, __CLSWArgs0.Result
3	6430	17		release __CLSWMutex0
3	6430	18		release __CLSWMutex1
3	6430	19		release __CLSWMutex2
3	6430	20		release __CLSWMutex3
3	6430	21	#line 6430 "NXTDefs.h"
3	6431	21		brtst 5, __RLSBErrorVar, __RLSBResultVar
3	6432	24		set __RLSBIterationsVar, 60
3	6434	27	#pragma macro 23
3	6434	27		acquire __CLSCSMutex0
3	6434	28		acquire __CLSCSMutex1
3	6434	29		acquire __CLSCSMutex2
3	6434	30		acquire __CLSCSMutex3
3	6434	31		mov __CLSCSArgs0.Port, __RLSReadPort
3	6434	33		syscall 23, __CLSCSArgs0
3	6434	36		mov __RLSBytesCountVar, __CLSCSArgs0.BytesReady
3	6434	38		mov __RLSBResultVar, __CLSCSArgs0.Result
3	6434	40		release __CLSCSMutex0
3	6434	41		release __CLSCSMutex1
3	6434	42		release __CLSCSMutex2
3	6434	43		release __CLSCSMutex3
3	6434	44	#line 6434 "NXTDefs.h"
3	6435	44		sub __RLSBIterationsVar, __RLSBIterationsVar, __constVal1
3	6436	48		brtst 2, __RLSBErrorVar, __RLSBIterationsVar
3	6437	51		brtst 0, __RLSBErrorVar, __RLSBResultVar
3	6438	54		brtst 4, __RLSBReadyToReadVar, __RLSBResultVar
3	6440	57		wait2 NA, __constVal1
3	6441	60		jmp __RLSBDoCheckStatusVar
3	6443	62		brtst 4, __RLSBReturnVar, __RLSBytesCountVar
3	6444	65		arrinit __RLSReadBufVar, __constVal0, __RLSBytesCountVar
3	6446	69	#pragma macro 25
3	6446	69		acquire __CLSRMutex0
3	6446	70		acquire __CLSRMutex1
3	6446	71		acquire __CLSRMutex2
3	6446	72		acquire __CLSRMutex3
3	6446	73		mov __CLSRArgs0.Port, __RLSReadPort
3	6446	75		mov __CLSRArgs0.BufferLen, __RLSBytesCountVar
3	6446	77		syscall 22, __CLSRArgs0
3	6446	80		mov __RLSReadBufVar, __CLSRArgs0.Buffer
3	6446	82		mov __RLSBResultVar, __CLSRArgs0.Result
3	6446	84		release __CLSRMutex0
3	6446	85		release __CLSRMutex1
3	6446	86		release __CLSRMutex2
3	6446	87		release __CLSRMutex3
3	6446	88	#line 6446 "NXTDefs.h"
3	6447	88		brtst 5, __RLSBErrorVar, __RLSBResultVar
3	6448	91		mov __RLSLastGoodReadVar, __RLSReadBufVar
3	6449	93		jmp __RLSBDoneVar
3	6451	95		mov __RLSReadBufVar, __RLSLastGoodReadVar
3	6453	97		arrsize __RLSBytesCountVar, __RLSReadBufVar
3	6455	100		subret ____ReadLSBytesVar_return
4	13095	0		or __WDSC_lswArgs.Port, __WDSC_Port, __LSWriteOptionsVar
4	13096	4		arrbuild __WDSC_lswArgs.Buffer, __WDSC_SensorAddress, __WDSC_SensorRegister, __WDSC_WriteBytes
4	13097	10		set __WDSC_lswArgs.ReturnLen, 0
4	13098	13		syscall 21, __WDSC_lswArgs
4	13100	16	#pragma macro 21
4	13100	16		acquire __CLSCSMutex0
4	13100	17		acquire __CLSCSMutex1
4	13100	18		acquire __CLSCSMutex2
4	13100	19		acquire __CLSCSMutex3
4	13100	20		mov __CLSCSArgs0.Port, __WDSC_Port
4	13100	22		syscall 23, __CLSCSArgs0
4	13100	25		mov __WDSC_LSStatus, __CLSCSArgs0.Result
4	13100	27		release __CLSCSMutex0
4	13100	28		release __CLSCSMutex1
4	13100	29		release __CLSCSMutex2
4	13100	30		release __CLSCSMutex3
4	13100	31	#line 13100 "NXTDefs.h"
4	13101	31		brtst 1, __WDSC_StatusLoop, __WDSC_LSStatus
4	13102	34		subret ____MSWriteBytesSub_return
5	7127	0	#line 7127 "NXCDefs.h"
5	7128	0		mov __signed_stack_001PlaySound, __PlaySound_7qG2_aCode_7qG2_000
5	7127	2	#line 7127 "NXCDefs.h"
5	7128	2	#line 7128 "NXCDefs.h"
5	7129	2		set __D0PlaySound, 0
5	7128	5	#line 7128 "NXCDefs.h"
5	7129	5		cmp 4, __D0PlaySound, __signed_stack_001PlaySound, __D0PlaySound
5	7128	9	#line 7128 "NXCDefs.h"
5	7129	9		brtst 4, __ASM_Label_56, __D0PlaySound
5	7128	12	#line 7128 "NXCDefs.h"
5	7129	12		set __signed_stack_001PlaySound, 600
5	7128	15	#line 7128 "NXCDefs.h"
5	7128	15	#line 7128 "NXCDefs.h"
5	7129	15		set __signed_stack_002PlaySound, 200
5	7128	18	#line 7128 "NXCDefs.h"
5	7128	18	#line 7128 "NXCDefs.h"
5	7129	18		set __signed_stack_003PlaySound, 4
5	7128	21	#line 7128 "NXCDefs.h"
5	7128	21	#line 7128 "NXCDefs.h"
5	7129	21		set __D0PlaySound, 0
5	7129	24	#line 7129 "NXCDefs.h"
5	7130	24		acquire __SPTArgsMutex
5	7129	25	#line 7129 "NXCDefs.h"
5	7130	25		mov __SPTArgs.Frequency, __signed_stack_001PlaySound
5	7129	28	#line 7129 "NXCDefs.h"
5	7130	28		mov __SPTArgs.Duration, __signed_stack_002PlaySound
5	7129	31	#line 7129 "NXCDefs.h"
5	7130	31		mov __SPTArgs.Volume, __signed_stack_003PlaySound
5	7129	34	#line 7129 "NXCDefs.h"
5	7130	34		mov __SPTArgs.Loop, __D0PlaySound
5	7129	37	#line 7129 "NXCDefs.h"
5	7130	37		syscall 10, __SPTArgs
5	7129	40	#line 7129 "NXCDefs.h"
5	7130	40		mov __D0PlaySound, __SPTArgs.Result
5	7129	43	#line 7129 "NXCDefs.h"
5	7130	43		release __SPTArgsMutex
5	7129	44	#line 7129 "NXCDefs.h"
5	7129	44	#line 7129 "NXCDefs.h"
5	7130	44		jmp __ASM_Label_65
5	7129	46	#line 7129 "NXCDefs.h"
5	7130	46		mov __signed_stack_001PlaySound, __PlaySound_7qG2_aCode_7qG2_000
5	7129	48	#line 7129 "NXCDefs.h"
5	7130	48	#line 7130 "NXCDefs.h"
5	7131	48		set __D0PlaySound, 1
5	7130	51	#line 7130 "NXCDefs.h"
5	7131	51		cmp 4, __D0PlaySound, __signed_stack_001PlaySound, __D0PlaySound
5	7131	55	#line 7131 "NXCDefs.h"
5	7132	55		brtst 4, __ASM_Label_68, __D0PlaySound
5	7131	58	#line 7131 "NXCDefs.h"
5	7132	58		set __signed_stack_001PlaySound, 600
5	7131	61	#line 7131 "NXCDefs.h"
5	7131	61	#line 7131 "NXCDefs.h"
5	7132	61		set __signed_stack_002PlaySound, 150
5	7131	64	#line 7131 "NXCDefs.h"
5	7131	64	#line 7131 "NXCDefs.h"
5	7132	64		set __signed_stack_003PlaySound, 4
5	7131	67	#line 7131 "NXCDefs.h"
5	7131	67	#line 7131 "NXCDefs.h"
5	7132	67		set __D0PlaySound, 0
5	7132	70	#line 7132 "NXCDefs.h"
5	7133	70		acquire __SPTArgsMutex
5	7132	71	#line 7132 "NXCDefs.h"
5	7133	71		mov __SPTArgs.Frequency, __signed_stack_001PlaySound
5	7132	74	#line 7132 "NXCDefs.h"
5	7133	74		mov __SPTArgs.Duration, __signed_stack_002PlaySound
5	7132	77	#line 7132 "NXCDefs.h"
5	7133	77		mov __SPTArgs.Volume, __signed_stack_003PlaySound
5	7132	80	#line 7132 "NXCDefs.h"
5	7133	80		mov __SPTArgs.Loop, __D0PlaySound
5	7132	83	#line 7132 "NXCDefs.h"
5	7133	83		syscall 10, __SPTArgs
5	7132	86	#line 7132 "NXCDefs.h"
5	7133	86		mov __D0PlaySound, __SPTArgs.Result
5	7132	89	#line 7132 "NXCDefs.h"
5	7133	89		release __SPTArgsMutex
5	7132	90	#line 7132 "NXCDefs.h"
5	7132	90	#line 7132 "NXCDefs.h"
5	7133	90		wait2 NA, __constVal200
5	7132	93	#line 7132 "NXCDefs.h"
5	7132	93	#line 7132 "NXCDefs.h"
5	7133	93	#line 7133 "NXCDefs.h"
5	7134	93		set __signed_stack_001PlaySound, 600
5	7133	96	#line 7133 "NXCDefs.h"
5	7133	96	#line 7133 "NXCDefs.h"
5	7134	96		set __signed_stack_002PlaySound, 150
5	7133	99	#line 7133 "NXCDefs.h"
5	7133	99	#line 7133 "NXCDefs.h"
5	7134	99		set __signed_stack_003PlaySound, 4
5	7133	102	#line 7133 "NXCDefs.h"
5	7133	102	#line 7133 "NXCDefs.h"
5	7134	102		set __D0PlaySound, 0
5	7134	105	#line 7134 "NXCDefs.h"
5	7135	105		acquire __SPTArgsMutex
5	7134	106	#line 7134 "NXCDefs.h"
5	7135	106		mov __SPTArgs.Frequency, __signed_stack_001PlaySound
5	7134	109	#line 7134 "NXCDefs.h"
5	7135	109		mov __SPTArgs.Duration, __signed_stack_002PlaySound
5	7134	112	#line 7134 "NXCDefs.h"
5	7135	112		mov __SPTArgs.Volume, __signed_stack_003PlaySound
5	7134	115	#line 7134 "NXCDefs.h"
5	7135	115		mov __SPTArgs.Loop, __D0PlaySound
5	7134	118	#line 7134 "NXCDefs.h"
5	7135	118		syscall 10, __SPTArgs
5	7134	121	#line 7134 "NXCDefs.h"
5	7135	121		mov __D0PlaySound, __SPTArgs.Result
5	7134	124	#line 7134 "NXCDefs.h"
5	7135	124		release __SPTArgsMutex
5	7134	125	#line 7134 "NXCDefs.h"
5	7134	125	#line 7134 "NXCDefs.h"
5	7135	125		wait2 NA, __constVal150
5	7134	128	#line 7134 "NXCDefs.h"
5	7134	128	#line 7134 "NXCDefs.h"
5	7136	128	#line 7136 "NXCDefs.h"
5	7137	128		jmp __ASM_Label_85
5	7136	130	#line 7136 "NXCDefs.h"
5	7137	130		mov __signed_stack_001PlaySound, __PlaySound_7qG2_aCode_7qG2_000
5	7136	132	#line 7136 "NXCDefs.h"
5	7137	132	#line 7137 "NXCDefs.h"
5	7138	132		set __D0PlaySound, 3
5	7137	135	#line 7137 "NXCDefs.h"
5	7138	135		cmp 4, __D0PlaySound, __signed_stack_001PlaySound, __D0PlaySound
5	7137	139	#line 7137 "NXCDefs.h"
5	7138	139		brtst 4, __ASM_Label_88, __D0PlaySound
5	7137	142	#line 7137 "NXCDefs.h"
5	7138	142		set __PlaySound_7qG2_i_7qG2_001, 4
5	7137	145	#line 7137 "NXCDefs.h"
5	7137	145	#line 7137 "NXCDefs.h"
5	7138	145		mov __signed_stack_001PlaySound, __PlaySound_7qG2_i_7qG2_001
5	7137	147	#line 7137 "NXCDefs.h"
5	7137	147	#line 7137 "NXCDefs.h"
5	7138	147		set __D0PlaySound, 8
5	7137	150	#line 7137 "NXCDefs.h"
5	7138	150		cmp 0, __D0PlaySound, __signed_stack_001PlaySound, __D0PlaySound
5	7137	154	#line 7137 "NXCDefs.h"
5	7138	154		brtst 4, __ASM_Label_90, __D0PlaySound
5	7137	157	#line 7137 "NXCDefs.h"
5	7138	157		jmp __ASM_Label_91
5	7138	159	#line 7138 "NXCDefs.h"
5	7139	159		add __PlaySound_7qG2_i_7qG2_001, __PlaySound_7qG2_i_7qG2_001, __constVal1
5	7139	163	#line 7139 "NXCDefs.h"
5	7140	163		jmp __ASM_Label_89
5	7139	165	#line 7139 "NXCDefs.h"
5	7140	165		set __signed_stack_001PlaySound, 523
5	7139	168	#line 7139 "NXCDefs.h"
5	7139	168	#line 7139 "NXCDefs.h"
5	7140	168		mov __D0PlaySound, __PlaySound_7qG2_i_7qG2_001
5	7139	170	#line 7139 "NXCDefs.h"
5	7140	170		mul __signed_stack_001PlaySound, __signed_stack_001PlaySound, __D0PlaySound
5	7139	174	#line 7139 "NXCDefs.h"
5	7139	174	#line 7139 "NXCDefs.h"
5	7140	174		set __D0PlaySound, 4
5	7139	177	#line 7139 "NXCDefs.h"
5	7140	177		div __signed_stack_001PlaySound, __signed_stack_001PlaySound, __D0PlaySound
5	7139	181	#line 7139 "NXCDefs.h"
5	7139	181	#line 7139 "NXCDefs.h"
5	7140	181		set __signed_stack_002PlaySound, 100
5	7139	184	#line 7139 "NXCDefs.h"
5	7139	184	#line 7139 "NXCDefs.h"
5	7140	184		set __signed_stack_003PlaySound, 4
5	7139	187	#line 7139 "NXCDefs.h"
5	7139	187	#line 7139 "NXCDefs.h"
5	7140	187		set __D0PlaySound, 0
5	7140	190	#line 7140 "NXCDefs.h"
5	7141	190		acquire __SPTArgsMutex
5	7140	191	#line 7140 "NXCDefs.h"
5	7141	191		mov __SPTArgs.Frequency, __signed_stack_001PlaySound
5	7140	194	#line 7140 "NXCDefs.h"
5	7141	194		mov __SPTArgs.Duration, __signed_stack_002PlaySound
5	7140	197	#line 7140 "NXCDefs.h"
5	7141	197		mov __SPTArgs.Volume, __signed_stack_003PlaySound
5	7140	200	#line 7140 "NXCDefs.h"
5	7141	200		mov __SPTArgs.Loop, __D0PlaySound
5	7140	203	#line 7140 "NXCDefs.h"
5	7141	203		syscall 10, __SPTArgs
5	7140	206	#line 7140 "NXCDefs.h"
5	7141	206		mov __D0PlaySound, __SPTArgs.Result
5	7140	209	#line 7140 "NXCDefs.h"
5	7141	209		release __SPTArgsMutex
5	7140	210	#line 7140 "NXCDefs.h"
5	7140	210	#line 7140 "NXCDefs.h"
5	7141	210		wait2 NA, __constVal100
5	7140	213	#line 7140 "NXCDefs.h"
5	7140	213	#line 7140 "NXCDefs.h"
5	7142	213	#line 7142 "NXCDefs.h"
5	7143	213		jmp __ASM_Label_92
5	7142	215	#line 7142 "NXCDefs.h"
5	7142	215	#line 7142 "NXCDefs.h"
5	7143	215		jmp __ASM_Label_105
5	7142	217	#line 7142 "NXCDefs.h"
5	7143	217		mov __signed_stack_001PlaySound, __PlaySound_7qG2_aCode_7qG2_000
5	7142	219	#line 7142 "NXCDefs.h"
5	7143	219	#line 7143 "NXCDefs.h"
5	7144	219		set __D0PlaySound, 2
5	7143	222	#line 7143 "NXCDefs.h"
5	7144	222		cmp 4, __D0PlaySound, __signed_stack_001PlaySound, __D0PlaySound
5	7143	226	#line 7143 "NXCDefs.h"
5	7144	226		brtst 4, __ASM_Label_108, __D0PlaySound
5	7143	229	#line 7143 "NXCDefs.h"
5	7144	229		set __PlaySound_7qG2_i_7qG2_001, 7
5	7143	232	#line 7143 "NXCDefs.h"
5	7143	232	#line 7143 "NXCDefs.h"
5	7144	232		mov __signed_stack_001PlaySound, __PlaySound_7qG2_i_7qG2_001
5	7143	234	#line 7143 "NXCDefs.h"
5	7143	234	#line 7143 "NXCDefs.h"
5	7144	234		set __D0PlaySound, 3
5	7143	237	#line 7143 "NXCDefs.h"
5	7144	237		cmp 1, __D0PlaySound, __signed_stack_001PlaySound, __D0PlaySound
5	7143	241	#line 7143 "NXCDefs.h"
5	7144	241		brtst 4, __ASM_Label_110, __D0PlaySound
5	7143	244	#line 7143 "NXCDefs.h"
5	7144	244		jmp __ASM_Label_111
5	7144	246	#line 7144 "NXCDefs.h"
5	7145	246		sub __PlaySound_7qG2_i_7qG2_001, __PlaySound_7qG2_i_7qG2_001, __constVal1
5	7145	250	#line 7145 "NXCDefs.h"
5	7146	250		jmp __ASM_Label_109
5	7145	252	#line 7145 "NXCDefs.h"
5	7146	252		set __signed_stack_001PlaySound, 523
5	7145	255	#line 7145 "NXCDefs.h"
5	7145	255	#line 7145 "NXCDefs.h"
5	7146	255		mov __D0PlaySound, __PlaySound_7qG2_i_7qG2_001
5	7145	257	#line 7145 "NXCDefs.h"
5	7146	257		mul __signed_stack_001PlaySound, __signed_stack_001PlaySound, __D0PlaySound
5	7145	261	#line 7145 "NXCDefs.h"
5	7145	261	#line 7145 "NXCDefs.h"
5	7146	261		set __D0PlaySound, 4
5	7145	264	#line 7145 "NXCDefs.h"
5	7146	264		div __signed_stack_001PlaySound, __signed_stack_001PlaySound, __D0PlaySound
5	7145	268	#line 7145 "NXCDefs.h"
5	7145	268	#line 7145 "NXCDefs.h"
5	7146	268		set __signed_stack_002PlaySound, 100
5	7145	271	#line 7145 "NXCDefs.h"
5	7145	271	#line 7145 "NXCDefs.h"
5	7146	271		set __signed_stack_003PlaySound, 4
5	7145	274	#line 7145 "NXCDefs.h"
5	7145	274	#line 7145 "NXCDefs.h"
5	7146	274		set __D0PlaySound, 0
5	7146	277	#line 7146 "NXCDefs.h"
5	7147	277		acquire __SPTArgsMutex
5	7146	278	#line 7146 "NXCDefs.h"
5	7147	278		mov __SPTArgs.Frequency, __signed_stack_001PlaySound
5	7146	281	#line 7146 "NXCDefs.h"
5	7147	281		mov __SPTArgs.Duration, __signed_stack_002PlaySound
5	7146	284	#line 7146 "NXCDefs.h"
5	7147	284		mov __SPTArgs.Volume, __signed_stack_003PlaySound
5	7146	287	#line 7146 "NXCDefs.h"
5	7147	287		mov __SPTArgs.Loop, __D0PlaySound
5	7146	290	#line 7146 "NXCDefs.h"
5	7147	290		syscall 10, __SPTArgs
5	7146	293	#line 7146 "NXCDefs.h"
5	7147	293		mov __D0PlaySound, __SPTArgs.Result
5	7146	296	#line 7146 "NXCDefs.h"
5	7147	296		release __SPTArgsMutex
5	7146	297	#line 7146 "NXCDefs.h"
5	7146	297	#line 7146 "NXCDefs.h"
5	7147	297		wait2 NA, __constVal100
5	7146	300	#line 7146 "NXCDefs.h"
5	7146	300	#line 7146 "NXCDefs.h"
5	7148	300	#line 7148 "NXCDefs.h"
5	7149	300		jmp __ASM_Label_112
5	7148	302	#line 7148 "NXCDefs.h"
5	7148	302	#line 7148 "NXCDefs.h"
5	7149	302		jmp __ASM_Label_125
5	7148	304	#line 7148 "NXCDefs.h"
5	7149	304		mov __signed_stack_001PlaySound, __PlaySound_7qG2_aCode_7qG2_000
5	7148	306	#line 7148 "NXCDefs.h"
5	7149	306	#line 7149 "NXCDefs.h"
5	7150	306		set __D0PlaySound, 4
5	7149	309	#line 7149 "NXCDefs.h"
5	7150	309		cmp 4, __D0PlaySound, __signed_stack_001PlaySound, __D0PlaySound
5	7150	313	#line 7150 "NXCDefs.h"
5	7151	313		brtst 4, __ASM_Label_128, __D0PlaySound
5	7150	316	#line 7150 "NXCDefs.h"
5	7151	316		set __signed_stack_001PlaySound, 100
5	7150	319	#line 7150 "NXCDefs.h"
5	7150	319	#line 7150 "NXCDefs.h"
5	7151	319		set __signed_stack_002PlaySound, 500
5	7150	322	#line 7150 "NXCDefs.h"
5	7150	322	#line 7150 "NXCDefs.h"
5	7151	322		set __signed_stack_003PlaySound, 4
5	7150	325	#line 7150 "NXCDefs.h"
5	7150	325	#line 7150 "NXCDefs.h"
5	7151	325		set __D0PlaySound, 0
5	7151	328	#line 7151 "NXCDefs.h"
5	7152	328		acquire __SPTArgsMutex
5	7151	329	#line 7151 "NXCDefs.h"
5	7152	329		mov __SPTArgs.Frequency, __signed_stack_001PlaySound
5	7151	332	#line 7151 "NXCDefs.h"
5	7152	332		mov __SPTArgs.Duration, __signed_stack_002PlaySound
5	7151	335	#line 7151 "NXCDefs.h"
5	7152	335		mov __SPTArgs.Volume, __signed_stack_003PlaySound
5	7151	338	#line 7151 "NXCDefs.h"
5	7152	338		mov __SPTArgs.Loop, __D0PlaySound
5	7151	341	#line 7151 "NXCDefs.h"
5	7152	341		syscall 10, __SPTArgs
5	7151	344	#line 7151 "NXCDefs.h"
5	7152	344		mov __D0PlaySound, __SPTArgs.Result
5	7151	347	#line 7151 "NXCDefs.h"
5	7152	347		release __SPTArgsMutex
5	7151	348	#line 7151 "NXCDefs.h"
5	7151	348	#line 7151 "NXCDefs.h"
5	7152	348		wait2 NA, __constVal500
5	7151	351	#line 7151 "NXCDefs.h"
5	7151	351	#line 7151 "NXCDefs.h"
5	7153	351	#line 7153 "NXCDefs.h"
5	7154	351		jmp __ASM_Label_137
5	7153	353	#line 7153 "NXCDefs.h"
5	7154	353		mov __signed_stack_001PlaySound, __PlaySound_7qG2_aCode_7qG2_000
5	7153	355	#line 7153 "NXCDefs.h"
5	7154	355	#line 7154 "NXCDefs.h"
5	7155	355		set __D0PlaySound, 5
5	7154	358	#line 7154 "NXCDefs.h"
5	7155	358		cmp 4, __D0PlaySound, __signed_stack_001PlaySound, __D0PlaySound
5	7154	362	#line 7154 "NXCDefs.h"
5	7155	362		brtst 4, __ASM_Label_140, __D0PlaySound
5	7154	365	#line 7154 "NXCDefs.h"
5	7155	365		set __PlaySound_7qG2_i_7qG2_001, 4
5	7154	368	#line 7154 "NXCDefs.h"
5	7154	368	#line 7154 "NXCDefs.h"
5	7155	368		mov __signed_stack_001PlaySound, __PlaySound_7qG2_i_7qG2_001
5	7154	370	#line 7154 "NXCDefs.h"
5	7154	370	#line 7154 "NXCDefs.h"
5	7155	370		set __D0PlaySound, 8
5	7154	373	#line 7154 "NXCDefs.h"
5	7155	373		cmp 0, __D0PlaySound, __signed_stack_001PlaySound, __D0PlaySound
5	7154	377	#line 7154 "NXCDefs.h"
5	7155	377		brtst 4, __ASM_Label_142, __D0PlaySound
5	7154	380	#line 7154 "NXCDefs.h"
5	7155	380		jmp __ASM_Label_143
5	7155	382	#line 7155 "NXCDefs.h"
5	7156	382		add __PlaySound_7qG2_i_7qG2_001, __PlaySound_7qG2_i_7qG2_001, __constVal1
5	7156	386	#line 7156 "NXCDefs.h"
5	7157	386		jmp __ASM_Label_141
5	7156	388	#line 7156 "NXCDefs.h"
5	7157	388		set __signed_stack_001PlaySound, 523
5	7156	391	#line 7156 "NXCDefs.h"
5	7156	391	#line 7156 "NXCDefs.h"
5	7157	391		mov __D0PlaySound, __PlaySound_7qG2_i_7qG2_001
5	7156	393	#line 7156 "NXCDefs.h"
5	7157	393		mul __signed_stack_001PlaySound, __signed_stack_001PlaySound, __D0PlaySound
5	7156	397	#line 7156 "NXCDefs.h"
5	7156	397	#line 7156 "NXCDefs.h"
5	7157	397		set __D0PlaySound, 4
5	7156	400	#line 7156 "NXCDefs.h"
5	7157	400		div __signed_stack_001PlaySound, __signed_stack_001PlaySound, __D0PlaySound
5	7156	404	#line 7156 "NXCDefs.h"
5	7156	404	#line 7156 "NXCDefs.h"
5	7157	404		set __signed_stack_002PlaySound, 50
5	7156	407	#line 7156 "NXCDefs.h"
5	7156	407	#line 7156 "NXCDefs.h"
5	7157	407		set __signed_stack_003PlaySound, 4
5	7156	410	#line 7156 "NXCDefs.h"
5	7156	410	#line 7156 "NXCDefs.h"
5	7157	410		set __D0PlaySound, 0
5	7157	413	#line 7157 "NXCDefs.h"
5	7158	413		acquire __SPTArgsMutex
5	7157	414	#line 7157 "NXCDefs.h"
5	7158	414		mov __SPTArgs.Frequency, __signed_stack_001PlaySound
5	7157	417	#line 7157 "NXCDefs.h"
5	7158	417		mov __SPTArgs.Duration, __signed_stack_002PlaySound
5	7157	420	#line 7157 "NXCDefs.h"
5	7158	420		mov __SPTArgs.Volume, __signed_stack_003PlaySound
5	7157	423	#line 7157 "NXCDefs.h"
5	7158	423		mov __SPTArgs.Loop, __D0PlaySound
5	7157	426	#line 7157 "NXCDefs.h"
5	7158	426		syscall 10, __SPTArgs
5	7157	429	#line 7157 "NXCDefs.h"
5	7158	429		mov __D0PlaySound, __SPTArgs.Result
5	7157	432	#line 7157 "NXCDefs.h"
5	7158	432		release __SPTArgsMutex
5	7157	433	#line 7157 "NXCDefs.h"
5	7157	433	#line 7157 "NXCDefs.h"
5	7158	433		wait2 NA, __constVal50
5	7157	436	#line 7157 "NXCDefs.h"
5	7157	436	#line 7157 "NXCDefs.h"
5	7169	436	#line 7169 "NXCDefs.h"
5	7170	436		jmp __ASM_Label_144
5	7169	438	#line 7169 "NXCDefs.h"
5	7169	438	#line 7169 "NXCDefs.h"
5	7169	438	#line 7169 "NXCDefs.h"
5	7169	438	#line 7169 "NXCDefs.h"
5	7169	438	#line 7169 "NXCDefs.h"
5	7169	438	#line 7169 "NXCDefs.h"
5	7169	438	#line 7169 "NXCDefs.h"
5	7169	438	#line 7169 "NXCDefs.h"
5	7170	438		subret __PlaySound_return
6	153	0	#line 153 "C:\Users\luan\AppData\Local\Temp\temp.nxc"
6	154	0		set __PlaySound_7qG2_aCode_7qG2_000, 2
6	153	3	#line 153 "C:\Users\luan\AppData\Local\Temp\temp.nxc"
6	154	3	#line 154 "C:\Users\luan\AppData\Local\Temp\temp.nxc"
6	155	3		subcall PlaySound, __PlaySound_return
6	154	6	#line 154 "C:\Users\luan\AppData\Local\Temp\temp.nxc"
6	156	6	#line 156 "C:\Users\luan\AppData\Local\Temp\temp.nxc"
6	157	6		subret __bip_return
7	160	0	#line 160 "C:\Users\luan\AppData\Local\Temp\temp.nxc"
7	161	0		set __nbip_7qG2_i_7qG2_000, 0
7	160	3	#line 160 "C:\Users\luan\AppData\Local\Temp\temp.nxc"
7	160	3	#line 160 "C:\Users\luan\AppData\Local\Temp\temp.nxc"
7	161	3		mov __signed_stack_001nbip, __nbip_7qG2_i_7qG2_000
7	160	5	#line 160 "C:\Users\luan\AppData\Local\Temp\temp.nxc"
7	160	5	#line 160 "C:\Users\luan\AppData\Local\Temp\temp.nxc"
7	161	5		mov __D0nbip, __nbip_7qG2_n_7qG2_000
7	160	7	#line 160 "C:\Users\luan\AppData\Local\Temp\temp.nxc"
7	161	7		cmp 0, __D0nbip, __signed_stack_001nbip, __D0nbip
7	160	11	#line 160 "C:\Users\luan\AppData\Local\Temp\temp.nxc"
7	161	11		brtst 4, __ASM_Label_492, __D0nbip
7	160	14	#line 160 "C:\Users\luan\AppData\Local\Temp\temp.nxc"
7	161	14		jmp __ASM_Label_493
7	161	16	#line 161 "C:\Users\luan\AppData\Local\Temp\temp.nxc"
7	162	16		add __nbip_7qG2_i_7qG2_000, __nbip_7qG2_i_7qG2_000, __constVal1
7	162	20	#line 162 "C:\Users\luan\AppData\Local\Temp\temp.nxc"
7	163	20		jmp __ASM_Label_491
7	163	22	#line 163 "C:\Users\luan\AppData\Local\Temp\temp.nxc"
7	164	22		subcall bip, __bip_return
7	163	25	#line 163 "C:\Users\luan\AppData\Local\Temp\temp.nxc"
7	166	25	#line 166 "C:\Users\luan\AppData\Local\Temp\temp.nxc"
7	167	25		jmp __ASM_Label_494
7	166	27	#line 166 "C:\Users\luan\AppData\Local\Temp\temp.nxc"
7	166	27	#line 166 "C:\Users\luan\AppData\Local\Temp\temp.nxc"
7	167	27		subret __nbip_return
8	176	0	#line 176 "C:\Users\luan\AppData\Local\Temp\temp.nxc"
8	176	0	#line 176 "C:\Users\luan\AppData\Local\Temp\temp.nxc"
8	178	0	#line 178 "C:\Users\luan\AppData\Local\Temp\temp.nxc"
8	179	0		subcall init, __init_return
8	178	3	#line 178 "C:\Users\luan\AppData\Local\Temp\temp.nxc"
8	179	3	#line 179 "C:\Users\luan\AppData\Local\Temp\temp.nxc"
8	180	3		set __D0consultor, 1
8	180	6	#line 180 "C:\Users\luan\AppData\Local\Temp\temp.nxc"
8	181	6		tst 5, __D0consultor, __D0consultor
8	180	9	#line 180 "C:\Users\luan\AppData\Local\Temp\temp.nxc"
8	181	9		brtst 4, __ASM_Label_502, __D0consultor
8	180	12	#line 180 "C:\Users\luan\AppData\Local\Temp\temp.nxc"
8	181	12	#pragma macro 9
8	181	12		acquire __MRMutex
8	181	13		mov __MRArgs.QueueID, __constVal2
8	181	15		mov __MRArgs.Remove, __constVal1
8	181	18		set __RRNTmpVal, 0
8	181	21		syscall 27, __MRArgs
8	181	24		unflatten __RRNTmpVal, __RRNErr, __MRArgs.Message, __RRNTmpVal
8	181	29		mov __consultor_7qG2_mensagem_7qG2_000, __RRNTmpVal
8	181	31		mov __D0consultor, __MRArgs.Result
8	181	34		release __MRMutex
8	5701	35	#line 5701 "C:\Users\luan\AppData\Local\Temp\temp.nxc"
8	180	35	#line 180 "C:\Users\luan\AppData\Local\Temp\temp.nxc"
8	180	35	#line 180 "C:\Users\luan\AppData\Local\Temp\temp.nxc"
8	183	35	#line 183 "C:\Users\luan\AppData\Local\Temp\temp.nxc"
8	184	35		mov __D0consultor, __consultor_7qG2_mensagem_7qG2_000
8	187	37		brcmp 4, __ASM_Label_508, __constVal7, __D0consultor
8	188	41		brcmp 4, __ASM_Label_509, __constVal10, __D0consultor
8	189	45		brcmp 4, __ASM_Label_510, __constVal15, __D0consultor
8	190	49		brcmp 4, __ASM_Label_517, __constVal12, __D0consultor
8	191	53		jmp __ASM_Label_507
8	185	55	#line 185 "C:\Users\luan\AppData\Local\Temp\temp.nxc"
8	186	55	#line 186 "C:\Users\luan\AppData\Local\Temp\temp.nxc"
8	187	55		subcall CalibraFaixaBase, __CalibraFaixaBase_return
8	186	58	#line 186 "C:\Users\luan\AppData\Local\Temp\temp.nxc"
8	187	58	#line 187 "C:\Users\luan\AppData\Local\Temp\temp.nxc"
8	188	58		jmp __ASM_Label_507
8	187	60	#line 187 "C:\Users\luan\AppData\Local\Temp\temp.nxc"
8	189	60	#line 189 "C:\Users\luan\AppData\Local\Temp\temp.nxc"
8	190	60	#line 190 "C:\Users\luan\AppData\Local\Temp\temp.nxc"
8	191	60		jmp __ASM_Label_507
8	190	62	#line 190 "C:\Users\luan\AppData\Local\Temp\temp.nxc"
8	191	62	#line 191 "C:\Users\luan\AppData\Local\Temp\temp.nxc"
8	192	62	#line 192 "C:\Users\luan\AppData\Local\Temp\temp.nxc"
8	193	62		subcall bip, __bip_return
8	192	65	#line 192 "C:\Users\luan\AppData\Local\Temp\temp.nxc"
8	192	65	#line 192 "C:\Users\luan\AppData\Local\Temp\temp.nxc"
8	193	65		set __Wait_7qG2_ms_7qG2_000_inline_consultor, 50
8	192	68	#line 192 "C:\Users\luan\AppData\Local\Temp\temp.nxc"
8	8551	68	#line 8551 "NXCDefs.h"
8	8552	68		wait2 NA, __Wait_7qG2_ms_7qG2_000_inline_consultor
8	8551	71	#line 8551 "NXCDefs.h"
8	193	71	#line 193 "C:\Users\luan\AppData\Local\Temp\temp.nxc"
8	194	71	#line 194 "C:\Users\luan\AppData\Local\Temp\temp.nxc"
8	195	71		mov __D0consultor, BonecosCapturados
8	195	73	#line 195 "C:\Users\luan\AppData\Local\Temp\temp.nxc"
8	196	73		tst 5, __D0consultor, __D0consultor
8	195	76	#line 195 "C:\Users\luan\AppData\Local\Temp\temp.nxc"
8	196	76		brtst 4, __ASM_Label_515, __D0consultor
8	195	79	#line 195 "C:\Users\luan\AppData\Local\Temp\temp.nxc"
8	196	79	#pragma macro 14
8	196	79		acquire __RemoteMutex
8	196	80		mov __SRSTmpBuf, __DCMessageWritePacket
8	196	82		replace __SRSTmpBuf, __SRSTmpBuf, __constVal2, __constVal1
8	196	87		replace __SRSTmpBuf, __SRSTmpBuf, __constVal3, __constVal5
8	196	92		mov __SRSTmpLongVal, __constVal16
8	196	94		flatten __SRSFlattenBuf, __SRSTmpLongVal
8	196	97		arrbuild __SRSSendBuf, __SRSTmpBuf, __SRSFlattenBuf
8	196	102		acquire __CBTWMutex
8	196	103		mov __CBTWArgs.Connection, __constVal0
8	196	106		mov __CBTWArgs.Buffer, __SRSSendBuf
8	196	108		syscall 29, __CBTWArgs
8	196	111		mov __D0consultor, __CBTWArgs.Result
8	196	114		release __CBTWMutex
8	196	115		release __RemoteMutex
8	5752	116	#line 5752 "C:\Users\luan\AppData\Local\Temp\temp.nxc"
8	195	116	#line 195 "C:\Users\luan\AppData\Local\Temp\temp.nxc"
8	195	116	#line 195 "C:\Users\luan\AppData\Local\Temp\temp.nxc"
8	199	116	#line 199 "C:\Users\luan\AppData\Local\Temp\temp.nxc"
8	200	116		jmp __ASM_Label_516
8	199	118	#line 199 "C:\Users\luan\AppData\Local\Temp\temp.nxc"
8	200	118	#pragma macro 14
8	200	118		acquire __RemoteMutex
8	200	119		mov __SRSTmpBuf, __DCMessageWritePacket
8	200	121		replace __SRSTmpBuf, __SRSTmpBuf, __constVal2, __constVal1
8	200	126		replace __SRSTmpBuf, __SRSTmpBuf, __constVal3, __constVal5
8	200	131		mov __SRSTmpLongVal, __constVal17
8	200	134		flatten __SRSFlattenBuf, __SRSTmpLongVal
8	200	137		arrbuild __SRSSendBuf, __SRSTmpBuf, __SRSFlattenBuf
8	200	142		acquire __CBTWMutex
8	200	143		mov __CBTWArgs.Connection, __constVal0
8	200	146		mov __CBTWArgs.Buffer, __SRSSendBuf
8	200	148		syscall 29, __CBTWArgs
8	200	151		mov __D0consultor, __CBTWArgs.Result
8	200	154		release __CBTWMutex
8	200	155		release __RemoteMutex
8	5759	156	#line 5759 "C:\Users\luan\AppData\Local\Temp\temp.nxc"
8	199	156	#line 199 "C:\Users\luan\AppData\Local\Temp\temp.nxc"
8	199	156	#line 199 "C:\Users\luan\AppData\Local\Temp\temp.nxc"
8	201	156	#line 201 "C:\Users\luan\AppData\Local\Temp\temp.nxc"
8	203	156	#line 203 "C:\Users\luan\AppData\Local\Temp\temp.nxc"
8	204	156		jmp __ASM_Label_507
8	203	158	#line 203 "C:\Users\luan\AppData\Local\Temp\temp.nxc"
8	204	158	#line 204 "C:\Users\luan\AppData\Local\Temp\temp.nxc"
8	205	158	#line 205 "C:\Users\luan\AppData\Local\Temp\temp.nxc"
8	206	158		subcall virar, __virar_return
8	205	161	#line 205 "C:\Users\luan\AppData\Local\Temp\temp.nxc"
8	206	161	#line 206 "C:\Users\luan\AppData\Local\Temp\temp.nxc"
8	206	161	#line 206 "C:\Users\luan\AppData\Local\Temp\temp.nxc"
8	209	161	#line 209 "C:\Users\luan\AppData\Local\Temp\temp.nxc"
8	210	161	#line 210 "C:\Users\luan\AppData\Local\Temp\temp.nxc"
8	211	161		subcall TemBoneco, __TemBoneco_return
8	210	164	#line 210 "C:\Users\luan\AppData\Local\Temp\temp.nxc"
8	211	164		mov __D0consultor, __D0TemBoneco
8	211	166	#line 211 "C:\Users\luan\AppData\Local\Temp\temp.nxc"
8	212	166		tst 5, __D0consultor, __D0consultor
8	211	169	#line 211 "C:\Users\luan\AppData\Local\Temp\temp.nxc"
8	212	169		brtst 4, __ASM_Label_520, __D0consultor
8	212	172	#line 212 "C:\Users\luan\AppData\Local\Temp\temp.nxc"
8	213	172		subcall BonecoNaFrente, __BonecoNaFrente_return
8	212	175	#line 212 "C:\Users\luan\AppData\Local\Temp\temp.nxc"
8	214	175	#line 214 "C:\Users\luan\AppData\Local\Temp\temp.nxc"
8	216	175	#line 216 "C:\Users\luan\AppData\Local\Temp\temp.nxc"
8	217	175		jmp __ASM_Label_501
8	216	177	#line 216 "C:\Users\luan\AppData\Local\Temp\temp.nxc"
8	216	177	#line 216 "C:\Users\luan\AppData\Local\Temp\temp.nxc"
8	217	177		subret __consultor_return
9	219	0	#line 219 "C:\Users\luan\AppData\Local\Temp\temp.nxc"
9	220	0		subcall InicializaSensores, __InicializaSensores_return
9	219	3	#line 219 "C:\Users\luan\AppData\Local\Temp\temp.nxc"
9	220	3	#line 220 "C:\Users\luan\AppData\Local\Temp\temp.nxc"
9	221	3		subcall VoltaGarra, __VoltaGarra_return
9	220	6	#line 220 "C:\Users\luan\AppData\Local\Temp\temp.nxc"
9	222	6	#line 222 "C:\Users\luan\AppData\Local\Temp\temp.nxc"
9	223	6		subcall BonecoAlvo, __BonecoAlvo_return
9	222	9	#line 222 "C:\Users\luan\AppData\Local\Temp\temp.nxc"
9	225	9	#line 225 "C:\Users\luan\AppData\Local\Temp\temp.nxc"
9	226	9		set distUS, 20
9	225	12	#line 225 "C:\Users\luan\AppData\Local\Temp\temp.nxc"
9	225	12	#line 225 "C:\Users\luan\AppData\Local\Temp\temp.nxc"
9	227	12	#line 227 "C:\Users\luan\AppData\Local\Temp\temp.nxc"
9	228	12		set BonecosCapturados, 0
9	227	15	#line 227 "C:\Users\luan\AppData\Local\Temp\temp.nxc"
9	227	15	#line 227 "C:\Users\luan\AppData\Local\Temp\temp.nxc"
9	229	15	#line 229 "C:\Users\luan\AppData\Local\Temp\temp.nxc"
9	230	15		subret __init_return
10	231	0	#line 231 "C:\Users\luan\AppData\Local\Temp\temp.nxc"
10	232	0		set __SetSensorUltrasonic_7qG2_port_7qG2_000_inline_InicializaSensores, 0
10	231	3	#line 231 "C:\Users\luan\AppData\Local\Temp\temp.nxc"
10	4352	3	#line 4352 "NXCDefs.h"
10	4353	3		mov __SetSensorLowspeed_7qG2_port_7qG2_000_inline_SetSensorUltrasonic_inline_InicializaSensores, __SetSensorUltrasonic_7qG2_port_7qG2_000_inline_InicializaSensores
10	4352	5	#line 4352 "NXCDefs.h"
10	4352	5	#line 4352 "NXCDefs.h"
10	4353	5		mov __SetSensorLowspeed_7qG2_bIsPowered_7qG2_000_inline_SetSensorUltrasonic_inline_InicializaSensores, __constVal1
10	4342	7	#line 4342 "NXCDefs.h"
10	4343	7		mov __SetSensorType_7qG2_port_7qG2_000_inline_SetSensorLowspeed_inline_SetSensorUltrasonic_inline_InicializaSensores, __SetSensorLowspeed_7qG2_port_7qG2_000_inline_SetSensorUltrasonic_inline_InicializaSensores
10	4342	9	#line 4342 "NXCDefs.h"
10	4342	9	#line 4342 "NXCDefs.h"
10	4343	9		mov __DU0SetSensorLowspeed_inline_SetSensorUltrasonic, __SetSensorLowspeed_7qG2_bIsPowered_7qG2_000_inline_SetSensorUltrasonic_inline_InicializaSensores
10	4342	12	#line 4342 "NXCDefs.h"
10	4343	12		tst 5, __D0SetSensorLowspeed_inline_SetSensorUltrasonic, __DU0SetSensorLowspeed_inline_SetSensorUltrasonic
10	4342	15	#line 4342 "NXCDefs.h"
10	4343	15		brtst 4, __001__001__ASM_Label_36, __D0SetSensorLowspeed_inline_SetSensorUltrasonic
10	4342	18	#line 4342 "NXCDefs.h"
10	4343	18		set __DU0SetSensorLowspeed_inline_SetSensorUltrasonic, 11
10	4342	21	#line 4342 "NXCDefs.h"
10	4342	21	#line 4342 "NXCDefs.h"
10	4343	21		jmp __001__001__ASM_Label_37
10	4342	23	#line 4342 "NXCDefs.h"
10	4343	23		set __DU0SetSensorLowspeed_inline_SetSensorUltrasonic, 10
10	4342	26	#line 4342 "NXCDefs.h"
10	4342	26	#line 4342 "NXCDefs.h"
10	4343	26		mov __SetSensorType_7qG2_type_7qG2_000_inline_SetSensorLowspeed_inline_SetSensorUltrasonic_inline_InicializaSensores, __DU0SetSensorLowspeed_inline_SetSensorUltrasonic
10	4247	29	#line 4247 "NXCDefs.h"
10	4248	29		setin __SetSensorType_7qG2_type_7qG2_000_inline_SetSensorLowspeed_inline_SetSensorUltrasonic_inline_InicializaSensores, __SetSensorType_7qG2_port_7qG2_000_inline_SetSensorLowspeed_inline_SetSensorUltrasonic_inline_InicializaSensores, 0
10	4247	33	#line 4247 "NXCDefs.h"
10	4343	33	#line 4343 "NXCDefs.h"
10	4343	33	#line 4343 "NXCDefs.h"
10	4344	33		mov __SetSensorMode_7qG2_port_7qG2_000_inline_SetSensorLowspeed_inline_SetSensorUltrasonic_inline_InicializaSensores, __SetSensorLowspeed_7qG2_port_7qG2_000_inline_SetSensorUltrasonic_inline_InicializaSensores
10	4343	35	#line 4343 "NXCDefs.h"
10	4343	35	#line 4343 "NXCDefs.h"
10	4344	35		set __SetSensorMode_7qG2_mode_7qG2_000_inline_SetSensorLowspeed_inline_SetSensorUltrasonic_inline_InicializaSensores, 0
10	4343	38	#line 4343 "NXCDefs.h"
10	4260	38	#line 4260 "NXCDefs.h"
10	4261	38		setin __SetSensorMode_7qG2_mode_7qG2_000_inline_SetSensorLowspeed_inline_SetSensorUltrasonic_inline_InicializaSensores, __SetSensorMode_7qG2_port_7qG2_000_inline_SetSensorLowspeed_inline_SetSensorUltrasonic_inline_InicializaSensores, 1
10	4260	42	#line 4260 "NXCDefs.h"
10	4344	42	#line 4344 "NXCDefs.h"
10	4344	42	#line 4344 "NXCDefs.h"
10	4344	42	#line 4344 "NXCDefs.h"
10	4278	42	#line 4278 "NXCDefs.h"
10	4279	42	#pragma macro 4
10	4279	42		mov __ResetSensorPort, __SetSensorLowspeed_7qG2_port_7qG2_000_inline_SetSensorUltrasonic_inline_InicializaSensores
10	4279	44		subcall __ResetSensorSubroutine, ____ResetSensorSubroutine_return
10	5922	47	#line 5922 "NXCDefs.h"
10	4278	47	#line 4278 "NXCDefs.h"
10	4345	47	#line 4345 "NXCDefs.h"
10	4352	47	#line 4352 "NXCDefs.h"
10	233	47	#line 233 "C:\Users\luan\AppData\Local\Temp\temp.nxc"
10	233	47	#line 233 "C:\Users\luan\AppData\Local\Temp\temp.nxc"
10	234	47		set __SetSensorLowspeed_7qG2_port_7qG2_000_inline_InicializaSensores, 2
10	233	50	#line 233 "C:\Users\luan\AppData\Local\Temp\temp.nxc"
10	234	50	#line 234 "C:\Users\luan\AppData\Local\Temp\temp.nxc"
10	235	50		mov __SetSensorLowspeed_7qG2_bIsPowered_7qG2_000_inline_InicializaSensores, __constVal1
10	4342	52	#line 4342 "NXCDefs.h"
10	4343	52		mov __SetSensorType_7qG2_port_7qG2_000_inline_SetSensorLowspeed_inline_InicializaSensores, __SetSensorLowspeed_7qG2_port_7qG2_000_inline_InicializaSensores
10	4342	54	#line 4342 "NXCDefs.h"
10	4342	54	#line 4342 "NXCDefs.h"
10	4343	54		mov __DU0SetSensorLowspeed_inline_InicializaSensores, __SetSensorLowspeed_7qG2_bIsPowered_7qG2_000_inline_InicializaSensores
10	4342	56	#line 4342 "NXCDefs.h"
10	4343	56		tst 5, __D0SetSensorLowspeed_inline_InicializaSensores, __DU0SetSensorLowspeed_inline_InicializaSensores
10	4342	59	#line 4342 "NXCDefs.h"
10	4343	59		brtst 4, __004__ASM_Label_36, __D0SetSensorLowspeed_inline_InicializaSensores
10	4342	62	#line 4342 "NXCDefs.h"
10	4343	62		set __DU0SetSensorLowspeed_inline_InicializaSensores, 11
10	4342	65	#line 4342 "NXCDefs.h"
10	4342	65	#line 4342 "NXCDefs.h"
10	4343	65		jmp __004__ASM_Label_37
10	4342	67	#line 4342 "NXCDefs.h"
10	4343	67		set __DU0SetSensorLowspeed_inline_InicializaSensores, 10
10	4342	70	#line 4342 "NXCDefs.h"
10	4342	70	#line 4342 "NXCDefs.h"
10	4343	70		mov __SetSensorType_7qG2_type_7qG2_000_inline_SetSensorLowspeed_inline_InicializaSensores, __DU0SetSensorLowspeed_inline_InicializaSensores
10	4247	72	#line 4247 "NXCDefs.h"
10	4248	72		setin __SetSensorType_7qG2_type_7qG2_000_inline_SetSensorLowspeed_inline_InicializaSensores, __SetSensorType_7qG2_port_7qG2_000_inline_SetSensorLowspeed_inline_InicializaSensores, 0
10	4247	76	#line 4247 "NXCDefs.h"
10	4343	76	#line 4343 "NXCDefs.h"
10	4343	76	#line 4343 "NXCDefs.h"
10	4344	76		mov __SetSensorMode_7qG2_port_7qG2_000_inline_SetSensorLowspeed_inline_InicializaSensores, __SetSensorLowspeed_7qG2_port_7qG2_000_inline_InicializaSensores
10	4343	78	#line 4343 "NXCDefs.h"
10	4343	78	#line 4343 "NXCDefs.h"
10	4344	78		set __SetSensorMode_7qG2_mode_7qG2_000_inline_SetSensorLowspeed_inline_InicializaSensores, 0
10	4343	81	#line 4343 "NXCDefs.h"
10	4260	81	#line 4260 "NXCDefs.h"
10	4261	81		setin __SetSensorMode_7qG2_mode_7qG2_000_inline_SetSensorLowspeed_inline_InicializaSensores, __SetSensorMode_7qG2_port_7qG2_000_inline_SetSensorLowspeed_inline_InicializaSensores, 1
10	4260	85	#line 4260 "NXCDefs.h"
10	4344	85	#line 4344 "NXCDefs.h"
10	4344	85	#line 4344 "NXCDefs.h"
10	4344	85	#line 4344 "NXCDefs.h"
10	4278	85	#line 4278 "NXCDefs.h"
10	4279	85	#pragma macro 4
10	4279	85		mov __ResetSensorPort, __SetSensorLowspeed_7qG2_port_7qG2_000_inline_InicializaSensores
10	4279	87		subcall __ResetSensorSubroutine, ____ResetSensorSubroutine_return
10	6014	90	#line 6014 "NXCDefs.h"
10	4278	90	#line 4278 "NXCDefs.h"
10	4345	90	#line 4345 "NXCDefs.h"
10	234	90	#line 234 "C:\Users\luan\AppData\Local\Temp\temp.nxc"
10	234	90	#line 234 "C:\Users\luan\AppData\Local\Temp\temp.nxc"
10	235	90	#pragma macro 12
10	235	90		acquire __WDSCmutex
10	235	91		mov __WDSC_Port, __constVal2
10	235	93		mov __WDSC_SensorAddress, __constVal2
10	235	95		set __WDSC_SensorRegister, 65
10	235	98		arrbuild __WDSC_WriteBytes, __constVal0
10	235	102		subcall __MSWriteBytesSub, ____MSWriteBytesSub_return
10	235	105		release __WDSCmutex
10	6019	106	#line 6019 "C:\Users\luan\AppData\Local\Temp\temp.nxc"
10	234	106	#line 234 "C:\Users\luan\AppData\Local\Temp\temp.nxc"
10	234	106	#line 234 "C:\Users\luan\AppData\Local\Temp\temp.nxc"
10	235	106	#line 235 "C:\Users\luan\AppData\Local\Temp\temp.nxc"
10	236	106		set __SetSensorHTGyro_7qG2_port_7qG2_000_inline_InicializaSensores, 3
10	235	109	#line 235 "C:\Users\luan\AppData\Local\Temp\temp.nxc"
10	13778	109	#line 13778 "NXCDefs.h"
10	13779	109		mov __SetSensorType_7qG2_port_7qG2_000_inline_SetSensorHTGyro_inline_InicializaSensores, __SetSensorHTGyro_7qG2_port_7qG2_000_inline_InicializaSensores
10	13778	111	#line 13778 "NXCDefs.h"
10	13778	111	#line 13778 "NXCDefs.h"
10	13779	111		set __SetSensorType_7qG2_type_7qG2_000_inline_SetSensorHTGyro_inline_InicializaSensores, 6
10	13778	114	#line 13778 "NXCDefs.h"
10	4247	114	#line 4247 "NXCDefs.h"
10	4248	114		setin __SetSensorType_7qG2_type_7qG2_000_inline_SetSensorHTGyro_inline_InicializaSensores, __SetSensorType_7qG2_port_7qG2_000_inline_SetSensorHTGyro_inline_InicializaSensores, 0
10	4247	118	#line 4247 "NXCDefs.h"
10	13779	118	#line 13779 "NXCDefs.h"
10	13779	118	#line 13779 "NXCDefs.h"
10	13780	118		mov __SetSensorMode_7qG2_port_7qG2_000_inline_SetSensorHTGyro_inline_InicializaSensores, __SetSensorHTGyro_7qG2_port_7qG2_000_inline_InicializaSensores
10	13779	120	#line 13779 "NXCDefs.h"
10	13779	120	#line 13779 "NXCDefs.h"
10	13780	120		set __SetSensorMode_7qG2_mode_7qG2_000_inline_SetSensorHTGyro_inline_InicializaSensores, 0
10	13779	123	#line 13779 "NXCDefs.h"
10	4260	123	#line 4260 "NXCDefs.h"
10	4261	123		setin __SetSensorMode_7qG2_mode_7qG2_000_inline_SetSensorHTGyro_inline_InicializaSensores, __SetSensorMode_7qG2_port_7qG2_000_inline_SetSensorHTGyro_inline_InicializaSensores, 1
10	4260	127	#line 4260 "NXCDefs.h"
10	13780	127	#line 13780 "NXCDefs.h"
10	13780	127	#line 13780 "NXCDefs.h"
10	13780	127	#line 13780 "NXCDefs.h"
10	4278	127	#line 4278 "NXCDefs.h"
10	4279	127	#pragma macro 4
10	4279	127		mov __ResetSensorPort, __SetSensorHTGyro_7qG2_port_7qG2_000_inline_InicializaSensores
10	4279	129		subcall __ResetSensorSubroutine, ____ResetSensorSubroutine_return
10	6085	132	#line 6085 "NXCDefs.h"
10	4278	132	#line 4278 "NXCDefs.h"
10	13781	132	#line 13781 "NXCDefs.h"
10	236	132	#line 236 "C:\Users\luan\AppData\Local\Temp\temp.nxc"
10	238	132	#line 238 "C:\Users\luan\AppData\Local\Temp\temp.nxc"
10	239	132		subret __InicializaSensores_return
11	243	0	#line 243 "C:\Users\luan\AppData\Local\Temp\temp.nxc"
11	244	0		subcall RecebeBoneco, __RecebeBoneco_return
11	243	2	#line 243 "C:\Users\luan\AppData\Local\Temp\temp.nxc"
11	244	2		mov bonecoAlvo, __D0RecebeBoneco
11	243	4	#line 243 "C:\Users\luan\AppData\Local\Temp\temp.nxc"
11	243	4	#line 243 "C:\Users\luan\AppData\Local\Temp\temp.nxc"
11	243	4	#line 243 "C:\Users\luan\AppData\Local\Temp\temp.nxc"
11	244	4		mov __signed_stack_001BonecoAlvo, bonecoAlvo
11	243	6	#line 243 "C:\Users\luan\AppData\Local\Temp\temp.nxc"
11	244	6	#line 244 "C:\Users\luan\AppData\Local\Temp\temp.nxc"
11	245	6		set __D0BonecoAlvo, 2
11	244	9	#line 244 "C:\Users\luan\AppData\Local\Temp\temp.nxc"
11	245	9		cmp 4, __D0BonecoAlvo, __signed_stack_001BonecoAlvo, __D0BonecoAlvo
11	245	13	#line 245 "C:\Users\luan\AppData\Local\Temp\temp.nxc"
11	246	13		brtst 4, __ASM_Label_535, __D0BonecoAlvo
11	246	16	#line 246 "C:\Users\luan\AppData\Local\Temp\temp.nxc"
11	247	16		subcall BipPreto, __BipPreto_return
11	246	18	#line 246 "C:\Users\luan\AppData\Local\Temp\temp.nxc"
11	247	18	#line 247 "C:\Users\luan\AppData\Local\Temp\temp.nxc"
11	248	18		set bonecoNaoAlvo, 1
11	247	21	#line 247 "C:\Users\luan\AppData\Local\Temp\temp.nxc"
11	247	21	#line 247 "C:\Users\luan\AppData\Local\Temp\temp.nxc"
11	248	21	#line 248 "C:\Users\luan\AppData\Local\Temp\temp.nxc"
11	249	21		jmp __ASM_Label_538
11	248	23	#line 248 "C:\Users\luan\AppData\Local\Temp\temp.nxc"
11	249	23		mov __signed_stack_001BonecoAlvo, bonecoAlvo
11	248	25	#line 248 "C:\Users\luan\AppData\Local\Temp\temp.nxc"
11	249	25	#line 249 "C:\Users\luan\AppData\Local\Temp\temp.nxc"
11	250	25		set __D0BonecoAlvo, 1
11	249	28	#line 249 "C:\Users\luan\AppData\Local\Temp\temp.nxc"
11	250	28		cmp 4, __D0BonecoAlvo, __signed_stack_001BonecoAlvo, __D0BonecoAlvo
11	250	32	#line 250 "C:\Users\luan\AppData\Local\Temp\temp.nxc"
11	251	32		brtst 4, __ASM_Label_541, __D0BonecoAlvo
11	251	35	#line 251 "C:\Users\luan\AppData\Local\Temp\temp.nxc"
11	252	35		subcall BipBranco, __BipBranco_return
11	251	37	#line 251 "C:\Users\luan\AppData\Local\Temp\temp.nxc"
11	252	37	#line 252 "C:\Users\luan\AppData\Local\Temp\temp.nxc"
11	253	37		set bonecoNaoAlvo, 2
11	252	40	#line 252 "C:\Users\luan\AppData\Local\Temp\temp.nxc"
11	252	40	#line 252 "C:\Users\luan\AppData\Local\Temp\temp.nxc"
11	258	40	#line 258 "C:\Users\luan\AppData\Local\Temp\temp.nxc"
11	258	40	#line 258 "C:\Users\luan\AppData\Local\Temp\temp.nxc"
11	258	40	#line 258 "C:\Users\luan\AppData\Local\Temp\temp.nxc"
11	259	40		subret __BonecoAlvo_return
12	267	0	#line 267 "C:\Users\luan\AppData\Local\Temp\temp.nxc"
12	268	0		set __filterUS_7qG2_SENSOR_7qG2_000, 0
12	267	3	#line 267 "C:\Users\luan\AppData\Local\Temp\temp.nxc"
12	268	3	#line 268 "C:\Users\luan\AppData\Local\Temp\temp.nxc"
12	269	3		subcall filterUS, __filterUS_return
12	268	5	#line 268 "C:\Users\luan\AppData\Local\Temp\temp.nxc"
12	268	5	#line 268 "C:\Users\luan\AppData\Local\Temp\temp.nxc"
12	269	5		set __Wait_7qG2_ms_7qG2_000_inline_TemBoneco, 50
12	268	8	#line 268 "C:\Users\luan\AppData\Local\Temp\temp.nxc"
12	8551	8	#line 8551 "NXCDefs.h"
12	8552	8		wait2 NA, __Wait_7qG2_ms_7qG2_000_inline_TemBoneco
12	8551	11	#line 8551 "NXCDefs.h"
12	274	11	#line 274 "C:\Users\luan\AppData\Local\Temp\temp.nxc"
12	274	11	#line 274 "C:\Users\luan\AppData\Local\Temp\temp.nxc"
12	275	11		mov __signed_stack_001TemBoneco, distUS
12	274	13	#line 274 "C:\Users\luan\AppData\Local\Temp\temp.nxc"
12	274	13	#line 274 "C:\Users\luan\AppData\Local\Temp\temp.nxc"
12	275	13		set __D0TemBoneco, 6
12	274	16	#line 274 "C:\Users\luan\AppData\Local\Temp\temp.nxc"
12	275	16		cmp 4, __D0TemBoneco, __signed_stack_001TemBoneco, __D0TemBoneco
12	274	20	#line 274 "C:\Users\luan\AppData\Local\Temp\temp.nxc"
12	275	20		brtst 5, __ASM_Label_548, __D0TemBoneco
12	274	23	#line 274 "C:\Users\luan\AppData\Local\Temp\temp.nxc"
12	275	23		mov __signed_stack_001TemBoneco, distUS
12	274	25	#line 274 "C:\Users\luan\AppData\Local\Temp\temp.nxc"
12	274	25	#line 274 "C:\Users\luan\AppData\Local\Temp\temp.nxc"
12	275	25		set __D0TemBoneco, 7
12	274	28	#line 274 "C:\Users\luan\AppData\Local\Temp\temp.nxc"
12	275	28		cmp 4, __D0TemBoneco, __signed_stack_001TemBoneco, __D0TemBoneco
12	274	32	#line 274 "C:\Users\luan\AppData\Local\Temp\temp.nxc"
12	275	32		brtst 5, __ASM_Label_548, __D0TemBoneco
12	274	35	#line 274 "C:\Users\luan\AppData\Local\Temp\temp.nxc"
12	275	35		mov __signed_stack_001TemBoneco, distUS
12	274	37	#line 274 "C:\Users\luan\AppData\Local\Temp\temp.nxc"
12	274	37	#line 274 "C:\Users\luan\AppData\Local\Temp\temp.nxc"
12	275	37		set __D0TemBoneco, 10
12	274	40	#line 274 "C:\Users\luan\AppData\Local\Temp\temp.nxc"
12	275	40		cmp 4, __D0TemBoneco, __signed_stack_001TemBoneco, __D0TemBoneco
12	274	44	#line 274 "C:\Users\luan\AppData\Local\Temp\temp.nxc"
12	275	44		brtst 5, __ASM_Label_548, __D0TemBoneco
12	274	47	#line 274 "C:\Users\luan\AppData\Local\Temp\temp.nxc"
12	275	47		mov __signed_stack_001TemBoneco, distUS
12	274	49	#line 274 "C:\Users\luan\AppData\Local\Temp\temp.nxc"
12	274	49	#line 274 "C:\Users\luan\AppData\Local\Temp\temp.nxc"
12	275	49		set __D0TemBoneco, 11
12	274	52	#line 274 "C:\Users\luan\AppData\Local\Temp\temp.nxc"
12	275	52		cmp 4, __D0TemBoneco, __signed_stack_001TemBoneco, __D0TemBoneco
12	274	56	#line 274 "C:\Users\luan\AppData\Local\Temp\temp.nxc"
12	275	56		brtst 5, __ASM_Label_548, __D0TemBoneco
12	274	59	#line 274 "C:\Users\luan\AppData\Local\Temp\temp.nxc"
12	275	59		mov __signed_stack_001TemBoneco, distUS
12	274	61	#line 274 "C:\Users\luan\AppData\Local\Temp\temp.nxc"
12	274	61	#line 274 "C:\Users\luan\AppData\Local\Temp\temp.nxc"
12	275	61		set __D0TemBoneco, 12
12	274	64	#line 274 "C:\Users\luan\AppData\Local\Temp\temp.nxc"
12	275	64		cmp 4, __D0TemBoneco, __signed_stack_001TemBoneco, __D0TemBoneco
12	274	68	#line 274 "C:\Users\luan\AppData\Local\Temp\temp.nxc"
12	275	68		brtst 5, __ASM_Label_548, __D0TemBoneco
12	274	71	#line 274 "C:\Users\luan\AppData\Local\Temp\temp.nxc"
12	275	71		mov __signed_stack_001TemBoneco, distUS
12	274	73	#line 274 "C:\Users\luan\AppData\Local\Temp\temp.nxc"
12	274	73	#line 274 "C:\Users\luan\AppData\Local\Temp\temp.nxc"
12	275	73		set __D0TemBoneco, 13
12	274	76	#line 274 "C:\Users\luan\AppData\Local\Temp\temp.nxc"
12	275	76		cmp 4, __D0TemBoneco, __signed_stack_001TemBoneco, __D0TemBoneco
12	275	80	#line 275 "C:\Users\luan\AppData\Local\Temp\temp.nxc"
12	276	80		brtst 4, __ASM_Label_567, __D0TemBoneco
12	276	83	#line 276 "C:\Users\luan\AppData\Local\Temp\temp.nxc"
12	277	83		set __D0TemBoneco, 1
12	276	86	#line 276 "C:\Users\luan\AppData\Local\Temp\temp.nxc"
12	277	86		subret __TemBoneco_return
12	276	88	#line 276 "C:\Users\luan\AppData\Local\Temp\temp.nxc"
12	278	88	#line 278 "C:\Users\luan\AppData\Local\Temp\temp.nxc"
12	279	88	#line 279 "C:\Users\luan\AppData\Local\Temp\temp.nxc"
12	280	88		set __D0TemBoneco, 0
12	279	91	#line 279 "C:\Users\luan\AppData\Local\Temp\temp.nxc"
12	280	91		subret __TemBoneco_return
12	279	93	#line 279 "C:\Users\luan\AppData\Local\Temp\temp.nxc"
12	281	93	#line 281 "C:\Users\luan\AppData\Local\Temp\temp.nxc"
12	282	93		subret __TemBoneco_return
13	286	0	#line 286 "C:\Users\luan\AppData\Local\Temp\temp.nxc"
13	287	0		set __RecebeBoneco_7qG2_sinInicial_7qG2_000, 0
13	286	3	#line 286 "C:\Users\luan\AppData\Local\Temp\temp.nxc"
13	287	3	#line 287 "C:\Users\luan\AppData\Local\Temp\temp.nxc"
13	288	3	#pragma macro 9
13	288	3		acquire __MRMutex
13	288	4		mov __MRArgs.QueueID, __constVal4
13	288	7		mov __MRArgs.Remove, __constVal1
13	288	10		set __RRNTmpVal, 0
13	288	13		syscall 27, __MRArgs
13	288	16		unflatten __RRNTmpVal, __RRNErr, __MRArgs.Message, __RRNTmpVal
13	288	21		mov __RecebeBoneco_7qG2_sinInicial_7qG2_000, __RRNTmpVal
13	288	23		mov __D0RecebeBoneco, __MRArgs.Result
13	288	26		release __MRMutex
13	6296	27	#line 6296 "C:\Users\luan\AppData\Local\Temp\temp.nxc"
13	287	27	#line 287 "C:\Users\luan\AppData\Local\Temp\temp.nxc"
13	287	27	#line 287 "C:\Users\luan\AppData\Local\Temp\temp.nxc"
13	288	27	#line 288 "C:\Users\luan\AppData\Local\Temp\temp.nxc"
13	289	27		set __Wait_7qG2_ms_7qG2_000_inline_RecebeBoneco, 30
13	288	30	#line 288 "C:\Users\luan\AppData\Local\Temp\temp.nxc"
13	8551	30	#line 8551 "NXCDefs.h"
13	8552	30		wait2 NA, __Wait_7qG2_ms_7qG2_000_inline_RecebeBoneco
13	8551	33	#line 8551 "NXCDefs.h"
13	289	33	#line 289 "C:\Users\luan\AppData\Local\Temp\temp.nxc"
13	289	33	#line 289 "C:\Users\luan\AppData\Local\Temp\temp.nxc"
13	290	33		mov __signed_stack_001RecebeBoneco, __RecebeBoneco_7qG2_sinInicial_7qG2_000
13	289	35	#line 289 "C:\Users\luan\AppData\Local\Temp\temp.nxc"
13	289	35	#line 289 "C:\Users\luan\AppData\Local\Temp\temp.nxc"
13	290	35		set __D0RecebeBoneco, 0
13	289	38	#line 289 "C:\Users\luan\AppData\Local\Temp\temp.nxc"
13	290	38		cmp 4, __D0RecebeBoneco, __signed_stack_001RecebeBoneco, __D0RecebeBoneco
13	292	42	#line 292 "C:\Users\luan\AppData\Local\Temp\temp.nxc"
13	293	42		brtst 4, __ASM_Label_575, __D0RecebeBoneco
13	292	45	#line 292 "C:\Users\luan\AppData\Local\Temp\temp.nxc"
13	293	45		jmp __ASM_Label_574
13	292	47	#line 292 "C:\Users\luan\AppData\Local\Temp\temp.nxc"
13	292	47	#line 292 "C:\Users\luan\AppData\Local\Temp\temp.nxc"
13	292	47	#line 292 "C:\Users\luan\AppData\Local\Temp\temp.nxc"
13	293	47		set __Wait_7qG2_ms_7qG2_000_inline_RecebeBoneco, 50
13	292	50	#line 292 "C:\Users\luan\AppData\Local\Temp\temp.nxc"
13	8551	50	#line 8551 "NXCDefs.h"
13	8552	50		wait2 NA, __Wait_7qG2_ms_7qG2_000_inline_RecebeBoneco
13	8551	53	#line 8551 "NXCDefs.h"
13	294	53	#line 294 "C:\Users\luan\AppData\Local\Temp\temp.nxc"
13	294	53	#line 294 "C:\Users\luan\AppData\Local\Temp\temp.nxc"
13	295	53		mov __signed_stack_001RecebeBoneco, __RecebeBoneco_7qG2_sinInicial_7qG2_000
13	294	55	#line 294 "C:\Users\luan\AppData\Local\Temp\temp.nxc"
13	295	55	#line 295 "C:\Users\luan\AppData\Local\Temp\temp.nxc"
13	296	55		set __D0RecebeBoneco, 2
13	295	58	#line 295 "C:\Users\luan\AppData\Local\Temp\temp.nxc"
13	296	58		cmp 4, __D0RecebeBoneco, __signed_stack_001RecebeBoneco, __D0RecebeBoneco
13	295	62	#line 295 "C:\Users\luan\AppData\Local\Temp\temp.nxc"
13	296	62		brtst 4, __ASM_Label_584, __D0RecebeBoneco
13	296	65	#line 296 "C:\Users\luan\AppData\Local\Temp\temp.nxc"
13	297	65		set __D0RecebeBoneco, 2
13	296	68	#line 296 "C:\Users\luan\AppData\Local\Temp\temp.nxc"
13	297	68		subret __RecebeBoneco_return
13	296	70	#line 296 "C:\Users\luan\AppData\Local\Temp\temp.nxc"
13	296	70	#line 296 "C:\Users\luan\AppData\Local\Temp\temp.nxc"
13	297	70		jmp __ASM_Label_587
13	296	72	#line 296 "C:\Users\luan\AppData\Local\Temp\temp.nxc"
13	297	72		mov __signed_stack_001RecebeBoneco, __RecebeBoneco_7qG2_sinInicial_7qG2_000
13	296	74	#line 296 "C:\Users\luan\AppData\Local\Temp\temp.nxc"
13	297	74	#line 297 "C:\Users\luan\AppData\Local\Temp\temp.nxc"
13	298	74		set __D0RecebeBoneco, 1
13	297	77	#line 297 "C:\Users\luan\AppData\Local\Temp\temp.nxc"
13	298	77		cmp 4, __D0RecebeBoneco, __signed_stack_001RecebeBoneco, __D0RecebeBoneco
13	297	81	#line 297 "C:\Users\luan\AppData\Local\Temp\temp.nxc"
13	298	81		brtst 4, __ASM_Label_590, __D0RecebeBoneco
13	300	84	#line 300 "C:\Users\luan\AppData\Local\Temp\temp.nxc"
13	301	84		set __D0RecebeBoneco, 1
13	300	87	#line 300 "C:\Users\luan\AppData\Local\Temp\temp.nxc"
13	301	87		subret __RecebeBoneco_return
13	300	89	#line 300 "C:\Users\luan\AppData\Local\Temp\temp.nxc"
13	302	89	#line 302 "C:\Users\luan\AppData\Local\Temp\temp.nxc"
13	302	89	#line 302 "C:\Users\luan\AppData\Local\Temp\temp.nxc"
13	302	89	#line 302 "C:\Users\luan\AppData\Local\Temp\temp.nxc"
13	303	89		subret __RecebeBoneco_return
14	344	0	#line 344 "C:\Users\luan\AppData\Local\Temp\temp.nxc"
14	345	0		mov __D0PegaBoneco, __constValNeg25
14	345	2	#line 345 "C:\Users\luan\AppData\Local\Temp\temp.nxc"
14	346	2	#pragma macro 7
14	346	2		setout __constVal0, 2, __D0PegaBoneco, 1, __constVal3, 8, __constVal0, 6, __constVal32, 7, __constVal0, 5, __constVal0, 10, __constVal96, 11, __constVal32, 12, __constVal32, 0, __constVal63
14	6697	25	#line 6697 "C:\Users\luan\AppData\Local\Temp\temp.nxc"
14	345	25	#line 345 "C:\Users\luan\AppData\Local\Temp\temp.nxc"
14	347	25	#line 347 "C:\Users\luan\AppData\Local\Temp\temp.nxc"
14	348	25		getout __PegaBoneco_7qG2_tc_7qG2_000, __constVal0, 4
14	347	29	#line 347 "C:\Users\luan\AppData\Local\Temp\temp.nxc"
14	347	29	#line 347 "C:\Users\luan\AppData\Local\Temp\temp.nxc"
14	349	29	#line 349 "C:\Users\luan\AppData\Local\Temp\temp.nxc"
14	350	29		set __Wait_7qG2_ms_7qG2_000_inline_PegaBoneco, 200
14	349	32	#line 349 "C:\Users\luan\AppData\Local\Temp\temp.nxc"
14	8551	32	#line 8551 "NXCDefs.h"
14	8552	32		wait2 NA, __Wait_7qG2_ms_7qG2_000_inline_PegaBoneco
14	8551	35	#line 8551 "NXCDefs.h"
14	350	35	#line 350 "C:\Users\luan\AppData\Local\Temp\temp.nxc"
14	351	35	#line 351 "C:\Users\luan\AppData\Local\Temp\temp.nxc"
14	352	35		mov __PegaBoneco_7qG2_old_tc_7qG2_000, __PegaBoneco_7qG2_tc_7qG2_000
14	351	37	#line 351 "C:\Users\luan\AppData\Local\Temp\temp.nxc"
14	351	37	#line 351 "C:\Users\luan\AppData\Local\Temp\temp.nxc"
14	352	37	#line 352 "C:\Users\luan\AppData\Local\Temp\temp.nxc"
14	353	37		getout __PegaBoneco_7qG2_tc_7qG2_000, __constVal0, 4
14	352	41	#line 352 "C:\Users\luan\AppData\Local\Temp\temp.nxc"
14	352	41	#line 352 "C:\Users\luan\AppData\Local\Temp\temp.nxc"
14	352	41	#line 352 "C:\Users\luan\AppData\Local\Temp\temp.nxc"
14	353	41		mov __signed_stack_001PegaBoneco, __PegaBoneco_7qG2_tc_7qG2_000
14	352	43	#line 352 "C:\Users\luan\AppData\Local\Temp\temp.nxc"
14	353	43	#line 353 "C:\Users\luan\AppData\Local\Temp\temp.nxc"
14	354	43		mov __D0PegaBoneco, __constValNeg153
14	353	45	#line 353 "C:\Users\luan\AppData\Local\Temp\temp.nxc"
14	354	45		cmp 0, __D0PegaBoneco, __signed_stack_001PegaBoneco, __D0PegaBoneco
14	354	49	#line 354 "C:\Users\luan\AppData\Local\Temp\temp.nxc"
14	355	49		brtst 4, __ASM_Label_665, __D0PegaBoneco
14	354	52	#line 354 "C:\Users\luan\AppData\Local\Temp\temp.nxc"
14	355	52		set __D0PegaBoneco, 0
14	356	55	#line 356 "C:\Users\luan\AppData\Local\Temp\temp.nxc"
14	357	55	#pragma macro 7
14	357	55		setout __constVal0, 2, __D0PegaBoneco, 1, __constVal3, 8, __constVal0, 6, __constVal32, 7, __constVal0, 5, __constVal0, 10, __constVal96, 11, __constVal32, 12, __constVal32, 0, __constVal63
14	6750	78	#line 6750 "C:\Users\luan\AppData\Local\Temp\temp.nxc"
14	356	78	#line 356 "C:\Users\luan\AppData\Local\Temp\temp.nxc"
14	357	78	#line 357 "C:\Users\luan\AppData\Local\Temp\temp.nxc"
14	358	78		subcall VoltaGarra, __VoltaGarra_return
14	357	81	#line 357 "C:\Users\luan\AppData\Local\Temp\temp.nxc"
14	358	81	#line 358 "C:\Users\luan\AppData\Local\Temp\temp.nxc"
14	359	81		set __D0PegaBoneco, 0
14	358	84	#line 358 "C:\Users\luan\AppData\Local\Temp\temp.nxc"
14	359	84		subret __PegaBoneco_return
14	358	86	#line 358 "C:\Users\luan\AppData\Local\Temp\temp.nxc"
14	359	86	#line 359 "C:\Users\luan\AppData\Local\Temp\temp.nxc"
14	359	86	#line 359 "C:\Users\luan\AppData\Local\Temp\temp.nxc"
14	360	86		mov __signed_stack_001PegaBoneco, __PegaBoneco_7qG2_tc_7qG2_000
14	359	88	#line 359 "C:\Users\luan\AppData\Local\Temp\temp.nxc"
14	359	88	#line 359 "C:\Users\luan\AppData\Local\Temp\temp.nxc"
14	360	88		mov __D0PegaBoneco, __PegaBoneco_7qG2_old_tc_7qG2_000
14	359	90	#line 359 "C:\Users\luan\AppData\Local\Temp\temp.nxc"
14	360	90		cmp 5, __D0PegaBoneco, __signed_stack_001PegaBoneco, __D0PegaBoneco
14	361	94	#line 361 "C:\Users\luan\AppData\Local\Temp\temp.nxc"
14	362	94		brtst 4, __ASM_Label_656, __D0PegaBoneco
14	361	97	#line 361 "C:\Users\luan\AppData\Local\Temp\temp.nxc"
14	362	97		jmp __ASM_Label_655
14	361	99	#line 361 "C:\Users\luan\AppData\Local\Temp\temp.nxc"
14	361	99	#line 361 "C:\Users\luan\AppData\Local\Temp\temp.nxc"
14	361	99	#line 361 "C:\Users\luan\AppData\Local\Temp\temp.nxc"
14	362	99		set __D0PegaBoneco, 0
14	363	102	#line 363 "C:\Users\luan\AppData\Local\Temp\temp.nxc"
14	364	102	#pragma macro 7
14	364	102		setout __constVal0, 2, __D0PegaBoneco, 1, __constVal3, 8, __constVal0, 6, __constVal32, 7, __constVal0, 5, __constVal0, 10, __constVal96, 11, __constVal32, 12, __constVal32, 0, __constVal63
14	6784	125	#line 6784 "C:\Users\luan\AppData\Local\Temp\temp.nxc"
14	363	125	#line 363 "C:\Users\luan\AppData\Local\Temp\temp.nxc"
14	364	125	#line 364 "C:\Users\luan\AppData\Local\Temp\temp.nxc"
14	365	125		set __D0PegaBoneco, 1
14	364	128	#line 364 "C:\Users\luan\AppData\Local\Temp\temp.nxc"
14	365	128		subret __PegaBoneco_return
14	364	130	#line 364 "C:\Users\luan\AppData\Local\Temp\temp.nxc"
14	366	130	#line 366 "C:\Users\luan\AppData\Local\Temp\temp.nxc"
14	367	130		subret __PegaBoneco_return
15	370	0	#line 370 "C:\Users\luan\AppData\Local\Temp\temp.nxc"
15	371	0		set __signed_stack_001VoltaGarra, 0
15	370	3	#line 370 "C:\Users\luan\AppData\Local\Temp\temp.nxc"
15	370	3	#line 370 "C:\Users\luan\AppData\Local\Temp\temp.nxc"
15	371	3		mov __D0VoltaGarra, __constValNeg25
15	370	6	#line 370 "C:\Users\luan\AppData\Local\Temp\temp.nxc"
15	371	6		sub __D0VoltaGarra, __signed_stack_001VoltaGarra, __D0VoltaGarra
15	371	10	#line 371 "C:\Users\luan\AppData\Local\Temp\temp.nxc"
15	372	10	#pragma macro 7
15	372	10		setout __constVal0, 2, __D0VoltaGarra, 1, __constVal3, 8, __constVal0, 6, __constVal32, 7, __constVal0, 5, __constVal0, 10, __constVal96, 11, __constVal32, 12, __constVal32, 0, __constVal63
15	6817	33	#line 6817 "C:\Users\luan\AppData\Local\Temp\temp.nxc"
15	371	33	#line 371 "C:\Users\luan\AppData\Local\Temp\temp.nxc"
15	372	33	#line 372 "C:\Users\luan\AppData\Local\Temp\temp.nxc"
15	373	33		getout __VoltaGarra_7qG2_tc_7qG2_000, __constVal0, 4
15	372	37	#line 372 "C:\Users\luan\AppData\Local\Temp\temp.nxc"
15	372	37	#line 372 "C:\Users\luan\AppData\Local\Temp\temp.nxc"
15	374	37	#line 374 "C:\Users\luan\AppData\Local\Temp\temp.nxc"
15	375	37		set __Wait_7qG2_ms_7qG2_000_inline_VoltaGarra, 200
15	374	40	#line 374 "C:\Users\luan\AppData\Local\Temp\temp.nxc"
15	8551	40	#line 8551 "NXCDefs.h"
15	8552	40		wait2 NA, __Wait_7qG2_ms_7qG2_000_inline_VoltaGarra
15	8551	43	#line 8551 "NXCDefs.h"
15	375	43	#line 375 "C:\Users\luan\AppData\Local\Temp\temp.nxc"
15	376	43	#line 376 "C:\Users\luan\AppData\Local\Temp\temp.nxc"
15	377	43		mov __VoltaGarra_7qG2_old_tc_7qG2_000, __VoltaGarra_7qG2_tc_7qG2_000
15	376	45	#line 376 "C:\Users\luan\AppData\Local\Temp\temp.nxc"
15	376	45	#line 376 "C:\Users\luan\AppData\Local\Temp\temp.nxc"
15	377	45	#line 377 "C:\Users\luan\AppData\Local\Temp\temp.nxc"
15	378	45		getout __VoltaGarra_7qG2_tc_7qG2_000, __constVal0, 4
15	377	49	#line 377 "C:\Users\luan\AppData\Local\Temp\temp.nxc"
15	377	49	#line 377 "C:\Users\luan\AppData\Local\Temp\temp.nxc"
15	377	49	#line 377 "C:\Users\luan\AppData\Local\Temp\temp.nxc"
15	378	49		mov __signed_stack_001VoltaGarra, __VoltaGarra_7qG2_tc_7qG2_000
15	377	51	#line 377 "C:\Users\luan\AppData\Local\Temp\temp.nxc"
15	377	51	#line 377 "C:\Users\luan\AppData\Local\Temp\temp.nxc"
15	378	51		mov __D0VoltaGarra, __VoltaGarra_7qG2_old_tc_7qG2_000
15	377	53	#line 377 "C:\Users\luan\AppData\Local\Temp\temp.nxc"
15	378	53		cmp 5, __D0VoltaGarra, __signed_stack_001VoltaGarra, __D0VoltaGarra
15	379	57	#line 379 "C:\Users\luan\AppData\Local\Temp\temp.nxc"
15	380	57		brtst 4, __ASM_Label_683, __D0VoltaGarra
15	379	60	#line 379 "C:\Users\luan\AppData\Local\Temp\temp.nxc"
15	380	60		jmp __ASM_Label_682
15	379	62	#line 379 "C:\Users\luan\AppData\Local\Temp\temp.nxc"
15	379	62	#line 379 "C:\Users\luan\AppData\Local\Temp\temp.nxc"
15	379	62	#line 379 "C:\Users\luan\AppData\Local\Temp\temp.nxc"
15	380	62		set __D0VoltaGarra, 0
15	380	65	#line 380 "C:\Users\luan\AppData\Local\Temp\temp.nxc"
15	381	65	#pragma macro 7
15	381	65		setout __constVal0, 2, __D0VoltaGarra, 1, __constVal3, 8, __constVal0, 6, __constVal32, 7, __constVal0, 5, __constVal0, 10, __constVal96, 11, __constVal32, 12, __constVal32, 0, __constVal63
15	6875	88	#line 6875 "C:\Users\luan\AppData\Local\Temp\temp.nxc"
15	380	88	#line 380 "C:\Users\luan\AppData\Local\Temp\temp.nxc"
15	382	88	#line 382 "C:\Users\luan\AppData\Local\Temp\temp.nxc"
15	383	88		subret __VoltaGarra_return
16	384	0	#line 384 "C:\Users\luan\AppData\Local\Temp\temp.nxc"
16	385	0	#pragma macro 34
16	385	0		acquire __RLSBmutex2
16	385	1		mov __RLSReadBuf2, __RLSBbufLSWrite1
16	385	3		set __RLSBytesCount2, 5
16	385	6		subcall __ReadLSBytes2, ____ReadLSBytes2_return
16	385	9		tst 4, __D0CorBoneco, __RLSBResult2
16	385	12		index ht_white, __RLSReadBuf2, __constVal4
16	385	16		release __RLSBmutex2
16	6883	17	#line 6883 "C:\Users\luan\AppData\Local\Temp\temp.nxc"
16	384	17	#line 384 "C:\Users\luan\AppData\Local\Temp\temp.nxc"
16	384	17	#line 384 "C:\Users\luan\AppData\Local\Temp\temp.nxc"
16	386	17	#line 386 "C:\Users\luan\AppData\Local\Temp\temp.nxc"
16	387	17		mov __signed_stack_001CorBoneco, ht_white
16	386	19	#line 386 "C:\Users\luan\AppData\Local\Temp\temp.nxc"
16	386	19	#line 386 "C:\Users\luan\AppData\Local\Temp\temp.nxc"
16	387	19		set __D0CorBoneco, 256
16	386	22	#line 386 "C:\Users\luan\AppData\Local\Temp\temp.nxc"
16	387	22		cmp 0, __D0CorBoneco, __signed_stack_001CorBoneco, __D0CorBoneco
16	386	26	#line 386 "C:\Users\luan\AppData\Local\Temp\temp.nxc"
16	387	26		brtst 4, __ASM_Label_695, __D0CorBoneco
16	386	29	#line 386 "C:\Users\luan\AppData\Local\Temp\temp.nxc"
16	387	29		mov __signed_stack_001CorBoneco, ht_white
16	386	31	#line 386 "C:\Users\luan\AppData\Local\Temp\temp.nxc"
16	386	31	#line 386 "C:\Users\luan\AppData\Local\Temp\temp.nxc"
16	387	31		set __D0CorBoneco, 190
16	386	34	#line 386 "C:\Users\luan\AppData\Local\Temp\temp.nxc"
16	387	34		cmp 1, __D0CorBoneco, __signed_stack_001CorBoneco, __D0CorBoneco
16	388	38	#line 388 "C:\Users\luan\AppData\Local\Temp\temp.nxc"
16	389	38		brtst 4, __ASM_Label_700, __D0CorBoneco
16	389	41	#line 389 "C:\Users\luan\AppData\Local\Temp\temp.nxc"
16	390	41		set __D0CorBoneco, 1
16	389	44	#line 389 "C:\Users\luan\AppData\Local\Temp\temp.nxc"
16	390	44		subret __CorBoneco_return
16	389	46	#line 389 "C:\Users\luan\AppData\Local\Temp\temp.nxc"
16	390	46	#line 390 "C:\Users\luan\AppData\Local\Temp\temp.nxc"
16	390	46	#line 390 "C:\Users\luan\AppData\Local\Temp\temp.nxc"
16	391	46		mov __signed_stack_001CorBoneco, ht_white
16	390	48	#line 390 "C:\Users\luan\AppData\Local\Temp\temp.nxc"
16	390	48	#line 390 "C:\Users\luan\AppData\Local\Temp\temp.nxc"
16	391	48		set __D0CorBoneco, 180
16	390	51	#line 390 "C:\Users\luan\AppData\Local\Temp\temp.nxc"
16	391	51		cmp 0, __D0CorBoneco, __signed_stack_001CorBoneco, __D0CorBoneco
16	390	55	#line 390 "C:\Users\luan\AppData\Local\Temp\temp.nxc"
16	391	55		brtst 4, __ASM_Label_704, __D0CorBoneco
16	390	58	#line 390 "C:\Users\luan\AppData\Local\Temp\temp.nxc"
16	391	58		mov __signed_stack_001CorBoneco, ht_white
16	390	60	#line 390 "C:\Users\luan\AppData\Local\Temp\temp.nxc"
16	390	60	#line 390 "C:\Users\luan\AppData\Local\Temp\temp.nxc"
16	391	60		set __D0CorBoneco, 2
16	390	63	#line 390 "C:\Users\luan\AppData\Local\Temp\temp.nxc"
16	391	63		cmp 1, __D0CorBoneco, __signed_stack_001CorBoneco, __D0CorBoneco
16	391	67	#line 391 "C:\Users\luan\AppData\Local\Temp\temp.nxc"
16	392	67		brtst 4, __ASM_Label_709, __D0CorBoneco
16	392	70	#line 392 "C:\Users\luan\AppData\Local\Temp\temp.nxc"
16	393	70		set __D0CorBoneco, 2
16	392	73	#line 392 "C:\Users\luan\AppData\Local\Temp\temp.nxc"
16	393	73		subret __CorBoneco_return
16	392	75	#line 392 "C:\Users\luan\AppData\Local\Temp\temp.nxc"
16	392	75	#line 392 "C:\Users\luan\AppData\Local\Temp\temp.nxc"
16	392	75	#line 392 "C:\Users\luan\AppData\Local\Temp\temp.nxc"
16	393	75		mov __signed_stack_001CorBoneco, ht_white
16	392	77	#line 392 "C:\Users\luan\AppData\Local\Temp\temp.nxc"
16	392	77	#line 392 "C:\Users\luan\AppData\Local\Temp\temp.nxc"
16	393	77		set __D0CorBoneco, 168
16	392	80	#line 392 "C:\Users\luan\AppData\Local\Temp\temp.nxc"
16	393	80		cmp 0, __D0CorBoneco, __signed_stack_001CorBoneco, __D0CorBoneco
16	392	84	#line 392 "C:\Users\luan\AppData\Local\Temp\temp.nxc"
16	393	84		brtst 4, __ASM_Label_713, __D0CorBoneco
16	392	87	#line 392 "C:\Users\luan\AppData\Local\Temp\temp.nxc"
16	393	87		mov __signed_stack_001CorBoneco, ht_white
16	392	89	#line 392 "C:\Users\luan\AppData\Local\Temp\temp.nxc"
16	392	89	#line 392 "C:\Users\luan\AppData\Local\Temp\temp.nxc"
16	393	89		set __D0CorBoneco, 78
16	392	92	#line 392 "C:\Users\luan\AppData\Local\Temp\temp.nxc"
16	393	92		cmp 1, __D0CorBoneco, __signed_stack_001CorBoneco, __D0CorBoneco
16	393	96	#line 393 "C:\Users\luan\AppData\Local\Temp\temp.nxc"
16	394	96		brtst 4, __ASM_Label_718, __D0CorBoneco
16	394	99	#line 394 "C:\Users\luan\AppData\Local\Temp\temp.nxc"
16	395	99		set __D0CorBoneco, 3
16	394	102	#line 394 "C:\Users\luan\AppData\Local\Temp\temp.nxc"
16	395	102		subret __CorBoneco_return
16	394	104	#line 394 "C:\Users\luan\AppData\Local\Temp\temp.nxc"
16	396	104	#line 396 "C:\Users\luan\AppData\Local\Temp\temp.nxc"
16	396	104	#line 396 "C:\Users\luan\AppData\Local\Temp\temp.nxc"
16	397	104		subret __CorBoneco_return
17	397	0	#line 397 "C:\Users\luan\AppData\Local\Temp\temp.nxc"
17	398	0		getout __signed_stack_001Pega, __constVal0, 4
17	397	4	#line 397 "C:\Users\luan\AppData\Local\Temp\temp.nxc"
17	398	4	#line 398 "C:\Users\luan\AppData\Local\Temp\temp.nxc"
17	399	4		set __D0Pega, 0
17	398	7	#line 398 "C:\Users\luan\AppData\Local\Temp\temp.nxc"
17	399	7		cmp 5, __D0Pega, __signed_stack_001Pega, __D0Pega
17	399	11	#line 399 "C:\Users\luan\AppData\Local\Temp\temp.nxc"
17	400	11		brtst 4, __ASM_Label_722, __D0Pega
17	400	14	#line 400 "C:\Users\luan\AppData\Local\Temp\temp.nxc"
17	401	14	#pragma macro 7
17	401	14		setout __constVal0, 0, __constVal8
17	7018	19	#line 7018 "C:\Users\luan\AppData\Local\Temp\temp.nxc"
17	400	19	#line 400 "C:\Users\luan\AppData\Local\Temp\temp.nxc"
17	401	19	#line 401 "C:\Users\luan\AppData\Local\Temp\temp.nxc"
17	402	19		jmp __ASM_Label_721
17	401	21	#line 401 "C:\Users\luan\AppData\Local\Temp\temp.nxc"
17	401	21	#line 401 "C:\Users\luan\AppData\Local\Temp\temp.nxc"
17	402	21		mov __D0Pega, __constValNeg70
17	402	23	#line 402 "C:\Users\luan\AppData\Local\Temp\temp.nxc"
17	403	23	#pragma macro 7
17	403	23		setout __constVal0, 2, __D0Pega, 1, __constVal3, 8, __constVal0, 6, __constVal32, 7, __constVal0, 5, __constVal0, 10, __constVal96, 11, __constVal32, 12, __constVal32, 0, __constVal63
17	7027	46	#line 7027 "C:\Users\luan\AppData\Local\Temp\temp.nxc"
17	402	46	#line 402 "C:\Users\luan\AppData\Local\Temp\temp.nxc"
17	402	46	#line 402 "C:\Users\luan\AppData\Local\Temp\temp.nxc"
17	403	46		getout __signed_stack_001Pega, __constVal0, 4
17	402	50	#line 402 "C:\Users\luan\AppData\Local\Temp\temp.nxc"
17	402	50	#line 402 "C:\Users\luan\AppData\Local\Temp\temp.nxc"
17	403	50		mov __D0Pega, __constValNeg110
17	402	52	#line 402 "C:\Users\luan\AppData\Local\Temp\temp.nxc"
17	403	52		cmp 1, __D0Pega, __signed_stack_001Pega, __D0Pega
17	403	56	#line 403 "C:\Users\luan\AppData\Local\Temp\temp.nxc"
17	404	56		brtst 4, __ASM_Label_728, __D0Pega
17	403	59	#line 403 "C:\Users\luan\AppData\Local\Temp\temp.nxc"
17	403	59	#line 403 "C:\Users\luan\AppData\Local\Temp\temp.nxc"
17	404	59		jmp __ASM_Label_727
17	403	61	#line 403 "C:\Users\luan\AppData\Local\Temp\temp.nxc"
17	404	61	#line 404 "C:\Users\luan\AppData\Local\Temp\temp.nxc"
17	405	61	#pragma macro 7
17	405	61		setout __constVal0, 2, __constVal0, 1, __constVal3, 8, __constVal0, 6, __constVal32, 7, __constVal0, 5, __constVal0, 10, __constVal96, 11, __constVal32, 12, __constVal32, 0, __constVal63
17	7050	84	#line 7050 "C:\Users\luan\AppData\Local\Temp\temp.nxc"
17	404	84	#line 404 "C:\Users\luan\AppData\Local\Temp\temp.nxc"
17	405	84	#line 405 "C:\Users\luan\AppData\Local\Temp\temp.nxc"
17	406	84		subcall MandaPeguei, __MandaPeguei_return
17	405	87	#line 405 "C:\Users\luan\AppData\Local\Temp\temp.nxc"
17	405	87	#line 405 "C:\Users\luan\AppData\Local\Temp\temp.nxc"
17	406	87		set __Wait_7qG2_ms_7qG2_000_inline_Pega, 200
17	405	90	#line 405 "C:\Users\luan\AppData\Local\Temp\temp.nxc"
17	8551	90	#line 8551 "NXCDefs.h"
17	8552	90		wait2 NA, __Wait_7qG2_ms_7qG2_000_inline_Pega
17	8551	93	#line 8551 "NXCDefs.h"
17	406	93	#line 406 "C:\Users\luan\AppData\Local\Temp\temp.nxc"
17	407	93	#line 407 "C:\Users\luan\AppData\Local\Temp\temp.nxc"
17	408	93		subcall VoltaGarra, __VoltaGarra_return
17	407	96	#line 407 "C:\Users\luan\AppData\Local\Temp\temp.nxc"
17	409	96	#line 409 "C:\Users\luan\AppData\Local\Temp\temp.nxc"
17	410	96		subret __Pega_return
18	411	0	#line 411 "C:\Users\luan\AppData\Local\Temp\temp.nxc"
18	412	0	#pragma macro 14
18	412	0		acquire __RemoteMutex
18	412	1		mov __SRSTmpBuf, __DCMessageWritePacket
18	412	3		replace __SRSTmpBuf, __SRSTmpBuf, __constVal2, __constVal1
18	412	8		replace __SRSTmpBuf, __SRSTmpBuf, __constVal3, __constVal5
18	412	13		mov __SRSTmpLongVal, __constVal1
18	412	15		flatten __SRSFlattenBuf, __SRSTmpLongVal
18	412	18		arrbuild __SRSSendBuf, __SRSTmpBuf, __SRSFlattenBuf
18	412	23		acquire __CBTWMutex
18	412	24		mov __CBTWArgs.Connection, __constVal0
18	412	27		mov __CBTWArgs.Buffer, __SRSSendBuf
18	412	29		syscall 29, __CBTWArgs
18	412	32		release __CBTWMutex
18	412	33		release __RemoteMutex
18	7076	34	#line 7076 "C:\Users\luan\AppData\Local\Temp\temp.nxc"
18	411	34	#line 411 "C:\Users\luan\AppData\Local\Temp\temp.nxc"
18	411	34	#line 411 "C:\Users\luan\AppData\Local\Temp\temp.nxc"
18	414	34	#line 414 "C:\Users\luan\AppData\Local\Temp\temp.nxc"
18	415	34		subret __MandarParar_return
19	416	0	#line 416 "C:\Users\luan\AppData\Local\Temp\temp.nxc"
19	417	0	#pragma macro 14
19	417	0		acquire __RemoteMutex
19	417	1		mov __SRSTmpBuf, __DCMessageWritePacket
19	417	3		replace __SRSTmpBuf, __SRSTmpBuf, __constVal2, __constVal1
19	417	8		replace __SRSTmpBuf, __SRSTmpBuf, __constVal3, __constVal5
19	417	13		mov __SRSTmpLongVal, __constVal2
19	417	15		flatten __SRSFlattenBuf, __SRSTmpLongVal
19	417	18		arrbuild __SRSSendBuf, __SRSTmpBuf, __SRSFlattenBuf
19	417	23		acquire __CBTWMutex
19	417	24		mov __CBTWArgs.Connection, __constVal0
19	417	27		mov __CBTWArgs.Buffer, __SRSSendBuf
19	417	29		syscall 29, __CBTWArgs
19	417	32		release __CBTWMutex
19	417	33		release __RemoteMutex
19	7085	34	#line 7085 "C:\Users\luan\AppData\Local\Temp\temp.nxc"
19	416	34	#line 416 "C:\Users\luan\AppData\Local\Temp\temp.nxc"
19	416	34	#line 416 "C:\Users\luan\AppData\Local\Temp\temp.nxc"
19	419	34	#line 419 "C:\Users\luan\AppData\Local\Temp\temp.nxc"
19	420	34		subret __MandarSeguir_return
20	421	0	#line 421 "C:\Users\luan\AppData\Local\Temp\temp.nxc"
20	422	0		set __PlaySound_7qG2_aCode_7qG2_000, 3
20	421	3	#line 421 "C:\Users\luan\AppData\Local\Temp\temp.nxc"
20	422	3	#line 422 "C:\Users\luan\AppData\Local\Temp\temp.nxc"
20	423	3		subcall PlaySound, __PlaySound_return
20	422	6	#line 422 "C:\Users\luan\AppData\Local\Temp\temp.nxc"
20	422	6	#line 422 "C:\Users\luan\AppData\Local\Temp\temp.nxc"
20	423	6		set __PlaySound_7qG2_aCode_7qG2_000, 2
20	422	9	#line 422 "C:\Users\luan\AppData\Local\Temp\temp.nxc"
20	423	9	#line 423 "C:\Users\luan\AppData\Local\Temp\temp.nxc"
20	424	9		subcall PlaySound, __PlaySound_return
20	423	12	#line 423 "C:\Users\luan\AppData\Local\Temp\temp.nxc"
20	425	12	#line 425 "C:\Users\luan\AppData\Local\Temp\temp.nxc"
20	426	12		subret __BipBranco_return
21	428	0	#line 428 "C:\Users\luan\AppData\Local\Temp\temp.nxc"
21	429	0		set __PlaySound_7qG2_aCode_7qG2_000, 2
21	428	3	#line 428 "C:\Users\luan\AppData\Local\Temp\temp.nxc"
21	429	3	#line 429 "C:\Users\luan\AppData\Local\Temp\temp.nxc"
21	430	3		subcall PlaySound, __PlaySound_return
21	429	6	#line 429 "C:\Users\luan\AppData\Local\Temp\temp.nxc"
21	429	6	#line 429 "C:\Users\luan\AppData\Local\Temp\temp.nxc"
21	430	6		set __PlaySound_7qG2_aCode_7qG2_000, 3
21	429	9	#line 429 "C:\Users\luan\AppData\Local\Temp\temp.nxc"
21	430	9	#line 430 "C:\Users\luan\AppData\Local\Temp\temp.nxc"
21	431	9		subcall PlaySound, __PlaySound_return
21	430	12	#line 430 "C:\Users\luan\AppData\Local\Temp\temp.nxc"
21	432	12	#line 432 "C:\Users\luan\AppData\Local\Temp\temp.nxc"
21	433	12		subret __BipPreto_return
22	438	0	#line 438 "C:\Users\luan\AppData\Local\Temp\temp.nxc"
22	439	0		subcall MandarParar, __MandarParar_return
22	438	3	#line 438 "C:\Users\luan\AppData\Local\Temp\temp.nxc"
22	439	3	#line 439 "C:\Users\luan\AppData\Local\Temp\temp.nxc"
22	440	3		subcall PegaBoneco, __PegaBoneco_return
22	439	5	#line 439 "C:\Users\luan\AppData\Local\Temp\temp.nxc"
22	440	5		mov __D0BonecoNaFrente, __D0PegaBoneco
22	440	7	#line 440 "C:\Users\luan\AppData\Local\Temp\temp.nxc"
22	441	7		tst 5, __D0BonecoNaFrente, __D0BonecoNaFrente
22	440	10	#line 440 "C:\Users\luan\AppData\Local\Temp\temp.nxc"
22	441	10		brtst 4, __ASM_Label_745, __D0BonecoNaFrente
22	442	13	#line 442 "C:\Users\luan\AppData\Local\Temp\temp.nxc"
22	443	13		subcall CorBoneco, __CorBoneco_return
22	442	16	#line 442 "C:\Users\luan\AppData\Local\Temp\temp.nxc"
22	443	16		mov __BonecoNaFrente_7qG2_cor_7qG2_000, __D0CorBoneco
22	442	18	#line 442 "C:\Users\luan\AppData\Local\Temp\temp.nxc"
22	442	18	#line 442 "C:\Users\luan\AppData\Local\Temp\temp.nxc"
22	445	18	#line 445 "C:\Users\luan\AppData\Local\Temp\temp.nxc"
22	446	18		mov __signed_stack_001BonecoNaFrente, __BonecoNaFrente_7qG2_cor_7qG2_000
22	445	20	#line 445 "C:\Users\luan\AppData\Local\Temp\temp.nxc"
22	446	20	#line 446 "C:\Users\luan\AppData\Local\Temp\temp.nxc"
22	447	20		mov __D0BonecoNaFrente, bonecoAlvo
22	446	22	#line 446 "C:\Users\luan\AppData\Local\Temp\temp.nxc"
22	447	22		cmp 4, __D0BonecoNaFrente, __signed_stack_001BonecoNaFrente, __D0BonecoNaFrente
22	447	26	#line 447 "C:\Users\luan\AppData\Local\Temp\temp.nxc"
22	448	26		brtst 4, __ASM_Label_750, __D0BonecoNaFrente
22	447	29	#line 447 "C:\Users\luan\AppData\Local\Temp\temp.nxc"
22	448	29		mov __signed_stack_001BonecoNaFrente, BonecosCapturados
22	447	31	#line 447 "C:\Users\luan\AppData\Local\Temp\temp.nxc"
22	448	31	#line 448 "C:\Users\luan\AppData\Local\Temp\temp.nxc"
22	449	31		set __D0BonecoNaFrente, 0
22	448	34	#line 448 "C:\Users\luan\AppData\Local\Temp\temp.nxc"
22	449	34		cmp 4, __D0BonecoNaFrente, __signed_stack_001BonecoNaFrente, __D0BonecoNaFrente
22	450	38	#line 450 "C:\Users\luan\AppData\Local\Temp\temp.nxc"
22	451	38		brtst 4, __ASM_Label_753, __D0BonecoNaFrente
22	452	41	#line 452 "C:\Users\luan\AppData\Local\Temp\temp.nxc"
22	453	41		subcall Pega, __Pega_return
22	452	44	#line 452 "C:\Users\luan\AppData\Local\Temp\temp.nxc"
22	453	44	#line 453 "C:\Users\luan\AppData\Local\Temp\temp.nxc"
22	454	44		subcall MandaCheio, __MandaCheio_return
22	453	47	#line 453 "C:\Users\luan\AppData\Local\Temp\temp.nxc"
22	453	47	#line 453 "C:\Users\luan\AppData\Local\Temp\temp.nxc"
22	454	47		set __D0BonecoNaFrente, 1
22	454	50	#line 454 "C:\Users\luan\AppData\Local\Temp\temp.nxc"
22	455	50		tst 5, __D0BonecoNaFrente, __D0BonecoNaFrente
22	454	53	#line 454 "C:\Users\luan\AppData\Local\Temp\temp.nxc"
22	455	53		brtst 4, __ASM_Label_755, __D0BonecoNaFrente
22	454	56	#line 454 "C:\Users\luan\AppData\Local\Temp\temp.nxc"
22	455	56	#pragma macro 9
22	455	56		acquire __MRMutex
22	455	57		mov __MRArgs.QueueID, __constVal2
22	455	59		mov __MRArgs.Remove, __constVal1
22	455	62		set __RRNTmpVal, 0
22	455	65		syscall 27, __MRArgs
22	455	68		unflatten __RRNTmpVal, __RRNErr, __MRArgs.Message, __RRNTmpVal
22	455	73		mov __BonecoNaFrente_7qG2_mensagem_7qG2_001, __RRNTmpVal
22	455	75		mov __D0BonecoNaFrente, __MRArgs.Result
22	455	78		release __MRMutex
22	7203	79	#line 7203 "C:\Users\luan\AppData\Local\Temp\temp.nxc"
22	454	79	#line 454 "C:\Users\luan\AppData\Local\Temp\temp.nxc"
22	454	79	#line 454 "C:\Users\luan\AppData\Local\Temp\temp.nxc"
22	455	79	#line 455 "C:\Users\luan\AppData\Local\Temp\temp.nxc"
22	456	79		mov __signed_stack_001BonecoNaFrente, __BonecoNaFrente_7qG2_mensagem_7qG2_001
22	455	81	#line 455 "C:\Users\luan\AppData\Local\Temp\temp.nxc"
22	456	81	#line 456 "C:\Users\luan\AppData\Local\Temp\temp.nxc"
22	457	81		set __D0BonecoNaFrente, 12
22	456	84	#line 456 "C:\Users\luan\AppData\Local\Temp\temp.nxc"
22	457	84		cmp 4, __D0BonecoNaFrente, __signed_stack_001BonecoNaFrente, __D0BonecoNaFrente
22	456	88	#line 456 "C:\Users\luan\AppData\Local\Temp\temp.nxc"
22	457	88		brtst 4, __ASM_Label_760, __D0BonecoNaFrente
22	457	91	#line 457 "C:\Users\luan\AppData\Local\Temp\temp.nxc"
22	458	91		subcall virar, __virar_return
22	457	94	#line 457 "C:\Users\luan\AppData\Local\Temp\temp.nxc"
22	458	94	#line 458 "C:\Users\luan\AppData\Local\Temp\temp.nxc"
22	459	94	#line 459 "C:\Users\luan\AppData\Local\Temp\temp.nxc"
22	460	94		jmp __ASM_Label_754
22	459	96	#line 459 "C:\Users\luan\AppData\Local\Temp\temp.nxc"
22	461	96	#line 461 "C:\Users\luan\AppData\Local\Temp\temp.nxc"
22	462	96		jmp __ASM_Label_761
22	462	98	#line 462 "C:\Users\luan\AppData\Local\Temp\temp.nxc"
22	463	98		subcall Pega, __Pega_return
22	462	101	#line 462 "C:\Users\luan\AppData\Local\Temp\temp.nxc"
22	463	101	#line 463 "C:\Users\luan\AppData\Local\Temp\temp.nxc"
22	464	101		subcall MandarSeguir, __MandarSeguir_return
22	463	104	#line 463 "C:\Users\luan\AppData\Local\Temp\temp.nxc"
22	464	104	#line 464 "C:\Users\luan\AppData\Local\Temp\temp.nxc"
22	465	104		add BonecosCapturados, BonecosCapturados, __constVal1
22	464	108	#line 464 "C:\Users\luan\AppData\Local\Temp\temp.nxc"
22	464	108	#line 464 "C:\Users\luan\AppData\Local\Temp\temp.nxc"
22	465	108		mov __nbip_7qG2_n_7qG2_000, BonecosCapturados
22	464	110	#line 464 "C:\Users\luan\AppData\Local\Temp\temp.nxc"
22	465	110	#line 465 "C:\Users\luan\AppData\Local\Temp\temp.nxc"
22	466	110		subcall nbip, __nbip_return
22	465	113	#line 465 "C:\Users\luan\AppData\Local\Temp\temp.nxc"
22	467	113	#line 467 "C:\Users\luan\AppData\Local\Temp\temp.nxc"
22	467	113	#line 467 "C:\Users\luan\AppData\Local\Temp\temp.nxc"
22	468	113		jmp __ASM_Label_764
22	467	115	#line 467 "C:\Users\luan\AppData\Local\Temp\temp.nxc"
22	468	115		mov __signed_stack_001BonecoNaFrente, __BonecoNaFrente_7qG2_cor_7qG2_000
22	467	117	#line 467 "C:\Users\luan\AppData\Local\Temp\temp.nxc"
22	468	117	#line 468 "C:\Users\luan\AppData\Local\Temp\temp.nxc"
22	469	117		mov __D0BonecoNaFrente, bonecoNaoAlvo
22	468	119	#line 468 "C:\Users\luan\AppData\Local\Temp\temp.nxc"
22	469	119		cmp 4, __D0BonecoNaFrente, __signed_stack_001BonecoNaFrente, __D0BonecoNaFrente
22	471	123	#line 471 "C:\Users\luan\AppData\Local\Temp\temp.nxc"
22	472	123		brtst 4, __ASM_Label_767, __D0BonecoNaFrente
22	472	126	#line 472 "C:\Users\luan\AppData\Local\Temp\temp.nxc"
22	473	126		subcall Rejeita, __Rejeita_return
22	472	129	#line 472 "C:\Users\luan\AppData\Local\Temp\temp.nxc"
22	473	129	#line 473 "C:\Users\luan\AppData\Local\Temp\temp.nxc"
22	474	129		jmp __ASM_Label_768
22	473	131	#line 473 "C:\Users\luan\AppData\Local\Temp\temp.nxc"
22	474	131		mov __signed_stack_001BonecoNaFrente, __BonecoNaFrente_7qG2_cor_7qG2_000
22	473	133	#line 473 "C:\Users\luan\AppData\Local\Temp\temp.nxc"
22	474	133	#line 474 "C:\Users\luan\AppData\Local\Temp\temp.nxc"
22	475	133		set __D0BonecoNaFrente, 3
22	474	136	#line 474 "C:\Users\luan\AppData\Local\Temp\temp.nxc"
22	475	136		cmp 4, __D0BonecoNaFrente, __signed_stack_001BonecoNaFrente, __D0BonecoNaFrente
22	477	140	#line 477 "C:\Users\luan\AppData\Local\Temp\temp.nxc"
22	478	140		brtst 4, __ASM_Label_771, __D0BonecoNaFrente
22	479	143	#line 479 "C:\Users\luan\AppData\Local\Temp\temp.nxc"
22	480	143		subcall Rejeita, __Rejeita_return
22	479	146	#line 479 "C:\Users\luan\AppData\Local\Temp\temp.nxc"
22	482	146	#line 482 "C:\Users\luan\AppData\Local\Temp\temp.nxc"
22	483	146		jmp __ASM_Label_772
22	483	148	#line 483 "C:\Users\luan\AppData\Local\Temp\temp.nxc"
22	484	148		subcall bip, __bip_return
22	483	151	#line 483 "C:\Users\luan\AppData\Local\Temp\temp.nxc"
22	485	151	#line 485 "C:\Users\luan\AppData\Local\Temp\temp.nxc"
22	486	151		subcall bip, __bip_return
22	485	154	#line 485 "C:\Users\luan\AppData\Local\Temp\temp.nxc"
22	6678	154	#line 6678 "NXCDefs.h"
22	6679	154	#pragma macro 6
22	6679	154		mov __PointOutArgs.Location.X, __constVal200
22	6679	156		mov __PointOutArgs.Location.Y, __constVal200
22	6679	158		mov __PointOutArgs.Options, __constVal1
22	6679	160		syscall 14, __PointOutArgs
22	7302	163	#line 7302 "NXCDefs.h"
22	6678	163	#line 6678 "NXCDefs.h"
22	486	163	#line 486 "C:\Users\luan\AppData\Local\Temp\temp.nxc"
22	486	163	#line 486 "C:\Users\luan\AppData\Local\Temp\temp.nxc"
22	487	163		set __signed_stack_001BonecoNaFrente, 0
22	486	166	#line 486 "C:\Users\luan\AppData\Local\Temp\temp.nxc"
22	486	166	#line 486 "C:\Users\luan\AppData\Local\Temp\temp.nxc"
22	487	166		set __signed_stack_002BonecoNaFrente, 56
22	486	169	#line 486 "C:\Users\luan\AppData\Local\Temp\temp.nxc"
22	486	169	#line 486 "C:\Users\luan\AppData\Local\Temp\temp.nxc"
22	487	169		mov __D0BonecoNaFrente, ht_white
22	490	171	#line 490 "C:\Users\luan\AppData\Local\Temp\temp.nxc"
22	490	171	#line 490 "C:\Users\luan\AppData\Local\Temp\temp.nxc"
22	491	171		mov __TextOutArgs.Location.X, __signed_stack_001BonecoNaFrente
22	490	174	#line 490 "C:\Users\luan\AppData\Local\Temp\temp.nxc"
22	491	174		mov __TextOutArgs.Location.Y, __signed_stack_002BonecoNaFrente
22	490	177	#line 490 "C:\Users\luan\AppData\Local\Temp\temp.nxc"
22	491	177		set __TextOutArgs.Options, 0
22	490	180	#line 490 "C:\Users\luan\AppData\Local\Temp\temp.nxc"
22	491	180		numtostr __TextOutArgs.Text, __D0BonecoNaFrente
22	490	183	#line 490 "C:\Users\luan\AppData\Local\Temp\temp.nxc"
22	491	183		syscall 13, __TextOutArgs
22	490	186	#line 490 "C:\Users\luan\AppData\Local\Temp\temp.nxc"
22	491	186		mov __D0BonecoNaFrente, __TextOutArgs.Result
22	490	189	#line 490 "C:\Users\luan\AppData\Local\Temp\temp.nxc"
22	490	189	#line 490 "C:\Users\luan\AppData\Local\Temp\temp.nxc"
22	491	189	#line 491 "C:\Users\luan\AppData\Local\Temp\temp.nxc"
22	492	189		subcall VoltaGarra, __VoltaGarra_return
22	491	192	#line 491 "C:\Users\luan\AppData\Local\Temp\temp.nxc"
22	492	192	#line 492 "C:\Users\luan\AppData\Local\Temp\temp.nxc"
22	493	192		subcall MandarSeguir, __MandarSeguir_return
22	492	195	#line 492 "C:\Users\luan\AppData\Local\Temp\temp.nxc"
22	492	195	#line 492 "C:\Users\luan\AppData\Local\Temp\temp.nxc"
22	493	195		set __Wait_7qG2_ms_7qG2_000_inline_BonecoNaFrente, 400
22	492	198	#line 492 "C:\Users\luan\AppData\Local\Temp\temp.nxc"
22	8551	198	#line 8551 "NXCDefs.h"
22	8552	198		wait2 NA, __Wait_7qG2_ms_7qG2_000_inline_BonecoNaFrente
22	8551	201	#line 8551 "NXCDefs.h"
22	493	201	#line 493 "C:\Users\luan\AppData\Local\Temp\temp.nxc"
22	495	201	#line 495 "C:\Users\luan\AppData\Local\Temp\temp.nxc"
22	495	201	#line 495 "C:\Users\luan\AppData\Local\Temp\temp.nxc"
22	495	201	#line 495 "C:\Users\luan\AppData\Local\Temp\temp.nxc"
22	497	201	#line 497 "C:\Users\luan\AppData\Local\Temp\temp.nxc"
22	498	201		jmp __ASM_Label_781
22	498	203	#line 498 "C:\Users\luan\AppData\Local\Temp\temp.nxc"
22	499	203		subcall VoltaGarra, __VoltaGarra_return
22	498	206	#line 498 "C:\Users\luan\AppData\Local\Temp\temp.nxc"
22	499	206	#line 499 "C:\Users\luan\AppData\Local\Temp\temp.nxc"
22	500	206		subcall MandarSeguir, __MandarSeguir_return
22	499	209	#line 499 "C:\Users\luan\AppData\Local\Temp\temp.nxc"
22	499	209	#line 499 "C:\Users\luan\AppData\Local\Temp\temp.nxc"
22	500	209		set __Wait_7qG2_ms_7qG2_000_inline_BonecoNaFrente, 400
22	499	212	#line 499 "C:\Users\luan\AppData\Local\Temp\temp.nxc"
22	8551	212	#line 8551 "NXCDefs.h"
22	8552	212		wait2 NA, __Wait_7qG2_ms_7qG2_000_inline_BonecoNaFrente
22	8551	215	#line 8551 "NXCDefs.h"
22	500	215	#line 500 "C:\Users\luan\AppData\Local\Temp\temp.nxc"
22	503	215	#line 503 "C:\Users\luan\AppData\Local\Temp\temp.nxc"
22	503	215	#line 503 "C:\Users\luan\AppData\Local\Temp\temp.nxc"
22	504	215		subret __BonecoNaFrente_return
23	506	0	#line 506 "C:\Users\luan\AppData\Local\Temp\temp.nxc"
23	507	0		set __Rejeita_7qG2_flag_7qG2_000, 0
23	506	3	#line 506 "C:\Users\luan\AppData\Local\Temp\temp.nxc"
23	507	3	#line 507 "C:\Users\luan\AppData\Local\Temp\temp.nxc"
23	508	3		subcall LevantaBoneco, __LevantaBoneco_return
23	507	6	#line 507 "C:\Users\luan\AppData\Local\Temp\temp.nxc"
23	508	6	#line 508 "C:\Users\luan\AppData\Local\Temp\temp.nxc"
23	509	6		subcall MandaRejeitar, __MandaRejeitar_return
23	508	8	#line 508 "C:\Users\luan\AppData\Local\Temp\temp.nxc"
23	508	8	#line 508 "C:\Users\luan\AppData\Local\Temp\temp.nxc"
23	509	8		mov __D0Rejeita, __Rejeita_7qG2_flag_7qG2_000
23	508	10	#line 508 "C:\Users\luan\AppData\Local\Temp\temp.nxc"
23	509	10		not __D0Rejeita, __D0Rejeita
23	509	13	#line 509 "C:\Users\luan\AppData\Local\Temp\temp.nxc"
23	510	13		tst 5, __D0Rejeita, __D0Rejeita
23	509	16	#line 509 "C:\Users\luan\AppData\Local\Temp\temp.nxc"
23	510	16		brtst 4, __ASM_Label_787, __D0Rejeita
23	509	19	#line 509 "C:\Users\luan\AppData\Local\Temp\temp.nxc"
23	510	19	#pragma macro 9
23	510	19		acquire __MRMutex
23	510	20		mov __MRArgs.QueueID, __constVal2
23	510	22		mov __MRArgs.Remove, __constVal1
23	510	25		set __RRNTmpVal, 0
23	510	28		syscall 27, __MRArgs
23	510	31		unflatten __RRNTmpVal, __RRNErr, __MRArgs.Message, __RRNTmpVal
23	510	36		mov __Rejeita_7qG2_aux_7qG2_000, __RRNTmpVal
23	510	38		mov __D0Rejeita, __MRArgs.Result
23	510	41		release __MRMutex
23	7416	42	#line 7416 "C:\Users\luan\AppData\Local\Temp\temp.nxc"
23	509	42	#line 509 "C:\Users\luan\AppData\Local\Temp\temp.nxc"
23	509	42	#line 509 "C:\Users\luan\AppData\Local\Temp\temp.nxc"
23	510	42	#line 510 "C:\Users\luan\AppData\Local\Temp\temp.nxc"
23	511	42		set __nbip_7qG2_n_7qG2_000, 1
23	510	45	#line 510 "C:\Users\luan\AppData\Local\Temp\temp.nxc"
23	511	45	#line 511 "C:\Users\luan\AppData\Local\Temp\temp.nxc"
23	512	45		subcall nbip, __nbip_return
23	511	48	#line 511 "C:\Users\luan\AppData\Local\Temp\temp.nxc"
23	511	48	#line 511 "C:\Users\luan\AppData\Local\Temp\temp.nxc"
23	512	48		mov __D0Rejeita, __Rejeita_7qG2_aux_7qG2_000
23	515	50		brcmp 4, __ASM_Label_795, __constVal3, __D0Rejeita
23	516	54		brcmp 4, __ASM_Label_798, __constVal12, __D0Rejeita
23	517	58		jmp __ASM_Label_794
23	513	60	#line 513 "C:\Users\luan\AppData\Local\Temp\temp.nxc"
23	514	60	#line 514 "C:\Users\luan\AppData\Local\Temp\temp.nxc"
23	515	60		set __Rejeita_7qG2_flag_7qG2_000, 1
23	514	63	#line 514 "C:\Users\luan\AppData\Local\Temp\temp.nxc"
23	514	63	#line 514 "C:\Users\luan\AppData\Local\Temp\temp.nxc"
23	515	63	#line 515 "C:\Users\luan\AppData\Local\Temp\temp.nxc"
23	516	63		jmp __ASM_Label_794
23	515	65	#line 515 "C:\Users\luan\AppData\Local\Temp\temp.nxc"
23	516	65	#line 516 "C:\Users\luan\AppData\Local\Temp\temp.nxc"
23	517	65	#line 517 "C:\Users\luan\AppData\Local\Temp\temp.nxc"
23	518	65		subcall virar, __virar_return
23	517	68	#line 517 "C:\Users\luan\AppData\Local\Temp\temp.nxc"
23	518	68	#line 518 "C:\Users\luan\AppData\Local\Temp\temp.nxc"
23	518	68	#line 518 "C:\Users\luan\AppData\Local\Temp\temp.nxc"
23	520	68	#line 520 "C:\Users\luan\AppData\Local\Temp\temp.nxc"
23	520	68	#line 520 "C:\Users\luan\AppData\Local\Temp\temp.nxc"
23	521	68		jmp __ASM_Label_786
23	520	70	#line 520 "C:\Users\luan\AppData\Local\Temp\temp.nxc"
23	521	70	#line 521 "C:\Users\luan\AppData\Local\Temp\temp.nxc"
23	522	70		subcall VoltaGarra, __VoltaGarra_return
23	521	73	#line 521 "C:\Users\luan\AppData\Local\Temp\temp.nxc"
23	522	73	#line 522 "C:\Users\luan\AppData\Local\Temp\temp.nxc"
23	523	73		subcall MandaDesgirar, __MandaDesgirar_return
23	522	75	#line 522 "C:\Users\luan\AppData\Local\Temp\temp.nxc"
23	523	75	#line 523 "C:\Users\luan\AppData\Local\Temp\temp.nxc"
23	524	75		set __Rejeita_7qG2_flag_7qG2_000, 0
23	523	78	#line 523 "C:\Users\luan\AppData\Local\Temp\temp.nxc"
23	523	78	#line 523 "C:\Users\luan\AppData\Local\Temp\temp.nxc"
23	523	78	#line 523 "C:\Users\luan\AppData\Local\Temp\temp.nxc"
23	524	78		mov __D0Rejeita, __Rejeita_7qG2_flag_7qG2_000
23	523	80	#line 523 "C:\Users\luan\AppData\Local\Temp\temp.nxc"
23	524	80		not __D0Rejeita, __D0Rejeita
23	524	83	#line 524 "C:\Users\luan\AppData\Local\Temp\temp.nxc"
23	525	83		tst 5, __D0Rejeita, __D0Rejeita
23	524	86	#line 524 "C:\Users\luan\AppData\Local\Temp\temp.nxc"
23	525	86		brtst 4, __ASM_Label_802, __D0Rejeita
23	524	89	#line 524 "C:\Users\luan\AppData\Local\Temp\temp.nxc"
23	525	89	#pragma macro 9
23	525	89		acquire __MRMutex
23	525	90		mov __MRArgs.QueueID, __constVal2
23	525	92		mov __MRArgs.Remove, __constVal1
23	525	95		set __RRNTmpVal, 0
23	525	98		syscall 27, __MRArgs
23	525	101		unflatten __RRNTmpVal, __RRNErr, __MRArgs.Message, __RRNTmpVal
23	525	106		mov __Rejeita_7qG2_aux_7qG2_000, __RRNTmpVal
23	525	108		mov __D0Rejeita, __MRArgs.Result
23	525	111		release __MRMutex
23	7480	112	#line 7480 "C:\Users\luan\AppData\Local\Temp\temp.nxc"
23	524	112	#line 524 "C:\Users\luan\AppData\Local\Temp\temp.nxc"
23	524	112	#line 524 "C:\Users\luan\AppData\Local\Temp\temp.nxc"
23	525	112	#line 525 "C:\Users\luan\AppData\Local\Temp\temp.nxc"
23	526	112		mov __D0Rejeita, __Rejeita_7qG2_aux_7qG2_000
23	529	114		brcmp 4, __ASM_Label_808, __constVal6, __D0Rejeita
23	530	118		brcmp 4, __ASM_Label_811, __constVal12, __D0Rejeita
23	531	122		jmp __ASM_Label_807
23	527	124	#line 527 "C:\Users\luan\AppData\Local\Temp\temp.nxc"
23	528	124	#line 528 "C:\Users\luan\AppData\Local\Temp\temp.nxc"
23	529	124		set __Rejeita_7qG2_flag_7qG2_000, 1
23	528	127	#line 528 "C:\Users\luan\AppData\Local\Temp\temp.nxc"
23	528	127	#line 528 "C:\Users\luan\AppData\Local\Temp\temp.nxc"
23	529	127	#line 529 "C:\Users\luan\AppData\Local\Temp\temp.nxc"
23	530	127		jmp __ASM_Label_807
23	529	129	#line 529 "C:\Users\luan\AppData\Local\Temp\temp.nxc"
23	530	129	#line 530 "C:\Users\luan\AppData\Local\Temp\temp.nxc"
23	531	129	#line 531 "C:\Users\luan\AppData\Local\Temp\temp.nxc"
23	532	129		subcall virar, __virar_return
23	531	132	#line 531 "C:\Users\luan\AppData\Local\Temp\temp.nxc"
23	532	132	#line 532 "C:\Users\luan\AppData\Local\Temp\temp.nxc"
23	532	132	#line 532 "C:\Users\luan\AppData\Local\Temp\temp.nxc"
23	534	132	#line 534 "C:\Users\luan\AppData\Local\Temp\temp.nxc"
23	536	132	#line 536 "C:\Users\luan\AppData\Local\Temp\temp.nxc"
23	537	132		jmp __ASM_Label_801
23	536	134	#line 536 "C:\Users\luan\AppData\Local\Temp\temp.nxc"
23	536	134	#line 536 "C:\Users\luan\AppData\Local\Temp\temp.nxc"
23	537	134		subret __Rejeita_return
24	559	0	#line 559 "C:\Users\luan\AppData\Local\Temp\temp.nxc"
24	560	0	#pragma macro 14
24	560	0		acquire __RemoteMutex
24	560	1		mov __SRSTmpBuf, __DCMessageWritePacket
24	560	3		replace __SRSTmpBuf, __SRSTmpBuf, __constVal2, __constVal1
24	560	8		replace __SRSTmpBuf, __SRSTmpBuf, __constVal3, __constVal5
24	560	13		mov __SRSTmpLongVal, __constVal5
24	560	15		flatten __SRSFlattenBuf, __SRSTmpLongVal
24	560	18		arrbuild __SRSSendBuf, __SRSTmpBuf, __SRSFlattenBuf
24	560	23		acquire __CBTWMutex
24	560	24		mov __CBTWArgs.Connection, __constVal0
24	560	27		mov __CBTWArgs.Buffer, __SRSSendBuf
24	560	29		syscall 29, __CBTWArgs
24	560	32		release __CBTWMutex
24	560	33		release __RemoteMutex
24	7598	34	#line 7598 "C:\Users\luan\AppData\Local\Temp\temp.nxc"
24	559	34	#line 559 "C:\Users\luan\AppData\Local\Temp\temp.nxc"
24	559	34	#line 559 "C:\Users\luan\AppData\Local\Temp\temp.nxc"
24	562	34	#line 562 "C:\Users\luan\AppData\Local\Temp\temp.nxc"
24	563	34		subret __MandaRejeitar_return
25	564	0	#line 564 "C:\Users\luan\AppData\Local\Temp\temp.nxc"
25	565	0	#pragma macro 14
25	565	0		acquire __RemoteMutex
25	565	1		mov __SRSTmpBuf, __DCMessageWritePacket
25	565	3		replace __SRSTmpBuf, __SRSTmpBuf, __constVal2, __constVal1
25	565	8		replace __SRSTmpBuf, __SRSTmpBuf, __constVal3, __constVal5
25	565	13		mov __SRSTmpLongVal, __constVal4
25	565	15		flatten __SRSFlattenBuf, __SRSTmpLongVal
25	565	18		arrbuild __SRSSendBuf, __SRSTmpBuf, __SRSFlattenBuf
25	565	23		acquire __CBTWMutex
25	565	24		mov __CBTWArgs.Connection, __constVal0
25	565	27		mov __CBTWArgs.Buffer, __SRSSendBuf
25	565	29		syscall 29, __CBTWArgs
25	565	32		release __CBTWMutex
25	565	33		release __RemoteMutex
25	7607	34	#line 7607 "C:\Users\luan\AppData\Local\Temp\temp.nxc"
25	564	34	#line 564 "C:\Users\luan\AppData\Local\Temp\temp.nxc"
25	564	34	#line 564 "C:\Users\luan\AppData\Local\Temp\temp.nxc"
25	567	34	#line 567 "C:\Users\luan\AppData\Local\Temp\temp.nxc"
25	568	34		subret __MandaDesgirar_return
26	569	0	#line 569 "C:\Users\luan\AppData\Local\Temp\temp.nxc"
26	570	0	#pragma macro 14
26	570	0		acquire __RemoteMutex
26	570	1		mov __SRSTmpBuf, __DCMessageWritePacket
26	570	3		replace __SRSTmpBuf, __SRSTmpBuf, __constVal2, __constVal1
26	570	8		replace __SRSTmpBuf, __SRSTmpBuf, __constVal3, __constVal5
26	570	13		mov __SRSTmpLongVal, __constVal9
26	570	15		flatten __SRSFlattenBuf, __SRSTmpLongVal
26	570	18		arrbuild __SRSSendBuf, __SRSTmpBuf, __SRSFlattenBuf
26	570	23		acquire __CBTWMutex
26	570	24		mov __CBTWArgs.Connection, __constVal0
26	570	27		mov __CBTWArgs.Buffer, __SRSSendBuf
26	570	29		syscall 29, __CBTWArgs
26	570	32		release __CBTWMutex
26	570	33		release __RemoteMutex
26	7616	34	#line 7616 "C:\Users\luan\AppData\Local\Temp\temp.nxc"
26	569	34	#line 569 "C:\Users\luan\AppData\Local\Temp\temp.nxc"
26	569	34	#line 569 "C:\Users\luan\AppData\Local\Temp\temp.nxc"
26	572	34	#line 572 "C:\Users\luan\AppData\Local\Temp\temp.nxc"
26	573	34		subret __MandaCheio_return
27	574	0	#line 574 "C:\Users\luan\AppData\Local\Temp\temp.nxc"
27	575	0		mov __D0LevantaBoneco, __constValNeg70
27	575	2	#line 575 "C:\Users\luan\AppData\Local\Temp\temp.nxc"
27	576	2	#pragma macro 7
27	576	2		setout __constVal0, 2, __D0LevantaBoneco, 1, __constVal3, 8, __constVal0, 6, __constVal32, 7, __constVal0, 5, __constVal0, 10, __constVal96, 11, __constVal32, 12, __constVal32, 0, __constVal63
27	7627	25	#line 7627 "C:\Users\luan\AppData\Local\Temp\temp.nxc"
27	575	25	#line 575 "C:\Users\luan\AppData\Local\Temp\temp.nxc"
27	575	25	#line 575 "C:\Users\luan\AppData\Local\Temp\temp.nxc"
27	576	25		getout __signed_stack_001LevantaBoneco, __constVal0, 4
27	575	29	#line 575 "C:\Users\luan\AppData\Local\Temp\temp.nxc"
27	575	29	#line 575 "C:\Users\luan\AppData\Local\Temp\temp.nxc"
27	576	29		mov __D0LevantaBoneco, __constValNeg50
27	575	31	#line 575 "C:\Users\luan\AppData\Local\Temp\temp.nxc"
27	576	31		cmp 1, __D0LevantaBoneco, __signed_stack_001LevantaBoneco, __D0LevantaBoneco
27	575	35	#line 575 "C:\Users\luan\AppData\Local\Temp\temp.nxc"
27	576	35		brtst 4, __ASM_Label_829, __D0LevantaBoneco
27	576	38	#line 576 "C:\Users\luan\AppData\Local\Temp\temp.nxc"
27	577	38		jmp __ASM_Label_828
27	576	40	#line 576 "C:\Users\luan\AppData\Local\Temp\temp.nxc"
27	577	40	#line 577 "C:\Users\luan\AppData\Local\Temp\temp.nxc"
27	578	40	#pragma macro 7
27	578	40		setout __constVal0, 2, __constVal0, 1, __constVal3, 8, __constVal0, 6, __constVal32, 7, __constVal0, 5, __constVal0, 10, __constVal96, 11, __constVal32, 12, __constVal32, 0, __constVal63
27	7649	63	#line 7649 "C:\Users\luan\AppData\Local\Temp\temp.nxc"
27	577	63	#line 577 "C:\Users\luan\AppData\Local\Temp\temp.nxc"
27	579	63	#line 579 "C:\Users\luan\AppData\Local\Temp\temp.nxc"
27	580	63		subret __LevantaBoneco_return
28	597	0	#line 597 "C:\Users\luan\AppData\Local\Temp\temp.nxc"
28	598	0		subret __CalibraFaixaBase_return
29	599	0	#line 599 "C:\Users\luan\AppData\Local\Temp\temp.nxc"
29	600	0	#pragma macro 14
29	600	0		acquire __RemoteMutex
29	600	1		mov __SRSTmpBuf, __DCMessageWritePacket
29	600	3		replace __SRSTmpBuf, __SRSTmpBuf, __constVal2, __constVal1
29	600	8		replace __SRSTmpBuf, __SRSTmpBuf, __constVal3, __constVal5
29	600	13		mov __SRSTmpLongVal, __constVal8
29	600	15		flatten __SRSFlattenBuf, __SRSTmpLongVal
29	600	18		arrbuild __SRSSendBuf, __SRSTmpBuf, __SRSFlattenBuf
29	600	23		acquire __CBTWMutex
29	600	24		mov __CBTWArgs.Connection, __constVal0
29	600	27		mov __CBTWArgs.Buffer, __SRSSendBuf
29	600	29		syscall 29, __CBTWArgs
29	600	32		release __CBTWMutex
29	600	33		release __RemoteMutex
29	7662	34	#line 7662 "C:\Users\luan\AppData\Local\Temp\temp.nxc"
29	599	34	#line 599 "C:\Users\luan\AppData\Local\Temp\temp.nxc"
29	599	34	#line 599 "C:\Users\luan\AppData\Local\Temp\temp.nxc"
29	602	34	#line 602 "C:\Users\luan\AppData\Local\Temp\temp.nxc"
29	603	34		subret __MandaPeguei_return
30	617	0	#line 617 "C:\Users\luan\AppData\Local\Temp\temp.nxc"
30	618	0		gettick __virar_7qG2_time_7qG2_000
30	617	2	#line 617 "C:\Users\luan\AppData\Local\Temp\temp.nxc"
30	618	2	#line 618 "C:\Users\luan\AppData\Local\Temp\temp.nxc"
30	619	2		set __D0virar, 0
30	618	5	#line 618 "C:\Users\luan\AppData\Local\Temp\temp.nxc"
30	619	5		mov __virar_7qG2_aux_7qG2_000, __D0virar
30	623	7	#line 623 "C:\Users\luan\AppData\Local\Temp\temp.nxc"
30	624	7		subcall lerAngulo, __lerAngulo_return
30	623	9	#line 623 "C:\Users\luan\AppData\Local\Temp\temp.nxc"
30	624	9		mov __virar_7qG2_angulo_7qG2_000, __D0lerAngulo
30	623	11	#line 623 "C:\Users\luan\AppData\Local\Temp\temp.nxc"
30	623	11	#line 623 "C:\Users\luan\AppData\Local\Temp\temp.nxc"
30	625	11	#line 625 "C:\Users\luan\AppData\Local\Temp\temp.nxc"
30	626	11		subcall GetGyroOffset, __GetGyroOffset_return
30	625	13	#line 625 "C:\Users\luan\AppData\Local\Temp\temp.nxc"
30	626	13		mov __virar_7qG2_offset_7qG2_000, __DF0GetGyroOffset
30	625	15	#line 625 "C:\Users\luan\AppData\Local\Temp\temp.nxc"
30	625	15	#line 625 "C:\Users\luan\AppData\Local\Temp\temp.nxc"
30	627	15	#line 627 "C:\Users\luan\AppData\Local\Temp\temp.nxc"
30	628	15		subcall MandaGirar, __MandaGirar_return
30	627	17	#line 627 "C:\Users\luan\AppData\Local\Temp\temp.nxc"
30	627	17	#line 627 "C:\Users\luan\AppData\Local\Temp\temp.nxc"
30	628	17		mov __DF0virar, __virar_7qG2_aux_7qG2_000
30	627	19	#line 627 "C:\Users\luan\AppData\Local\Temp\temp.nxc"
30	628	19		abs __float_stack_001virar, __DF0virar
30	627	22	#line 627 "C:\Users\luan\AppData\Local\Temp\temp.nxc"
30	627	22	#line 627 "C:\Users\luan\AppData\Local\Temp\temp.nxc"
30	628	22		mov __D0virar, __virar_7qG2_angulo_7qG2_000
30	627	24	#line 627 "C:\Users\luan\AppData\Local\Temp\temp.nxc"
30	628	24		abs __D0virar, __D0virar
30	627	27	#line 627 "C:\Users\luan\AppData\Local\Temp\temp.nxc"
30	628	27		cmp 0, __D0virar, __float_stack_001virar, __D0virar
30	628	31	#line 628 "C:\Users\luan\AppData\Local\Temp\temp.nxc"
30	629	31		brtst 4, __ASM_Label_848, __D0virar
30	629	34	#line 629 "C:\Users\luan\AppData\Local\Temp\temp.nxc"
30	630	34		mov __virar_7qG2_prev_time_7qG2_000, __virar_7qG2_time_7qG2_000
30	629	36	#line 629 "C:\Users\luan\AppData\Local\Temp\temp.nxc"
30	629	36	#line 629 "C:\Users\luan\AppData\Local\Temp\temp.nxc"
30	629	36	#line 629 "C:\Users\luan\AppData\Local\Temp\temp.nxc"
30	630	36		gettick __virar_7qG2_time_7qG2_000
30	629	38	#line 629 "C:\Users\luan\AppData\Local\Temp\temp.nxc"
30	629	38	#line 629 "C:\Users\luan\AppData\Local\Temp\temp.nxc"
30	629	38	#line 629 "C:\Users\luan\AppData\Local\Temp\temp.nxc"
30	630	38	#line 630 "C:\Users\luan\AppData\Local\Temp\temp.nxc"
30	631	38		set __SensorHTGyro_7qG2_port_7qG2_000_inline_virar, 3
30	630	41	#line 630 "C:\Users\luan\AppData\Local\Temp\temp.nxc"
30	631	41	#line 631 "C:\Users\luan\AppData\Local\Temp\temp.nxc"
30	632	41		mov __SensorHTGyro_7qG2_offset_7qG2_000_inline_virar, __constVal0
30	13720	43	#line 13720 "NXCDefs.h"
30	13721	43		getin __D0SensorHTGyro_inline_virar, __SensorHTGyro_7qG2_port_7qG2_000_inline_virar, 2
30	13722	47		sub __D0SensorHTGyro_inline_virar, __D0SensorHTGyro_inline_virar, __constVal600
30	13723	51		sub __virar_7qG2_gyro_7qG2_000, __D0SensorHTGyro_inline_virar, __SensorHTGyro_7qG2_offset_7qG2_000_inline_virar
30	13724	55	#line 13724 "NXCDefs.h"
30	631	55	#line 631 "C:\Users\luan\AppData\Local\Temp\temp.nxc"
30	631	55	#line 631 "C:\Users\luan\AppData\Local\Temp\temp.nxc"
30	631	55	#line 631 "C:\Users\luan\AppData\Local\Temp\temp.nxc"
30	631	55	#line 631 "C:\Users\luan\AppData\Local\Temp\temp.nxc"
30	631	55	#line 631 "C:\Users\luan\AppData\Local\Temp\temp.nxc"
30	631	55	#line 631 "C:\Users\luan\AppData\Local\Temp\temp.nxc"
30	631	55	#line 631 "C:\Users\luan\AppData\Local\Temp\temp.nxc"
30	632	55		sub __float_stack_001virar, __virar_7qG2_gyro_7qG2_000, __virar_7qG2_offset_7qG2_000
30	631	59	#line 631 "C:\Users\luan\AppData\Local\Temp\temp.nxc"
30	631	59	#line 631 "C:\Users\luan\AppData\Local\Temp\temp.nxc"
30	631	59	#line 631 "C:\Users\luan\AppData\Local\Temp\temp.nxc"
30	631	59	#line 631 "C:\Users\luan\AppData\Local\Temp\temp.nxc"
30	631	59	#line 631 "C:\Users\luan\AppData\Local\Temp\temp.nxc"
30	632	59		sub __DU0virar, __virar_7qG2_time_7qG2_000, __virar_7qG2_prev_time_7qG2_000
30	631	63	#line 631 "C:\Users\luan\AppData\Local\Temp\temp.nxc"
30	632	63		mul __float_stack_001virar, __float_stack_001virar, __DU0virar
30	631	67	#line 631 "C:\Users\luan\AppData\Local\Temp\temp.nxc"
30	632	67	#line 632 "C:\Users\luan\AppData\Local\Temp\temp.nxc"
30	633	67		mov __DF0virar, __constVal1000
30	632	69	#line 632 "C:\Users\luan\AppData\Local\Temp\temp.nxc"
30	633	69		div __DF0virar, __float_stack_001virar, __DF0virar
30	632	73	#line 632 "C:\Users\luan\AppData\Local\Temp\temp.nxc"
30	633	73		add __virar_7qG2_aux_7qG2_000, __virar_7qG2_aux_7qG2_000, __DF0virar
30	632	77	#line 632 "C:\Users\luan\AppData\Local\Temp\temp.nxc"
30	634	77	#line 634 "C:\Users\luan\AppData\Local\Temp\temp.nxc"
30	635	77		jmp __ASM_Label_847
30	634	79	#line 634 "C:\Users\luan\AppData\Local\Temp\temp.nxc"
30	636	79	#line 636 "C:\Users\luan\AppData\Local\Temp\temp.nxc"
30	637	79		subcall MandaQueJaDeuPorHoje, __MandaQueJaDeuPorHoje_return
30	636	81	#line 636 "C:\Users\luan\AppData\Local\Temp\temp.nxc"
30	638	81	#line 638 "C:\Users\luan\AppData\Local\Temp\temp.nxc"
30	639	81		subret __virar_return
31	644	0	#line 644 "C:\Users\luan\AppData\Local\Temp\temp.nxc"
31	645	0	#pragma macro 9
31	645	0		acquire __MRMutex
31	645	1		mov __MRArgs.QueueID, __constVal3
31	645	4		mov __MRArgs.Remove, __constVal1
31	645	7		set __RRNTmpVal, 0
31	645	10		syscall 27, __MRArgs
31	645	13		unflatten __RRNTmpVal, __RRNErr, __MRArgs.Message, __RRNTmpVal
31	645	18		mov __lerAngulo_7qG2_leitura_7qG2_000, __RRNTmpVal
31	645	20		mov __D0lerAngulo, __MRArgs.Result
31	645	23		release __MRMutex
31	7889	24	#line 7889 "C:\Users\luan\AppData\Local\Temp\temp.nxc"
31	644	24	#line 644 "C:\Users\luan\AppData\Local\Temp\temp.nxc"
31	644	24	#line 644 "C:\Users\luan\AppData\Local\Temp\temp.nxc"
31	645	24	#line 645 "C:\Users\luan\AppData\Local\Temp\temp.nxc"
31	646	24		mov __D0lerAngulo, __lerAngulo_7qG2_leitura_7qG2_000
31	645	26	#line 645 "C:\Users\luan\AppData\Local\Temp\temp.nxc"
31	646	26		not __D0lerAngulo, __D0lerAngulo
31	647	29	#line 647 "C:\Users\luan\AppData\Local\Temp\temp.nxc"
31	648	29		tst 5, __D0lerAngulo, __D0lerAngulo
31	647	32	#line 647 "C:\Users\luan\AppData\Local\Temp\temp.nxc"
31	648	32		brtst 4, __ASM_Label_870, __D0lerAngulo
31	647	35	#line 647 "C:\Users\luan\AppData\Local\Temp\temp.nxc"
31	648	35		jmp __ASM_Label_869
31	647	37	#line 647 "C:\Users\luan\AppData\Local\Temp\temp.nxc"
31	647	37	#line 647 "C:\Users\luan\AppData\Local\Temp\temp.nxc"
31	649	37	#line 649 "C:\Users\luan\AppData\Local\Temp\temp.nxc"
31	650	37		mov __D0lerAngulo, __lerAngulo_7qG2_leitura_7qG2_000
31	649	39	#line 649 "C:\Users\luan\AppData\Local\Temp\temp.nxc"
31	650	39		subret __lerAngulo_return
31	649	41	#line 649 "C:\Users\luan\AppData\Local\Temp\temp.nxc"
31	651	41	#line 651 "C:\Users\luan\AppData\Local\Temp\temp.nxc"
31	652	41		subret __lerAngulo_return
32	652	0	#line 652 "C:\Users\luan\AppData\Local\Temp\temp.nxc"
32	653	0		set __D0GetGyroOffset, 0
32	652	3	#line 652 "C:\Users\luan\AppData\Local\Temp\temp.nxc"
32	653	3		mov __GetGyroOffset_7qG2_gyro_sum_7qG2_000, __D0GetGyroOffset
32	654	5	#line 654 "C:\Users\luan\AppData\Local\Temp\temp.nxc"
32	655	5		set __D0GetGyroOffset, 0
32	654	8	#line 654 "C:\Users\luan\AppData\Local\Temp\temp.nxc"
32	655	8		mov __GetGyroOffset_7qG2_i_7qG2_000, __D0GetGyroOffset
32	654	10	#line 654 "C:\Users\luan\AppData\Local\Temp\temp.nxc"
32	655	10		mov __float_stack_001GetGyroOffset, __GetGyroOffset_7qG2_i_7qG2_000
32	654	12	#line 654 "C:\Users\luan\AppData\Local\Temp\temp.nxc"
32	654	12	#line 654 "C:\Users\luan\AppData\Local\Temp\temp.nxc"
32	655	12		mov __DF0GetGyroOffset, __constVal2048
32	654	14	#line 654 "C:\Users\luan\AppData\Local\Temp\temp.nxc"
32	655	14		cmp 0, __D0GetGyroOffset, __float_stack_001GetGyroOffset, __DF0GetGyroOffset
32	654	18	#line 654 "C:\Users\luan\AppData\Local\Temp\temp.nxc"
32	655	18		brtst 4, __ASM_Label_878, __D0GetGyroOffset
32	654	21	#line 654 "C:\Users\luan\AppData\Local\Temp\temp.nxc"
32	655	21		jmp __ASM_Label_879
32	654	23	#line 654 "C:\Users\luan\AppData\Local\Temp\temp.nxc"
32	655	23		add __GetGyroOffset_7qG2_i_7qG2_000, __GetGyroOffset_7qG2_i_7qG2_000, __constVal1
32	656	27	#line 656 "C:\Users\luan\AppData\Local\Temp\temp.nxc"
32	657	27		jmp __ASM_Label_877
32	656	29	#line 656 "C:\Users\luan\AppData\Local\Temp\temp.nxc"
32	657	29		set __SensorHTGyro_7qG2_port_7qG2_000_inline_GetGyroOffset, 3
32	656	32	#line 656 "C:\Users\luan\AppData\Local\Temp\temp.nxc"
32	657	32	#line 657 "C:\Users\luan\AppData\Local\Temp\temp.nxc"
32	658	32		mov __SensorHTGyro_7qG2_offset_7qG2_000_inline_GetGyroOffset, __constVal0
32	13720	34	#line 13720 "NXCDefs.h"
32	13721	34		getin __D0SensorHTGyro_inline_GetGyroOffset, __SensorHTGyro_7qG2_port_7qG2_000_inline_GetGyroOffset, 2
32	13722	38		sub __D0SensorHTGyro_inline_GetGyroOffset, __D0SensorHTGyro_inline_GetGyroOffset, __constVal600
32	13723	42		sub __D0GetGyroOffset, __D0SensorHTGyro_inline_GetGyroOffset, __SensorHTGyro_7qG2_offset_7qG2_000_inline_GetGyroOffset
32	13724	46	#line 13724 "NXCDefs.h"
32	657	46	#line 657 "C:\Users\luan\AppData\Local\Temp\temp.nxc"
32	657	46	#line 657 "C:\Users\luan\AppData\Local\Temp\temp.nxc"
32	658	46		add __GetGyroOffset_7qG2_gyro_sum_7qG2_000, __GetGyroOffset_7qG2_gyro_sum_7qG2_000, __D0GetGyroOffset
32	657	50	#line 657 "C:\Users\luan\AppData\Local\Temp\temp.nxc"
32	659	50	#line 659 "C:\Users\luan\AppData\Local\Temp\temp.nxc"
32	660	50		jmp __ASM_Label_880
32	659	52	#line 659 "C:\Users\luan\AppData\Local\Temp\temp.nxc"
32	659	52	#line 659 "C:\Users\luan\AppData\Local\Temp\temp.nxc"
32	660	52		mov __float_stack_001GetGyroOffset, __GetGyroOffset_7qG2_gyro_sum_7qG2_000
32	659	54	#line 659 "C:\Users\luan\AppData\Local\Temp\temp.nxc"
32	660	54	#line 660 "C:\Users\luan\AppData\Local\Temp\temp.nxc"
32	661	54		mov __DF0GetGyroOffset, __constVal2048
32	660	56	#line 660 "C:\Users\luan\AppData\Local\Temp\temp.nxc"
32	661	56		div __DF0GetGyroOffset, __float_stack_001GetGyroOffset, __DF0GetGyroOffset
32	660	60	#line 660 "C:\Users\luan\AppData\Local\Temp\temp.nxc"
32	661	60		subret __GetGyroOffset_return
32	660	62	#line 660 "C:\Users\luan\AppData\Local\Temp\temp.nxc"
32	662	62	#line 662 "C:\Users\luan\AppData\Local\Temp\temp.nxc"
32	663	62		subret __GetGyroOffset_return
33	664	0	#line 664 "C:\Users\luan\AppData\Local\Temp\temp.nxc"
33	665	0	#pragma macro 14
33	665	0		acquire __RemoteMutex
33	665	1		mov __SRSTmpBuf, __DCMessageWritePacket
33	665	3		replace __SRSTmpBuf, __SRSTmpBuf, __constVal2, __constVal1
33	665	8		replace __SRSTmpBuf, __SRSTmpBuf, __constVal3, __constVal5
33	665	13		mov __SRSTmpLongVal, __constVal13
33	665	15		flatten __SRSFlattenBuf, __SRSTmpLongVal
33	665	18		arrbuild __SRSSendBuf, __SRSTmpBuf, __SRSFlattenBuf
33	665	23		acquire __CBTWMutex
33	665	24		mov __CBTWArgs.Connection, __constVal0
33	665	27		mov __CBTWArgs.Buffer, __SRSSendBuf
33	665	29		syscall 29, __CBTWArgs
33	665	32		release __CBTWMutex
33	665	33		release __RemoteMutex
33	8009	34	#line 8009 "C:\Users\luan\AppData\Local\Temp\temp.nxc"
33	664	34	#line 664 "C:\Users\luan\AppData\Local\Temp\temp.nxc"
33	664	34	#line 664 "C:\Users\luan\AppData\Local\Temp\temp.nxc"
33	667	34	#line 667 "C:\Users\luan\AppData\Local\Temp\temp.nxc"
33	668	34		subret __MandaGirar_return
34	669	0	#line 669 "C:\Users\luan\AppData\Local\Temp\temp.nxc"
34	670	0	#pragma macro 14
34	670	0		acquire __RemoteMutex
34	670	1		mov __SRSTmpBuf, __DCMessageWritePacket
34	670	3		replace __SRSTmpBuf, __SRSTmpBuf, __constVal2, __constVal1
34	670	8		replace __SRSTmpBuf, __SRSTmpBuf, __constVal3, __constVal5
34	670	13		mov __SRSTmpLongVal, __constVal14
34	670	15		flatten __SRSFlattenBuf, __SRSTmpLongVal
34	670	18		arrbuild __SRSSendBuf, __SRSTmpBuf, __SRSFlattenBuf
34	670	23		acquire __CBTWMutex
34	670	24		mov __CBTWArgs.Connection, __constVal0
34	670	27		mov __CBTWArgs.Buffer, __SRSSendBuf
34	670	29		syscall 29, __CBTWArgs
34	670	32		release __CBTWMutex
34	670	33		release __RemoteMutex
34	8018	34	#line 8018 "C:\Users\luan\AppData\Local\Temp\temp.nxc"
34	669	34	#line 669 "C:\Users\luan\AppData\Local\Temp\temp.nxc"
34	669	34	#line 669 "C:\Users\luan\AppData\Local\Temp\temp.nxc"
34	672	34	#line 672 "C:\Users\luan\AppData\Local\Temp\temp.nxc"
34	673	34		subret __MandaQueJaDeuPorHoje_return
35	676	0	#line 676 "C:\Users\luan\AppData\Local\Temp\temp.nxc"
35	677	0		set __filterUS_7qG2_i_7qG2_000, 0
35	676	3	#line 676 "C:\Users\luan\AppData\Local\Temp\temp.nxc"
35	676	3	#line 676 "C:\Users\luan\AppData\Local\Temp\temp.nxc"
35	677	3	#pragma macro 26
35	677	3		acquire __RLSBmutex0
35	677	4		acquire __RLSBmutex1
35	677	5		acquire __RLSBmutex2
35	677	6		acquire __RLSBmutex3
35	677	7		mov __RLSReadPort, __filterUS_7qG2_SENSOR_7qG2_000
35	677	9		mov __RLSReadBufVar, __RLSBbufLSWrite1
35	677	11		set __RLSBytesCountVar, 1
35	677	14		wait2 NA, __constVal15
35	677	17		subcall __ReadLSBytesVar, ____ReadLSBytesVar_return
35	677	20		index __D0filterUS, __RLSReadBufVar, 65535
35	677	24		release __RLSBmutex0
35	677	25		release __RLSBmutex1
35	677	26		release __RLSBmutex2
35	677	27		release __RLSBmutex3
35	8039	28	#line 8039 "C:\Users\luan\AppData\Local\Temp\temp.nxc"
35	676	28	#line 676 "C:\Users\luan\AppData\Local\Temp\temp.nxc"
35	677	28		mov __filterUS_7qG2_leitura_7qG2_000, __D0filterUS
35	676	30	#line 676 "C:\Users\luan\AppData\Local\Temp\temp.nxc"
35	676	30	#line 676 "C:\Users\luan\AppData\Local\Temp\temp.nxc"
35	678	30	#line 678 "C:\Users\luan\AppData\Local\Temp\temp.nxc"
35	679	30		mov __signed_stack_001filterUS, __filterUS_7qG2_leitura_7qG2_000
35	678	32	#line 678 "C:\Users\luan\AppData\Local\Temp\temp.nxc"
35	678	32	#line 678 "C:\Users\luan\AppData\Local\Temp\temp.nxc"
35	679	32		set __D0filterUS, 0
35	678	35	#line 678 "C:\Users\luan\AppData\Local\Temp\temp.nxc"
35	679	35		cmp 4, __D0filterUS, __signed_stack_001filterUS, __D0filterUS
35	678	39	#line 678 "C:\Users\luan\AppData\Local\Temp\temp.nxc"
35	679	39		brtst 5, __ASM_Label_897, __D0filterUS
35	678	42	#line 678 "C:\Users\luan\AppData\Local\Temp\temp.nxc"
35	679	42		mov __signed_stack_001filterUS, __filterUS_7qG2_leitura_7qG2_000
35	678	44	#line 678 "C:\Users\luan\AppData\Local\Temp\temp.nxc"
35	678	44	#line 678 "C:\Users\luan\AppData\Local\Temp\temp.nxc"
35	679	44		set __D0filterUS, 250
35	678	47	#line 678 "C:\Users\luan\AppData\Local\Temp\temp.nxc"
35	679	47		cmp 3, __D0filterUS, __signed_stack_001filterUS, __D0filterUS
35	678	51	#line 678 "C:\Users\luan\AppData\Local\Temp\temp.nxc"
35	679	51		brtst 5, __ASM_Label_897, __D0filterUS
35	678	54	#line 678 "C:\Users\luan\AppData\Local\Temp\temp.nxc"
35	679	54		mov __signed_stack_001filterUS, distUS
35	678	56	#line 678 "C:\Users\luan\AppData\Local\Temp\temp.nxc"
35	678	56	#line 678 "C:\Users\luan\AppData\Local\Temp\temp.nxc"
35	679	56		mov __D0filterUS, __filterUS_7qG2_leitura_7qG2_000
35	678	58	#line 678 "C:\Users\luan\AppData\Local\Temp\temp.nxc"
35	679	58		sub __D0filterUS, __signed_stack_001filterUS, __D0filterUS
35	678	62	#line 678 "C:\Users\luan\AppData\Local\Temp\temp.nxc"
35	679	62		abs __signed_stack_001filterUS, __D0filterUS
35	678	65	#line 678 "C:\Users\luan\AppData\Local\Temp\temp.nxc"
35	678	65	#line 678 "C:\Users\luan\AppData\Local\Temp\temp.nxc"
35	679	65		set __D0filterUS, 15
35	678	68	#line 678 "C:\Users\luan\AppData\Local\Temp\temp.nxc"
35	679	68		cmp 1, __D0filterUS, __signed_stack_001filterUS, __D0filterUS
35	678	72	#line 678 "C:\Users\luan\AppData\Local\Temp\temp.nxc"
35	679	72		brtst 4, __ASM_Label_900, __D0filterUS
35	678	75	#line 678 "C:\Users\luan\AppData\Local\Temp\temp.nxc"
35	679	75		mov __signed_stack_001filterUS, __filterUS_7qG2_i_7qG2_000
35	678	77	#line 678 "C:\Users\luan\AppData\Local\Temp\temp.nxc"
35	678	77	#line 678 "C:\Users\luan\AppData\Local\Temp\temp.nxc"
35	679	77		set __D0filterUS, 5
35	678	80	#line 678 "C:\Users\luan\AppData\Local\Temp\temp.nxc"
35	679	80		cmp 0, __D0filterUS, __signed_stack_001filterUS, __D0filterUS
35	679	84	#line 679 "C:\Users\luan\AppData\Local\Temp\temp.nxc"
35	680	84		brtst 4, __ASM_Label_896, __D0filterUS
35	679	87	#line 679 "C:\Users\luan\AppData\Local\Temp\temp.nxc"
35	680	87	#pragma macro 26
35	680	87		acquire __RLSBmutex0
35	680	88		acquire __RLSBmutex1
35	680	89		acquire __RLSBmutex2
35	680	90		acquire __RLSBmutex3
35	680	91		mov __RLSReadPort, __filterUS_7qG2_SENSOR_7qG2_000
35	680	93		mov __RLSReadBufVar, __RLSBbufLSWrite1
35	680	95		set __RLSBytesCountVar, 1
35	680	98		wait2 NA, __constVal15
35	680	101		subcall __ReadLSBytesVar, ____ReadLSBytesVar_return
35	680	104		index __D0filterUS, __RLSReadBufVar, 65535
35	680	108		release __RLSBmutex0
35	680	109		release __RLSBmutex1
35	680	110		release __RLSBmutex2
35	680	111		release __RLSBmutex3
35	8112	112	#line 8112 "C:\Users\luan\AppData\Local\Temp\temp.nxc"
35	679	112	#line 679 "C:\Users\luan\AppData\Local\Temp\temp.nxc"
35	680	112		mov __filterUS_7qG2_leitura_7qG2_000, __D0filterUS
35	679	114	#line 679 "C:\Users\luan\AppData\Local\Temp\temp.nxc"
35	679	114	#line 679 "C:\Users\luan\AppData\Local\Temp\temp.nxc"
35	681	114	#line 681 "C:\Users\luan\AppData\Local\Temp\temp.nxc"
35	682	114		add __filterUS_7qG2_i_7qG2_000, __filterUS_7qG2_i_7qG2_000, __constVal1
35	681	118	#line 681 "C:\Users\luan\AppData\Local\Temp\temp.nxc"
35	681	118	#line 681 "C:\Users\luan\AppData\Local\Temp\temp.nxc"
35	682	118		set __Wait_7qG2_ms_7qG2_000_inline_filterUS, 30
35	681	121	#line 681 "C:\Users\luan\AppData\Local\Temp\temp.nxc"
35	8551	121	#line 8551 "NXCDefs.h"
35	8552	121		wait2 NA, __Wait_7qG2_ms_7qG2_000_inline_filterUS
35	8551	124	#line 8551 "NXCDefs.h"
35	682	124	#line 682 "C:\Users\luan\AppData\Local\Temp\temp.nxc"
35	683	124	#line 683 "C:\Users\luan\AppData\Local\Temp\temp.nxc"
35	684	124		jmp __ASM_Label_895
35	683	126	#line 683 "C:\Users\luan\AppData\Local\Temp\temp.nxc"
35	683	126	#line 683 "C:\Users\luan\AppData\Local\Temp\temp.nxc"
35	684	126		set __signed_stack_001filterUS, 6
35	683	129	#line 683 "C:\Users\luan\AppData\Local\Temp\temp.nxc"
35	683	129	#line 683 "C:\Users\luan\AppData\Local\Temp\temp.nxc"
35	684	129		mov __D0filterUS, distUS
35	683	131	#line 683 "C:\Users\luan\AppData\Local\Temp\temp.nxc"
35	684	131		mul __signed_stack_001filterUS, __signed_stack_001filterUS, __D0filterUS
35	683	135	#line 683 "C:\Users\luan\AppData\Local\Temp\temp.nxc"
35	683	135	#line 683 "C:\Users\luan\AppData\Local\Temp\temp.nxc"
35	684	135		set __D0filterUS, 10
35	683	138	#line 683 "C:\Users\luan\AppData\Local\Temp\temp.nxc"
35	684	138		div __signed_stack_001filterUS, __signed_stack_001filterUS, __D0filterUS
35	683	142	#line 683 "C:\Users\luan\AppData\Local\Temp\temp.nxc"
35	683	142	#line 683 "C:\Users\luan\AppData\Local\Temp\temp.nxc"
35	684	142		set __signed_stack_002filterUS, 4
35	683	145	#line 683 "C:\Users\luan\AppData\Local\Temp\temp.nxc"
35	683	145	#line 683 "C:\Users\luan\AppData\Local\Temp\temp.nxc"
35	684	145		mov __D0filterUS, __filterUS_7qG2_leitura_7qG2_000
35	683	147	#line 683 "C:\Users\luan\AppData\Local\Temp\temp.nxc"
35	684	147		mul __signed_stack_002filterUS, __signed_stack_002filterUS, __D0filterUS
35	683	151	#line 683 "C:\Users\luan\AppData\Local\Temp\temp.nxc"
35	683	151	#line 683 "C:\Users\luan\AppData\Local\Temp\temp.nxc"
35	684	151		set __D0filterUS, 10
35	683	154	#line 683 "C:\Users\luan\AppData\Local\Temp\temp.nxc"
35	684	154		div __D0filterUS, __signed_stack_002filterUS, __D0filterUS
35	684	158	#line 684 "C:\Users\luan\AppData\Local\Temp\temp.nxc"
35	685	158		add distUS, __signed_stack_001filterUS, __D0filterUS
35	684	162	#line 684 "C:\Users\luan\AppData\Local\Temp\temp.nxc"
35	684	162	#line 684 "C:\Users\luan\AppData\Local\Temp\temp.nxc"
35	686	162	#line 686 "C:\Users\luan\AppData\Local\Temp\temp.nxc"
35	687	162		subret __filterUS_return
36	687	0	#line 687 "C:\Users\luan\AppData\Local\Temp\temp.nxc"
36	688	0		subret ____initialize_global_data_return
#CLUMPS
Clump	Name	Offset	File
0	main	0	C:\Users\luan\AppData\Local\Temp\temp.nxc
1	__ResetSensorSubroutine	9	NXTDefs.h
2	__ReadLSBytes2	22	NXTDefs.h
3	__ReadLSBytesVar	108	NXTDefs.h
4	__MSWriteBytesSub	210	NXTDefs.h
5	PlaySound	246	NXCDefs.h
6	bip	686	C:\Users\luan\AppData\Local\Temp\temp.nxc
7	nbip	694	C:\Users\luan\AppData\Local\Temp\temp.nxc
8	consultor	723	C:\Users\luan\AppData\Local\Temp\temp.nxc
9	init	902	C:\Users\luan\AppData\Local\Temp\temp.nxc
10	InicializaSensores	919	C:\Users\luan\AppData\Local\Temp\temp.nxc
11	BonecoAlvo	1053	C:\Users\luan\AppData\Local\Temp\temp.nxc
12	TemBoneco	1095	C:\Users\luan\AppData\Local\Temp\temp.nxc
13	RecebeBoneco	1190	C:\Users\luan\AppData\Local\Temp\temp.nxc
14	PegaBoneco	1281	C:\Users\luan\AppData\Local\Temp\temp.nxc
15	VoltaGarra	1413	C:\Users\luan\AppData\Local\Temp\temp.nxc
16	CorBoneco	1503	C:\Users\luan\AppData\Local\Temp\temp.nxc
17	Pega	1609	C:\Users\luan\AppData\Local\Temp\temp.nxc
18	MandarParar	1707	C:\Users\luan\AppData\Local\Temp\temp.nxc
19	MandarSeguir	1743	C:\Users\luan\AppData\Local\Temp\temp.nxc
20	BipBranco	1779	C:\Users\luan\AppData\Local\Temp\temp.nxc
21	BipPreto	1793	C:\Users\luan\AppData\Local\Temp\temp.nxc
22	BonecoNaFrente	1807	C:\Users\luan\AppData\Local\Temp\temp.nxc
23	Rejeita	2024	C:\Users\luan\AppData\Local\Temp\temp.nxc
24	MandaRejeitar	2160	C:\Users\luan\AppData\Local\Temp\temp.nxc
25	MandaDesgirar	2196	C:\Users\luan\AppData\Local\Temp\temp.nxc
26	MandaCheio	2232	C:\Users\luan\AppData\Local\Temp\temp.nxc
27	LevantaBoneco	2268	C:\Users\luan\AppData\Local\Temp\temp.nxc
28	CalibraFaixaBase	2333	C:\Users\luan\AppData\Local\Temp\temp.nxc
29	MandaPeguei	2335	C:\Users\luan\AppData\Local\Temp\temp.nxc
30	virar	2371	C:\Users\luan\AppData\Local\Temp\temp.nxc
31	lerAngulo	2454	C:\Users\luan\AppData\Local\Temp\temp.nxc
32	GetGyroOffset	2497	C:\Users\luan\AppData\Local\Temp\temp.nxc
33	MandaGirar	2561	C:\Users\luan\AppData\Local\Temp\temp.nxc
34	MandaQueJaDeuPorHoje	2597	C:\Users\luan\AppData\Local\Temp\temp.nxc
35	filterUS	2633	C:\Users\luan\AppData\Local\Temp\temp.nxc
36	__initialize_global_data	2797	C:\Users\luan\AppData\Local\Temp\temp.nxc
