#SYMBOLS
Index	Identifier	Type	Flag	Data	Size	RefCount
0	__D0RecebiDesGirei	6	1	0	4	9
1	__D0RecebiGirei	6	1	4	4	9
2	__D0RecebeBoneco	6	1	8	4	2
3	__D0PegaBoneco	6	1	12	4	17
4	__D0PlaySound	6	1	16	4	69
5	__D0Rejeita	6	1	20	4	8
6	__DU0SetSensorLowspeed_inline_InicializaSensores	5	1	24	4	5
7	__signed_stack_001BonecoAlvo	6	1	28	4	4
8	__D0SetSensorLowspeed_inline_InicializaSensores	6	1	32	4	2
9	__D0TemBoneco	6	1	36	4	27
10	__D0VoltaGarra	6	1	40	4	10
11	__D0CalibraFaixaBase	6	1	44	4	12
12	__D0consultor	6	1	48	4	13
13	__D0BonecoNaFrente	6	1	52	4	27
14	__SPTArgsMutex	9	0	56	4	14
15	__D0BonecoAlvo	6	1	60	4	8
16	__D0CorBoneco	6	1	64	4	28
17	__D0nbip	6	1	68	4	4
18	__D0Pega	6	1	72	4	10
19	__D0MandaUs	6	1	76	4	3
20	__D0lerSensor	6	1	80	4	36
21	__D0LevantaBoneco	6	1	84	4	6
22	__signed_stack_001RecebiDesGirei	6	1	88	4	2
23	__signed_stack_001RecebiGirei	6	1	92	4	2
24	__signed_stack_003PlaySound	6	1	96	4	14
25	__signed_stack_001PlaySound	6	1	100	4	44
26	__signed_stack_002PlaySound	6	1	104	4	14
27	__signed_stack_001TemBoneco	6	1	108	4	12
28	__Wait_7qG2_ms_7qG2_000_inline_Pega	5	1	112	4	2
29	__Wait_7qG2_ms_7qG2_000_inline_BonecoNaFrente	5	1	116	4	4
30	__Wait_7qG2_ms_7qG2_000_inline_VoltaGarra	5	1	120	4	2
31	__signed_stack_001VoltaGarra	6	1	124	4	4
32	__Wait_7qG2_ms_7qG2_000_inline_PegaBoneco	5	1	128	4	2
33	__signed_stack_001consultor	6	1	132	4	2
34	__signed_stack_001CorBoneco	6	1	136	4	12
35	__signed_stack_001CalibraFaixaBase	6	1	140	4	12
36	__signed_stack_001BonecoNaFrente	6	1	144	4	10
37	__signed_stack_002BonecoNaFrente	6	1	148	4	2
38	__signed_stack_001lerSensor	6	1	152	4	18
39	__signed_stack_001Pega	6	1	156	4	4
40	__signed_stack_001PegaBoneco	6	1	160	4	4
41	__signed_stack_001nbip	6	1	164	4	2
42	__signed_stack_002lerSensor	6	1	168	4	6
43	__signed_stack_001LevantaBoneco	6	1	172	4	2
44	__RRNTmpVal	6	1	176	4	12
45	__MRMutex	9	0	180	4	6
46	__CBTWMutex	9	0	184	4	14
47	__RemoteMutex	9	0	188	4	14
48	__SRSTmpLongVal	6	1	192	4	14
49	__CLSWMutex3	9	0	196	4	2
50	__CLSCSMutex3	9	0	200	4	2
51	__CLSRMutex3	9	0	204	4	2
52	__RLSBmutex3	9	0	208	4	2
53	__TextOutMutex	9	0	212	4	2
54	__lerSensor_7qG2_sensor_7qG2_000	4	1	216	2	8
55	__constValNeg153	4	0	218	2	1
56	BonecosCapturados	4	1	220	2	5
57	bonecoAlvo	4	1	222	2	4
58	bonecoNaoAlvo	4	1	224	2	3
59	__CalibraFaixaBase_7qG2_rgb_meio_7qG2_000	4	1	226	2	3
60	__CalibraFaixaBase_7qG2_rgb_esq_7qG2_000	4	1	228	2	3
61	__lerSensor_7qG2_aux_7qG2_000	4	1	230	2	4
62	__VoltaGarra_7qG2_old_tc_7qG2_000	4	1	232	2	2
63	__VoltaGarra_7qG2_tc_7qG2_000	4	1	234	2	4
64	__CalibraFaixaBase_7qG2_rgb_dir_7qG2_000	4	1	236	2	3
65	__PegaBoneco_7qG2_old_tc_7qG2_000	4	1	238	2	2
66	CorBaseDirMin	4	1	240	2	2
67	CorBaseDirMax	4	1	242	2	2
68	CorBaseEsqMax	4	1	244	2	2
69	CorBaseMeioMin	4	1	246	2	2
70	CorBaseEsqMin	4	1	248	2	2
71	__constVal500	4	0	250	2	1
72	__PlaySound_7qG2_aCode_7qG2_000	4	1	252	2	11
73	__PegaBoneco_7qG2_tc_7qG2_000	4	1	254	2	5
74	CorBaseMeioMax	4	1	256	2	2
75	__PlaySound_7qG2_i_7qG2_001	4	1	258	2	15
76	__constVal150	4	0	260	2	1
77	__constVal128	4	0	262	2	3
78	__TemBoneco_7qG2_rgb_dir_7qG2_000	4	1	264	2	3
79	__BonecoNaFrente_7qG2_cor_7qG2_000	4	1	266	2	5
80	__TemBoneco_7qG2_rgb_meio_7qG2_000	4	1	268	2	3
81	__TemBoneco_7qG2_rgb_esq_7qG2_000	4	1	270	2	3
82	__RecebiGirei_7qG2_aux_7qG2_000	4	1	272	2	2
83	__RecebiDesGirei_7qG2_aux_7qG2_000	4	1	274	2	2
84	__MandaUs_7qG2_aux_7qG2_000	4	1	276	2	2
85	__consultor_7qG2_mensagem_7qG2_000	4	1	278	2	2
86	__lerSensor_7qG2_k_7qG2_000	4	1	280	2	6
87	__nbip_7qG2_i_7qG2_000	4	1	282	2	4
88	__nbip_7qG2_n_7qG2_000	4	1	284	2	4
89	__CorBoneco_7qG2_leitura_7qG2_000	4	1	286	2	7
90	__lerSensor_7qG2_i_7qG2_000	4	1	288	2	8
91	__constVal200	4	0	290	2	3
92	__lerSensor_7qG2_j_7qG2_000	4	1	292	2	8
93	__SetSensorType_7qG2_port_7qG2_000_inline_SetSensorLowspeed_inline_InicializaSensores	1	1	294	1	2
94	__SetSensorType_7qG2_type_7qG2_000_inline_SetSensorLowspeed_inline_InicializaSensores	1	1	295	1	2
95	__SetSensorMode_7qG2_port_7qG2_000_inline_SetSensorLowspeed_inline_InicializaSensores	1	1	296	1	2
96	__SetSensorMode_7qG2_mode_7qG2_000_inline_SetSensorLowspeed_inline_InicializaSensores	1	1	297	1	2
97	__BipBranco_return	1	1	298	1	3
98	__lerSensor_return	1	1	299	1	10
99	__RecebeBoneco_return	1	1	300	1	4
100	__BipPreto_return	1	1	301	1	3
101	__LevantaBoneco_return	1	1	302	1	4
102	__MandaCheio_return	1	1	303	1	3
103	__constValNeg50	2	0	304	1	1
104	__MandarParar_return	1	1	305	1	3
105	__MandarSeguir_return	1	1	306	1	5
106	__Rejeita_return	1	1	307	1	4
107	__RecebiDesGirei_return	1	1	308	1	5
108	__MandaDesgirar_return	1	1	309	1	3
109	__RecebiGirei_return	1	1	310	1	5
110	__constVal32	2	0	311	1	27
111	__MandaRejeitar_return	1	1	312	1	3
112	__constVal1	2	0	313	1	23
113	__constVal63	2	0	314	1	9
114	__constVal50	2	0	315	1	1
115	__constVal96	2	0	316	1	9
116	__PegaBoneco_return	1	1	317	1	5
117	__constValNeg30	2	0	318	1	2
118	__constVal0	2	1	319	1	55
119	__constValNeg110	2	0	320	1	1
120	__MandaPeguei_return	1	1	321	1	3
121	__constValNeg70	2	0	322	1	2
122	__CorBoneco_return	1	1	323	1	6
123	__Pega_return	1	1	324	1	3
124	__SetSensorLowspeed_7qG2_bIsPowered_7qG2_000_inline_InicializaSensores	1	1	325	1	2
125	__constVal14	2	0	326	1	2
126	__constVal11	2	0	327	1	1
127	__LSWriteOptions3	1	1	328	1	1
128	__constVal9	2	0	329	1	1
129	____ResetSensorSubroutine_return	1	1	330	1	6
130	__constVal5	2	0	331	1	8
131	__constVal4	2	0	332	1	1
132	__ResetSensorTmp	1	1	333	1	2
133	__ResetSensorPort	1	1	334	1	6
134	__RLSBytesCount3	1	1	335	1	7
135	__RLSBResult3	2	1	336	1	7
136	__RRNErr	1	1	337	1	3
137	__RLSBIterations3	1	1	338	1	4
138	__constVal100	2	0	339	1	2
139	__PFTmp	1	1	340	1	1
140	__constVal8	2	0	341	1	2
141	____ReadLSBytes3_return	1	1	342	1	3
142	__constVal2	2	0	343	1	11
143	__TemBoneco_return	1	1	344	1	5
144	__BonecoNaFrente_return	1	1	345	1	3
145	__SetSensorLowspeed_7qG2_port_7qG2_000_inline_InicializaSensores	1	1	346	1	4
146	__CalibraFaixaBase_return	1	1	347	1	4
147	__InicializaSensores_return	1	1	348	1	3
148	__SetSensorColorRed_7qG2_port_7qG2_000_inline_InicializaSensores	1	1	349	1	8
149	__SetSensorColorGreen_7qG2_port_7qG2_000_inline_InicializaSensores	1	1	350	1	4
150	__VoltaGarra_return	1	1	351	1	8
151	__BonecoAlvo_return	1	1	352	1	3
152	__constVal15	2	0	353	1	4
153	__bip_return	1	1	354	1	5
154	__constVal3	2	0	355	1	18
155	__PlaySound_return	1	1	356	1	7
156	__nbip_return	1	1	357	1	5
157	__init_return	1	1	358	1	3
158	__MandaUs_return	1	1	359	1	4
159	____initialize_global_data_return	1	1	360	1	3
160	__consultor_return	1	1	361	1	3
161	__CBTWArgs	8	0	3	8	22
162	__CBTWArgs.Result	2	1	364	1	22
163	__CBTWArgs.Connection	1	1	365	1	22
164	__CBTWArgs.Buffer	7	0	366	4	22
165	__CBTWArgs.Buffer.Buffer_type	1	0	0	1	0
166	__SPTArgs	8	0	5	8	42
167	__SPTArgs.Result	2	1	368	1	42
168	__SPTArgs.Frequency	3	1	370	2	42
169	__SPTArgs.Duration	3	1	372	2	42
170	__SPTArgs.Loop	1	1	374	1	42
171	__SPTArgs.Volume	1	1	375	1	42
172	__CLSRArgs3	8	0	4	12	5
173	__CLSRArgs3.Result	2	1	376	1	5
174	__CLSRArgs3.Port	1	1	377	1	5
175	__CLSRArgs3.Buffer	7	0	378	4	5
176	__CLSRArgs3.Buffer.Buffer_type	1	0	0	1	0
177	__CLSRArgs3.BufferLen	1	1	380	1	5
178	__TextOutArgs	8	0	4	16	6
179	__TextOutArgs.Result	2	1	384	1	6
180	__TextOutArgs.Location	8	0	2	4	6
181	__TextOutArgs.Location.X	4	1	388	2	6
182	__TextOutArgs.Location.Y	4	1	390	2	6
183	__TextOutArgs.Text	7	0	392	4	6
184	__TextOutArgs.Text.Text_type	1	0	0	1	0
185	__TextOutArgs.Options	5	1	396	4	6
186	__PointOutArgs	8	0	3	12	4
187	__PointOutArgs.Result	2	1	400	1	4
188	__PointOutArgs.Location	8	0	2	4	4
189	__PointOutArgs.Location.X	4	1	404	2	4
190	__PointOutArgs.Location.Y	4	1	406	2	4
191	__PointOutArgs.Options	5	1	408	4	4
192	__CLSWArgs3	8	0	4	12	5
193	__CLSWArgs3.Result	2	1	412	1	5
194	__CLSWArgs3.Port	1	1	413	1	5
195	__CLSWArgs3.Buffer	7	0	414	4	5
196	__CLSWArgs3.Buffer.Buffer_type	1	0	0	1	0
197	__CLSWArgs3.ReturnLen	1	1	416	1	5
198	__MRArgs	8	0	4	8	15
199	__MRArgs.Result	2	1	420	1	15
200	__MRArgs.QueueID	1	1	421	1	15
201	__MRArgs.Remove	1	1	422	1	15
202	__MRArgs.Message	7	0	424	4	15
203	__MRArgs.Message.Message_type	1	0	0	1	0
204	__CLSCSArgs3	8	0	3	4	4
205	__CLSCSArgs3.Result	2	1	428	1	4
206	__CLSCSArgs3.Port	1	1	429	1	4
207	__CLSCSArgs3.BytesReady	1	1	430	1	4
208	__lerSensor_7qG2_leitura_7qG2_000	7	0	432	4	10
209	__lerSensor_7qG2_leitura_7qG2_000.__lerSensor_7qG2_leitura_7qG2_000_type	4	0	0	2	0
210	__RLSBbufLSWrite1	7	0	434	4	1
211	__RLSBbufLSWrite1.__RLSBbufLSWrite1_type	1	0	0	1	0
212	__SRSSendBuf	7	0	436	4	14
213	__SRSSendBuf.__SRSSendBuf_type	1	0	0	1	0
214	__SRSTmpBuf	7	0	438	4	42
215	__SRSTmpBuf.__SRSTmpBuf_type	1	0	0	1	0
216	__RLSReadBuf3	7	0	440	4	8
217	__RLSReadBuf3.__RLSReadBuf3_type	1	0	0	1	0
218	__RLSLastGoodRead3	7	0	442	4	2
219	__RLSLastGoodRead3.__RLSLastGoodRead3_type	1	0	0	1	0
220	__DCMessageWritePacket	7	0	444	4	7
221	__DCMessageWritePacket.__DCMessageWritePacket_type	1	0	0	1	0
222	__SRSFlattenBuf	7	0	446	4	14
223	__SRSFlattenBuf.__SRSFlattenBuf_type	1	0	0	1	0
#SOURCES
Clump	Line	PC	Source
0	142	0	#line 142 "C:\Users\luan\Documents\GitHub\Droid\sekksi2016\tentativa2\consultor.nxc"
0	143	0		subcall __initialize_global_data, ____initialize_global_data_return
0	142	2	#line 142 "C:\Users\luan\Documents\GitHub\Droid\sekksi2016\tentativa2\consultor.nxc"
0	143	2	#line 143 "C:\Users\luan\Documents\GitHub\Droid\sekksi2016\tentativa2\consultor.nxc"
0	144	2		subcall consultor, __consultor_return
0	143	5	#line 143 "C:\Users\luan\Documents\GitHub\Droid\sekksi2016\tentativa2\consultor.nxc"
0	144	5		exit -1, -1
1	5476	0		setin __constVal1, __ResetSensorPort, 5
1	5478	4		getin __ResetSensorTmp, __ResetSensorPort, 5
1	5479	8		brtst 5, __SensorStillInvalid, __ResetSensorTmp
1	5480	11		subret ____ResetSensorSubroutine_return
2	6393	0	#pragma macro 25
2	6393	0		acquire __CLSWMutex3
2	6393	1		or __CLSWArgs3.Port, __constVal3, __LSWriteOptions3
2	6393	5		mov __CLSWArgs3.ReturnLen, __RLSBytesCount3
2	6393	7		mov __CLSWArgs3.Buffer, __RLSReadBuf3
2	6393	9		syscall 21, __CLSWArgs3
2	6393	12		mov __RLSBResult3, __CLSWArgs3.Result
2	6393	14		release __CLSWMutex3
2	6393	15	#line 6393 "NXTDefs.h"
2	6394	15		brtst 5, __RLSBError3, __RLSBResult3
2	6395	18		set __RLSBIterations3, 60
2	6397	21	#pragma macro 23
2	6397	21		acquire __CLSCSMutex3
2	6397	22		set __CLSCSArgs3.Port, 3
2	6397	25		syscall 23, __CLSCSArgs3
2	6397	28		mov __RLSBytesCount3, __CLSCSArgs3.BytesReady
2	6397	30		mov __RLSBResult3, __CLSCSArgs3.Result
2	6397	32		release __CLSCSMutex3
2	6397	33	#line 6397 "NXTDefs.h"
2	6398	33		sub __RLSBIterations3, __RLSBIterations3, __constVal1
2	6399	37		brtst 2, __RLSBError3, __RLSBIterations3
2	6400	40		brtst 0, __RLSBError3, __RLSBResult3
2	6401	43		brtst 4, __RLSBReadyToRead3, __RLSBResult3
2	6403	46		wait2 NA, __constVal1
2	6404	49		jmp __RLSBDoCheckStatus3
2	6406	51		brtst 4, __RLSBReturn3, __RLSBytesCount3
2	6407	54		arrinit __RLSReadBuf3, __constVal0, __RLSBytesCount3
2	6409	58	#pragma macro 25
2	6409	58		acquire __CLSRMutex3
2	6409	59		set __CLSRArgs3.Port, 3
2	6409	62		mov __CLSRArgs3.BufferLen, __RLSBytesCount3
2	6409	64		syscall 22, __CLSRArgs3
2	6409	67		mov __RLSReadBuf3, __CLSRArgs3.Buffer
2	6409	69		mov __RLSBResult3, __CLSRArgs3.Result
2	6409	71		release __CLSRMutex3
2	6409	72	#line 6409 "NXTDefs.h"
2	6410	72		brtst 5, __RLSBError3, __RLSBResult3
2	6411	75		mov __RLSLastGoodRead3, __RLSReadBuf3
2	6412	77		jmp __RLSBDone3
2	6414	79		mov __RLSReadBuf3, __RLSLastGoodRead3
2	6416	81		arrsize __RLSBytesCount3, __RLSReadBuf3
2	6418	84		subret ____ReadLSBytes3_return
3	7127	0	#line 7127 "NXCDefs.h"
3	7128	0		mov __signed_stack_001PlaySound, __PlaySound_7qG2_aCode_7qG2_000
3	7127	2	#line 7127 "NXCDefs.h"
3	7128	2	#line 7128 "NXCDefs.h"
3	7129	2		set __D0PlaySound, 0
3	7128	5	#line 7128 "NXCDefs.h"
3	7129	5		cmp 4, __D0PlaySound, __signed_stack_001PlaySound, __D0PlaySound
3	7128	9	#line 7128 "NXCDefs.h"
3	7129	9		brtst 4, __ASM_Label_56, __D0PlaySound
3	7128	12	#line 7128 "NXCDefs.h"
3	7129	12		set __signed_stack_001PlaySound, 600
3	7128	15	#line 7128 "NXCDefs.h"
3	7128	15	#line 7128 "NXCDefs.h"
3	7129	15		set __signed_stack_002PlaySound, 200
3	7128	18	#line 7128 "NXCDefs.h"
3	7128	18	#line 7128 "NXCDefs.h"
3	7129	18		set __signed_stack_003PlaySound, 4
3	7128	21	#line 7128 "NXCDefs.h"
3	7128	21	#line 7128 "NXCDefs.h"
3	7129	21		set __D0PlaySound, 0
3	7129	24	#line 7129 "NXCDefs.h"
3	7130	24		acquire __SPTArgsMutex
3	7129	25	#line 7129 "NXCDefs.h"
3	7130	25		mov __SPTArgs.Frequency, __signed_stack_001PlaySound
3	7129	28	#line 7129 "NXCDefs.h"
3	7130	28		mov __SPTArgs.Duration, __signed_stack_002PlaySound
3	7129	31	#line 7129 "NXCDefs.h"
3	7130	31		mov __SPTArgs.Volume, __signed_stack_003PlaySound
3	7129	34	#line 7129 "NXCDefs.h"
3	7130	34		mov __SPTArgs.Loop, __D0PlaySound
3	7129	37	#line 7129 "NXCDefs.h"
3	7130	37		syscall 10, __SPTArgs
3	7129	40	#line 7129 "NXCDefs.h"
3	7130	40		mov __D0PlaySound, __SPTArgs.Result
3	7129	43	#line 7129 "NXCDefs.h"
3	7130	43		release __SPTArgsMutex
3	7129	44	#line 7129 "NXCDefs.h"
3	7129	44	#line 7129 "NXCDefs.h"
3	7130	44		jmp __ASM_Label_65
3	7129	46	#line 7129 "NXCDefs.h"
3	7130	46		mov __signed_stack_001PlaySound, __PlaySound_7qG2_aCode_7qG2_000
3	7129	48	#line 7129 "NXCDefs.h"
3	7130	48	#line 7130 "NXCDefs.h"
3	7131	48		set __D0PlaySound, 1
3	7130	51	#line 7130 "NXCDefs.h"
3	7131	51		cmp 4, __D0PlaySound, __signed_stack_001PlaySound, __D0PlaySound
3	7131	55	#line 7131 "NXCDefs.h"
3	7132	55		brtst 4, __ASM_Label_68, __D0PlaySound
3	7131	58	#line 7131 "NXCDefs.h"
3	7132	58		set __signed_stack_001PlaySound, 600
3	7131	61	#line 7131 "NXCDefs.h"
3	7131	61	#line 7131 "NXCDefs.h"
3	7132	61		set __signed_stack_002PlaySound, 150
3	7131	64	#line 7131 "NXCDefs.h"
3	7131	64	#line 7131 "NXCDefs.h"
3	7132	64		set __signed_stack_003PlaySound, 4
3	7131	67	#line 7131 "NXCDefs.h"
3	7131	67	#line 7131 "NXCDefs.h"
3	7132	67		set __D0PlaySound, 0
3	7132	70	#line 7132 "NXCDefs.h"
3	7133	70		acquire __SPTArgsMutex
3	7132	71	#line 7132 "NXCDefs.h"
3	7133	71		mov __SPTArgs.Frequency, __signed_stack_001PlaySound
3	7132	74	#line 7132 "NXCDefs.h"
3	7133	74		mov __SPTArgs.Duration, __signed_stack_002PlaySound
3	7132	77	#line 7132 "NXCDefs.h"
3	7133	77		mov __SPTArgs.Volume, __signed_stack_003PlaySound
3	7132	80	#line 7132 "NXCDefs.h"
3	7133	80		mov __SPTArgs.Loop, __D0PlaySound
3	7132	83	#line 7132 "NXCDefs.h"
3	7133	83		syscall 10, __SPTArgs
3	7132	86	#line 7132 "NXCDefs.h"
3	7133	86		mov __D0PlaySound, __SPTArgs.Result
3	7132	89	#line 7132 "NXCDefs.h"
3	7133	89		release __SPTArgsMutex
3	7132	90	#line 7132 "NXCDefs.h"
3	7132	90	#line 7132 "NXCDefs.h"
3	7133	90		wait2 NA, __constVal200
3	7132	93	#line 7132 "NXCDefs.h"
3	7132	93	#line 7132 "NXCDefs.h"
3	7133	93	#line 7133 "NXCDefs.h"
3	7134	93		set __signed_stack_001PlaySound, 600
3	7133	96	#line 7133 "NXCDefs.h"
3	7133	96	#line 7133 "NXCDefs.h"
3	7134	96		set __signed_stack_002PlaySound, 150
3	7133	99	#line 7133 "NXCDefs.h"
3	7133	99	#line 7133 "NXCDefs.h"
3	7134	99		set __signed_stack_003PlaySound, 4
3	7133	102	#line 7133 "NXCDefs.h"
3	7133	102	#line 7133 "NXCDefs.h"
3	7134	102		set __D0PlaySound, 0
3	7134	105	#line 7134 "NXCDefs.h"
3	7135	105		acquire __SPTArgsMutex
3	7134	106	#line 7134 "NXCDefs.h"
3	7135	106		mov __SPTArgs.Frequency, __signed_stack_001PlaySound
3	7134	109	#line 7134 "NXCDefs.h"
3	7135	109		mov __SPTArgs.Duration, __signed_stack_002PlaySound
3	7134	112	#line 7134 "NXCDefs.h"
3	7135	112		mov __SPTArgs.Volume, __signed_stack_003PlaySound
3	7134	115	#line 7134 "NXCDefs.h"
3	7135	115		mov __SPTArgs.Loop, __D0PlaySound
3	7134	118	#line 7134 "NXCDefs.h"
3	7135	118		syscall 10, __SPTArgs
3	7134	121	#line 7134 "NXCDefs.h"
3	7135	121		mov __D0PlaySound, __SPTArgs.Result
3	7134	124	#line 7134 "NXCDefs.h"
3	7135	124		release __SPTArgsMutex
3	7134	125	#line 7134 "NXCDefs.h"
3	7134	125	#line 7134 "NXCDefs.h"
3	7135	125		wait2 NA, __constVal150
3	7134	128	#line 7134 "NXCDefs.h"
3	7134	128	#line 7134 "NXCDefs.h"
3	7136	128	#line 7136 "NXCDefs.h"
3	7137	128		jmp __ASM_Label_85
3	7136	130	#line 7136 "NXCDefs.h"
3	7137	130		mov __signed_stack_001PlaySound, __PlaySound_7qG2_aCode_7qG2_000
3	7136	132	#line 7136 "NXCDefs.h"
3	7137	132	#line 7137 "NXCDefs.h"
3	7138	132		set __D0PlaySound, 3
3	7137	135	#line 7137 "NXCDefs.h"
3	7138	135		cmp 4, __D0PlaySound, __signed_stack_001PlaySound, __D0PlaySound
3	7137	139	#line 7137 "NXCDefs.h"
3	7138	139		brtst 4, __ASM_Label_88, __D0PlaySound
3	7137	142	#line 7137 "NXCDefs.h"
3	7138	142		set __PlaySound_7qG2_i_7qG2_001, 4
3	7137	145	#line 7137 "NXCDefs.h"
3	7137	145	#line 7137 "NXCDefs.h"
3	7138	145		mov __signed_stack_001PlaySound, __PlaySound_7qG2_i_7qG2_001
3	7137	147	#line 7137 "NXCDefs.h"
3	7137	147	#line 7137 "NXCDefs.h"
3	7138	147		set __D0PlaySound, 8
3	7137	150	#line 7137 "NXCDefs.h"
3	7138	150		cmp 0, __D0PlaySound, __signed_stack_001PlaySound, __D0PlaySound
3	7137	154	#line 7137 "NXCDefs.h"
3	7138	154		brtst 4, __ASM_Label_90, __D0PlaySound
3	7137	157	#line 7137 "NXCDefs.h"
3	7138	157		jmp __ASM_Label_91
3	7138	159	#line 7138 "NXCDefs.h"
3	7139	159		add __PlaySound_7qG2_i_7qG2_001, __PlaySound_7qG2_i_7qG2_001, __constVal1
3	7139	163	#line 7139 "NXCDefs.h"
3	7140	163		jmp __ASM_Label_89
3	7139	165	#line 7139 "NXCDefs.h"
3	7140	165		set __signed_stack_001PlaySound, 523
3	7139	168	#line 7139 "NXCDefs.h"
3	7139	168	#line 7139 "NXCDefs.h"
3	7140	168		mov __D0PlaySound, __PlaySound_7qG2_i_7qG2_001
3	7139	170	#line 7139 "NXCDefs.h"
3	7140	170		mul __signed_stack_001PlaySound, __signed_stack_001PlaySound, __D0PlaySound
3	7139	174	#line 7139 "NXCDefs.h"
3	7139	174	#line 7139 "NXCDefs.h"
3	7140	174		set __D0PlaySound, 4
3	7139	177	#line 7139 "NXCDefs.h"
3	7140	177		div __signed_stack_001PlaySound, __signed_stack_001PlaySound, __D0PlaySound
3	7139	181	#line 7139 "NXCDefs.h"
3	7139	181	#line 7139 "NXCDefs.h"
3	7140	181		set __signed_stack_002PlaySound, 100
3	7139	184	#line 7139 "NXCDefs.h"
3	7139	184	#line 7139 "NXCDefs.h"
3	7140	184		set __signed_stack_003PlaySound, 4
3	7139	187	#line 7139 "NXCDefs.h"
3	7139	187	#line 7139 "NXCDefs.h"
3	7140	187		set __D0PlaySound, 0
3	7140	190	#line 7140 "NXCDefs.h"
3	7141	190		acquire __SPTArgsMutex
3	7140	191	#line 7140 "NXCDefs.h"
3	7141	191		mov __SPTArgs.Frequency, __signed_stack_001PlaySound
3	7140	194	#line 7140 "NXCDefs.h"
3	7141	194		mov __SPTArgs.Duration, __signed_stack_002PlaySound
3	7140	197	#line 7140 "NXCDefs.h"
3	7141	197		mov __SPTArgs.Volume, __signed_stack_003PlaySound
3	7140	200	#line 7140 "NXCDefs.h"
3	7141	200		mov __SPTArgs.Loop, __D0PlaySound
3	7140	203	#line 7140 "NXCDefs.h"
3	7141	203		syscall 10, __SPTArgs
3	7140	206	#line 7140 "NXCDefs.h"
3	7141	206		mov __D0PlaySound, __SPTArgs.Result
3	7140	209	#line 7140 "NXCDefs.h"
3	7141	209		release __SPTArgsMutex
3	7140	210	#line 7140 "NXCDefs.h"
3	7140	210	#line 7140 "NXCDefs.h"
3	7141	210		wait2 NA, __constVal100
3	7140	213	#line 7140 "NXCDefs.h"
3	7140	213	#line 7140 "NXCDefs.h"
3	7142	213	#line 7142 "NXCDefs.h"
3	7143	213		jmp __ASM_Label_92
3	7142	215	#line 7142 "NXCDefs.h"
3	7142	215	#line 7142 "NXCDefs.h"
3	7143	215		jmp __ASM_Label_105
3	7142	217	#line 7142 "NXCDefs.h"
3	7143	217		mov __signed_stack_001PlaySound, __PlaySound_7qG2_aCode_7qG2_000
3	7142	219	#line 7142 "NXCDefs.h"
3	7143	219	#line 7143 "NXCDefs.h"
3	7144	219		set __D0PlaySound, 2
3	7143	222	#line 7143 "NXCDefs.h"
3	7144	222		cmp 4, __D0PlaySound, __signed_stack_001PlaySound, __D0PlaySound
3	7143	226	#line 7143 "NXCDefs.h"
3	7144	226		brtst 4, __ASM_Label_108, __D0PlaySound
3	7143	229	#line 7143 "NXCDefs.h"
3	7144	229		set __PlaySound_7qG2_i_7qG2_001, 7
3	7143	232	#line 7143 "NXCDefs.h"
3	7143	232	#line 7143 "NXCDefs.h"
3	7144	232		mov __signed_stack_001PlaySound, __PlaySound_7qG2_i_7qG2_001
3	7143	234	#line 7143 "NXCDefs.h"
3	7143	234	#line 7143 "NXCDefs.h"
3	7144	234		set __D0PlaySound, 3
3	7143	237	#line 7143 "NXCDefs.h"
3	7144	237		cmp 1, __D0PlaySound, __signed_stack_001PlaySound, __D0PlaySound
3	7143	241	#line 7143 "NXCDefs.h"
3	7144	241		brtst 4, __ASM_Label_110, __D0PlaySound
3	7143	244	#line 7143 "NXCDefs.h"
3	7144	244		jmp __ASM_Label_111
3	7144	246	#line 7144 "NXCDefs.h"
3	7145	246		sub __PlaySound_7qG2_i_7qG2_001, __PlaySound_7qG2_i_7qG2_001, __constVal1
3	7145	250	#line 7145 "NXCDefs.h"
3	7146	250		jmp __ASM_Label_109
3	7145	252	#line 7145 "NXCDefs.h"
3	7146	252		set __signed_stack_001PlaySound, 523
3	7145	255	#line 7145 "NXCDefs.h"
3	7145	255	#line 7145 "NXCDefs.h"
3	7146	255		mov __D0PlaySound, __PlaySound_7qG2_i_7qG2_001
3	7145	257	#line 7145 "NXCDefs.h"
3	7146	257		mul __signed_stack_001PlaySound, __signed_stack_001PlaySound, __D0PlaySound
3	7145	261	#line 7145 "NXCDefs.h"
3	7145	261	#line 7145 "NXCDefs.h"
3	7146	261		set __D0PlaySound, 4
3	7145	264	#line 7145 "NXCDefs.h"
3	7146	264		div __signed_stack_001PlaySound, __signed_stack_001PlaySound, __D0PlaySound
3	7145	268	#line 7145 "NXCDefs.h"
3	7145	268	#line 7145 "NXCDefs.h"
3	7146	268		set __signed_stack_002PlaySound, 100
3	7145	271	#line 7145 "NXCDefs.h"
3	7145	271	#line 7145 "NXCDefs.h"
3	7146	271		set __signed_stack_003PlaySound, 4
3	7145	274	#line 7145 "NXCDefs.h"
3	7145	274	#line 7145 "NXCDefs.h"
3	7146	274		set __D0PlaySound, 0
3	7146	277	#line 7146 "NXCDefs.h"
3	7147	277		acquire __SPTArgsMutex
3	7146	278	#line 7146 "NXCDefs.h"
3	7147	278		mov __SPTArgs.Frequency, __signed_stack_001PlaySound
3	7146	281	#line 7146 "NXCDefs.h"
3	7147	281		mov __SPTArgs.Duration, __signed_stack_002PlaySound
3	7146	284	#line 7146 "NXCDefs.h"
3	7147	284		mov __SPTArgs.Volume, __signed_stack_003PlaySound
3	7146	287	#line 7146 "NXCDefs.h"
3	7147	287		mov __SPTArgs.Loop, __D0PlaySound
3	7146	290	#line 7146 "NXCDefs.h"
3	7147	290		syscall 10, __SPTArgs
3	7146	293	#line 7146 "NXCDefs.h"
3	7147	293		mov __D0PlaySound, __SPTArgs.Result
3	7146	296	#line 7146 "NXCDefs.h"
3	7147	296		release __SPTArgsMutex
3	7146	297	#line 7146 "NXCDefs.h"
3	7146	297	#line 7146 "NXCDefs.h"
3	7147	297		wait2 NA, __constVal100
3	7146	300	#line 7146 "NXCDefs.h"
3	7146	300	#line 7146 "NXCDefs.h"
3	7148	300	#line 7148 "NXCDefs.h"
3	7149	300		jmp __ASM_Label_112
3	7148	302	#line 7148 "NXCDefs.h"
3	7148	302	#line 7148 "NXCDefs.h"
3	7149	302		jmp __ASM_Label_125
3	7148	304	#line 7148 "NXCDefs.h"
3	7149	304		mov __signed_stack_001PlaySound, __PlaySound_7qG2_aCode_7qG2_000
3	7148	306	#line 7148 "NXCDefs.h"
3	7149	306	#line 7149 "NXCDefs.h"
3	7150	306		set __D0PlaySound, 4
3	7149	309	#line 7149 "NXCDefs.h"
3	7150	309		cmp 4, __D0PlaySound, __signed_stack_001PlaySound, __D0PlaySound
3	7150	313	#line 7150 "NXCDefs.h"
3	7151	313		brtst 4, __ASM_Label_128, __D0PlaySound
3	7150	316	#line 7150 "NXCDefs.h"
3	7151	316		set __signed_stack_001PlaySound, 100
3	7150	319	#line 7150 "NXCDefs.h"
3	7150	319	#line 7150 "NXCDefs.h"
3	7151	319		set __signed_stack_002PlaySound, 500
3	7150	322	#line 7150 "NXCDefs.h"
3	7150	322	#line 7150 "NXCDefs.h"
3	7151	322		set __signed_stack_003PlaySound, 4
3	7150	325	#line 7150 "NXCDefs.h"
3	7150	325	#line 7150 "NXCDefs.h"
3	7151	325		set __D0PlaySound, 0
3	7151	328	#line 7151 "NXCDefs.h"
3	7152	328		acquire __SPTArgsMutex
3	7151	329	#line 7151 "NXCDefs.h"
3	7152	329		mov __SPTArgs.Frequency, __signed_stack_001PlaySound
3	7151	332	#line 7151 "NXCDefs.h"
3	7152	332		mov __SPTArgs.Duration, __signed_stack_002PlaySound
3	7151	335	#line 7151 "NXCDefs.h"
3	7152	335		mov __SPTArgs.Volume, __signed_stack_003PlaySound
3	7151	338	#line 7151 "NXCDefs.h"
3	7152	338		mov __SPTArgs.Loop, __D0PlaySound
3	7151	341	#line 7151 "NXCDefs.h"
3	7152	341		syscall 10, __SPTArgs
3	7151	344	#line 7151 "NXCDefs.h"
3	7152	344		mov __D0PlaySound, __SPTArgs.Result
3	7151	347	#line 7151 "NXCDefs.h"
3	7152	347		release __SPTArgsMutex
3	7151	348	#line 7151 "NXCDefs.h"
3	7151	348	#line 7151 "NXCDefs.h"
3	7152	348		wait2 NA, __constVal500
3	7151	351	#line 7151 "NXCDefs.h"
3	7151	351	#line 7151 "NXCDefs.h"
3	7153	351	#line 7153 "NXCDefs.h"
3	7154	351		jmp __ASM_Label_137
3	7153	353	#line 7153 "NXCDefs.h"
3	7154	353		mov __signed_stack_001PlaySound, __PlaySound_7qG2_aCode_7qG2_000
3	7153	355	#line 7153 "NXCDefs.h"
3	7154	355	#line 7154 "NXCDefs.h"
3	7155	355		set __D0PlaySound, 5
3	7154	358	#line 7154 "NXCDefs.h"
3	7155	358		cmp 4, __D0PlaySound, __signed_stack_001PlaySound, __D0PlaySound
3	7154	362	#line 7154 "NXCDefs.h"
3	7155	362		brtst 4, __ASM_Label_140, __D0PlaySound
3	7154	365	#line 7154 "NXCDefs.h"
3	7155	365		set __PlaySound_7qG2_i_7qG2_001, 4
3	7154	368	#line 7154 "NXCDefs.h"
3	7154	368	#line 7154 "NXCDefs.h"
3	7155	368		mov __signed_stack_001PlaySound, __PlaySound_7qG2_i_7qG2_001
3	7154	370	#line 7154 "NXCDefs.h"
3	7154	370	#line 7154 "NXCDefs.h"
3	7155	370		set __D0PlaySound, 8
3	7154	373	#line 7154 "NXCDefs.h"
3	7155	373		cmp 0, __D0PlaySound, __signed_stack_001PlaySound, __D0PlaySound
3	7154	377	#line 7154 "NXCDefs.h"
3	7155	377		brtst 4, __ASM_Label_142, __D0PlaySound
3	7154	380	#line 7154 "NXCDefs.h"
3	7155	380		jmp __ASM_Label_143
3	7155	382	#line 7155 "NXCDefs.h"
3	7156	382		add __PlaySound_7qG2_i_7qG2_001, __PlaySound_7qG2_i_7qG2_001, __constVal1
3	7156	386	#line 7156 "NXCDefs.h"
3	7157	386		jmp __ASM_Label_141
3	7156	388	#line 7156 "NXCDefs.h"
3	7157	388		set __signed_stack_001PlaySound, 523
3	7156	391	#line 7156 "NXCDefs.h"
3	7156	391	#line 7156 "NXCDefs.h"
3	7157	391		mov __D0PlaySound, __PlaySound_7qG2_i_7qG2_001
3	7156	393	#line 7156 "NXCDefs.h"
3	7157	393		mul __signed_stack_001PlaySound, __signed_stack_001PlaySound, __D0PlaySound
3	7156	397	#line 7156 "NXCDefs.h"
3	7156	397	#line 7156 "NXCDefs.h"
3	7157	397		set __D0PlaySound, 4
3	7156	400	#line 7156 "NXCDefs.h"
3	7157	400		div __signed_stack_001PlaySound, __signed_stack_001PlaySound, __D0PlaySound
3	7156	404	#line 7156 "NXCDefs.h"
3	7156	404	#line 7156 "NXCDefs.h"
3	7157	404		set __signed_stack_002PlaySound, 50
3	7156	407	#line 7156 "NXCDefs.h"
3	7156	407	#line 7156 "NXCDefs.h"
3	7157	407		set __signed_stack_003PlaySound, 4
3	7156	410	#line 7156 "NXCDefs.h"
3	7156	410	#line 7156 "NXCDefs.h"
3	7157	410		set __D0PlaySound, 0
3	7157	413	#line 7157 "NXCDefs.h"
3	7158	413		acquire __SPTArgsMutex
3	7157	414	#line 7157 "NXCDefs.h"
3	7158	414		mov __SPTArgs.Frequency, __signed_stack_001PlaySound
3	7157	417	#line 7157 "NXCDefs.h"
3	7158	417		mov __SPTArgs.Duration, __signed_stack_002PlaySound
3	7157	420	#line 7157 "NXCDefs.h"
3	7158	420		mov __SPTArgs.Volume, __signed_stack_003PlaySound
3	7157	423	#line 7157 "NXCDefs.h"
3	7158	423		mov __SPTArgs.Loop, __D0PlaySound
3	7157	426	#line 7157 "NXCDefs.h"
3	7158	426		syscall 10, __SPTArgs
3	7157	429	#line 7157 "NXCDefs.h"
3	7158	429		mov __D0PlaySound, __SPTArgs.Result
3	7157	432	#line 7157 "NXCDefs.h"
3	7158	432		release __SPTArgsMutex
3	7157	433	#line 7157 "NXCDefs.h"
3	7157	433	#line 7157 "NXCDefs.h"
3	7158	433		wait2 NA, __constVal50
3	7157	436	#line 7157 "NXCDefs.h"
3	7157	436	#line 7157 "NXCDefs.h"
3	7169	436	#line 7169 "NXCDefs.h"
3	7170	436		jmp __ASM_Label_144
3	7169	438	#line 7169 "NXCDefs.h"
3	7169	438	#line 7169 "NXCDefs.h"
3	7169	438	#line 7169 "NXCDefs.h"
3	7169	438	#line 7169 "NXCDefs.h"
3	7169	438	#line 7169 "NXCDefs.h"
3	7169	438	#line 7169 "NXCDefs.h"
3	7169	438	#line 7169 "NXCDefs.h"
3	7169	438	#line 7169 "NXCDefs.h"
3	7170	438		subret __PlaySound_return
4	127	0	#line 127 "C:\Users\luan\Documents\GitHub\Droid\sekksi2016\tentativa2\consultor.nxc"
4	128	0		set __PlaySound_7qG2_aCode_7qG2_000, 2
4	127	3	#line 127 "C:\Users\luan\Documents\GitHub\Droid\sekksi2016\tentativa2\consultor.nxc"
4	128	3	#line 128 "C:\Users\luan\Documents\GitHub\Droid\sekksi2016\tentativa2\consultor.nxc"
4	129	3		subcall PlaySound, __PlaySound_return
4	128	6	#line 128 "C:\Users\luan\Documents\GitHub\Droid\sekksi2016\tentativa2\consultor.nxc"
4	130	6	#line 130 "C:\Users\luan\Documents\GitHub\Droid\sekksi2016\tentativa2\consultor.nxc"
4	131	6		subret __bip_return
5	134	0	#line 134 "C:\Users\luan\Documents\GitHub\Droid\sekksi2016\tentativa2\consultor.nxc"
5	135	0		set __nbip_7qG2_i_7qG2_000, 0
5	134	3	#line 134 "C:\Users\luan\Documents\GitHub\Droid\sekksi2016\tentativa2\consultor.nxc"
5	134	3	#line 134 "C:\Users\luan\Documents\GitHub\Droid\sekksi2016\tentativa2\consultor.nxc"
5	135	3		mov __signed_stack_001nbip, __nbip_7qG2_i_7qG2_000
5	134	5	#line 134 "C:\Users\luan\Documents\GitHub\Droid\sekksi2016\tentativa2\consultor.nxc"
5	134	5	#line 134 "C:\Users\luan\Documents\GitHub\Droid\sekksi2016\tentativa2\consultor.nxc"
5	135	5		mov __D0nbip, __nbip_7qG2_n_7qG2_000
5	134	7	#line 134 "C:\Users\luan\Documents\GitHub\Droid\sekksi2016\tentativa2\consultor.nxc"
5	135	7		cmp 0, __D0nbip, __signed_stack_001nbip, __D0nbip
5	134	11	#line 134 "C:\Users\luan\Documents\GitHub\Droid\sekksi2016\tentativa2\consultor.nxc"
5	135	11		brtst 4, __ASM_Label_492, __D0nbip
5	134	14	#line 134 "C:\Users\luan\Documents\GitHub\Droid\sekksi2016\tentativa2\consultor.nxc"
5	135	14		jmp __ASM_Label_493
5	135	16	#line 135 "C:\Users\luan\Documents\GitHub\Droid\sekksi2016\tentativa2\consultor.nxc"
5	136	16		add __nbip_7qG2_i_7qG2_000, __nbip_7qG2_i_7qG2_000, __constVal1
5	136	20	#line 136 "C:\Users\luan\Documents\GitHub\Droid\sekksi2016\tentativa2\consultor.nxc"
5	137	20		jmp __ASM_Label_491
5	137	22	#line 137 "C:\Users\luan\Documents\GitHub\Droid\sekksi2016\tentativa2\consultor.nxc"
5	138	22		subcall bip, __bip_return
5	137	25	#line 137 "C:\Users\luan\Documents\GitHub\Droid\sekksi2016\tentativa2\consultor.nxc"
5	140	25	#line 140 "C:\Users\luan\Documents\GitHub\Droid\sekksi2016\tentativa2\consultor.nxc"
5	141	25		jmp __ASM_Label_494
5	140	27	#line 140 "C:\Users\luan\Documents\GitHub\Droid\sekksi2016\tentativa2\consultor.nxc"
5	140	27	#line 140 "C:\Users\luan\Documents\GitHub\Droid\sekksi2016\tentativa2\consultor.nxc"
5	141	27		subret __nbip_return
6	151	0	#line 151 "C:\Users\luan\Documents\GitHub\Droid\sekksi2016\tentativa2\consultor.nxc"
6	152	0		subcall init, __init_return
6	151	3	#line 151 "C:\Users\luan\Documents\GitHub\Droid\sekksi2016\tentativa2\consultor.nxc"
6	152	3	#line 152 "C:\Users\luan\Documents\GitHub\Droid\sekksi2016\tentativa2\consultor.nxc"
6	153	3		set __D0consultor, 1
6	154	6	#line 154 "C:\Users\luan\Documents\GitHub\Droid\sekksi2016\tentativa2\consultor.nxc"
6	155	6		tst 5, __D0consultor, __D0consultor
6	154	9	#line 154 "C:\Users\luan\Documents\GitHub\Droid\sekksi2016\tentativa2\consultor.nxc"
6	155	9		brtst 4, __ASM_Label_500, __D0consultor
6	154	12	#line 154 "C:\Users\luan\Documents\GitHub\Droid\sekksi2016\tentativa2\consultor.nxc"
6	155	12	#pragma macro 9
6	155	12		acquire __MRMutex
6	155	13		mov __MRArgs.QueueID, __constVal2
6	155	15		mov __MRArgs.Remove, __constVal1
6	155	17		set __RRNTmpVal, 0
6	155	20		syscall 27, __MRArgs
6	155	23		unflatten __RRNTmpVal, __RRNErr, __MRArgs.Message, __RRNTmpVal
6	155	28		mov __consultor_7qG2_mensagem_7qG2_000, __RRNTmpVal
6	155	30		mov __D0consultor, __MRArgs.Result
6	155	33		release __MRMutex
6	5245	34	#line 5245 "C:\Users\luan\Documents\GitHub\Droid\sekksi2016\tentativa2\consultor.nxc"
6	154	34	#line 154 "C:\Users\luan\Documents\GitHub\Droid\sekksi2016\tentativa2\consultor.nxc"
6	154	34	#line 154 "C:\Users\luan\Documents\GitHub\Droid\sekksi2016\tentativa2\consultor.nxc"
6	164	34	#line 164 "C:\Users\luan\Documents\GitHub\Droid\sekksi2016\tentativa2\consultor.nxc"
6	165	34		subcall MandaUs, __MandaUs_return
6	164	37	#line 164 "C:\Users\luan\Documents\GitHub\Droid\sekksi2016\tentativa2\consultor.nxc"
6	164	37	#line 164 "C:\Users\luan\Documents\GitHub\Droid\sekksi2016\tentativa2\consultor.nxc"
6	165	37		mov __signed_stack_001consultor, __consultor_7qG2_mensagem_7qG2_000
6	164	39	#line 164 "C:\Users\luan\Documents\GitHub\Droid\sekksi2016\tentativa2\consultor.nxc"
6	165	39	#line 165 "C:\Users\luan\Documents\GitHub\Droid\sekksi2016\tentativa2\consultor.nxc"
6	166	39		set __D0consultor, 7
6	165	42	#line 165 "C:\Users\luan\Documents\GitHub\Droid\sekksi2016\tentativa2\consultor.nxc"
6	166	42		cmp 4, __D0consultor, __signed_stack_001consultor, __D0consultor
6	166	46	#line 166 "C:\Users\luan\Documents\GitHub\Droid\sekksi2016\tentativa2\consultor.nxc"
6	167	46		brtst 4, __ASM_Label_505, __D0consultor
6	167	49	#line 167 "C:\Users\luan\Documents\GitHub\Droid\sekksi2016\tentativa2\consultor.nxc"
6	168	49		subcall CalibraFaixaBase, __CalibraFaixaBase_return
6	167	51	#line 167 "C:\Users\luan\Documents\GitHub\Droid\sekksi2016\tentativa2\consultor.nxc"
6	169	51	#line 169 "C:\Users\luan\Documents\GitHub\Droid\sekksi2016\tentativa2\consultor.nxc"
6	170	51	#line 170 "C:\Users\luan\Documents\GitHub\Droid\sekksi2016\tentativa2\consultor.nxc"
6	171	51		subcall TemBoneco, __TemBoneco_return
6	170	54	#line 170 "C:\Users\luan\Documents\GitHub\Droid\sekksi2016\tentativa2\consultor.nxc"
6	171	54		mov __D0consultor, __D0TemBoneco
6	171	56	#line 171 "C:\Users\luan\Documents\GitHub\Droid\sekksi2016\tentativa2\consultor.nxc"
6	172	56		tst 5, __D0consultor, __D0consultor
6	171	59	#line 171 "C:\Users\luan\Documents\GitHub\Droid\sekksi2016\tentativa2\consultor.nxc"
6	172	59		brtst 4, __ASM_Label_508, __D0consultor
6	172	62	#line 172 "C:\Users\luan\Documents\GitHub\Droid\sekksi2016\tentativa2\consultor.nxc"
6	173	62		subcall BonecoNaFrente, __BonecoNaFrente_return
6	172	64	#line 172 "C:\Users\luan\Documents\GitHub\Droid\sekksi2016\tentativa2\consultor.nxc"
6	174	64	#line 174 "C:\Users\luan\Documents\GitHub\Droid\sekksi2016\tentativa2\consultor.nxc"
6	176	64	#line 176 "C:\Users\luan\Documents\GitHub\Droid\sekksi2016\tentativa2\consultor.nxc"
6	177	64		jmp __ASM_Label_499
6	176	66	#line 176 "C:\Users\luan\Documents\GitHub\Droid\sekksi2016\tentativa2\consultor.nxc"
6	176	66	#line 176 "C:\Users\luan\Documents\GitHub\Droid\sekksi2016\tentativa2\consultor.nxc"
6	177	66		subret __consultor_return
7	179	0	#line 179 "C:\Users\luan\Documents\GitHub\Droid\sekksi2016\tentativa2\consultor.nxc"
7	180	0		subcall InicializaSensores, __InicializaSensores_return
7	179	3	#line 179 "C:\Users\luan\Documents\GitHub\Droid\sekksi2016\tentativa2\consultor.nxc"
7	180	3	#line 180 "C:\Users\luan\Documents\GitHub\Droid\sekksi2016\tentativa2\consultor.nxc"
7	181	3		subcall VoltaGarra, __VoltaGarra_return
7	180	6	#line 180 "C:\Users\luan\Documents\GitHub\Droid\sekksi2016\tentativa2\consultor.nxc"
7	182	6	#line 182 "C:\Users\luan\Documents\GitHub\Droid\sekksi2016\tentativa2\consultor.nxc"
7	183	6		subcall BonecoAlvo, __BonecoAlvo_return
7	182	9	#line 182 "C:\Users\luan\Documents\GitHub\Droid\sekksi2016\tentativa2\consultor.nxc"
7	184	9	#line 184 "C:\Users\luan\Documents\GitHub\Droid\sekksi2016\tentativa2\consultor.nxc"
7	185	9		subcall CalibraFaixaBase, __CalibraFaixaBase_return
7	184	11	#line 184 "C:\Users\luan\Documents\GitHub\Droid\sekksi2016\tentativa2\consultor.nxc"
7	186	11	#line 186 "C:\Users\luan\Documents\GitHub\Droid\sekksi2016\tentativa2\consultor.nxc"
7	187	11		set BonecosCapturados, 0
7	186	14	#line 186 "C:\Users\luan\Documents\GitHub\Droid\sekksi2016\tentativa2\consultor.nxc"
7	186	14	#line 186 "C:\Users\luan\Documents\GitHub\Droid\sekksi2016\tentativa2\consultor.nxc"
7	188	14	#line 188 "C:\Users\luan\Documents\GitHub\Droid\sekksi2016\tentativa2\consultor.nxc"
7	189	14		subret __init_return
8	190	0	#line 190 "C:\Users\luan\Documents\GitHub\Droid\sekksi2016\tentativa2\consultor.nxc"
8	191	0		set __SetSensorColorRed_7qG2_port_7qG2_000_inline_InicializaSensores, 0
8	190	3	#line 190 "C:\Users\luan\Documents\GitHub\Droid\sekksi2016\tentativa2\consultor.nxc"
8	4396	3	#line 4396 "NXCDefs.h"
8	4397	3	#pragma macro 6
8	4397	3		setin __constVal14, __SetSensorColorRed_7qG2_port_7qG2_000_inline_InicializaSensores, 0
8	4397	7		setin __constVal128, __SetSensorColorRed_7qG2_port_7qG2_000_inline_InicializaSensores, 1
8	4397	11		mov __ResetSensorPort, __SetSensorColorRed_7qG2_port_7qG2_000_inline_InicializaSensores
8	4397	13		subcall __ResetSensorSubroutine, ____ResetSensorSubroutine_return
8	5325	15	#line 5325 "NXCDefs.h"
8	4396	15	#line 4396 "NXCDefs.h"
8	191	15	#line 191 "C:\Users\luan\Documents\GitHub\Droid\sekksi2016\tentativa2\consultor.nxc"
8	191	15	#line 191 "C:\Users\luan\Documents\GitHub\Droid\sekksi2016\tentativa2\consultor.nxc"
8	192	15		set __SetSensorColorRed_7qG2_port_7qG2_000_inline_InicializaSensores, 1
8	191	18	#line 191 "C:\Users\luan\Documents\GitHub\Droid\sekksi2016\tentativa2\consultor.nxc"
8	4396	18	#line 4396 "NXCDefs.h"
8	4397	18	#pragma macro 6
8	4397	18		setin __constVal14, __SetSensorColorRed_7qG2_port_7qG2_000_inline_InicializaSensores, 0
8	4397	22		setin __constVal128, __SetSensorColorRed_7qG2_port_7qG2_000_inline_InicializaSensores, 1
8	4397	26		mov __ResetSensorPort, __SetSensorColorRed_7qG2_port_7qG2_000_inline_InicializaSensores
8	4397	28		subcall __ResetSensorSubroutine, ____ResetSensorSubroutine_return
8	5333	30	#line 5333 "NXCDefs.h"
8	4396	30	#line 4396 "NXCDefs.h"
8	192	30	#line 192 "C:\Users\luan\Documents\GitHub\Droid\sekksi2016\tentativa2\consultor.nxc"
8	192	30	#line 192 "C:\Users\luan\Documents\GitHub\Droid\sekksi2016\tentativa2\consultor.nxc"
8	193	30		set __SetSensorColorGreen_7qG2_port_7qG2_000_inline_InicializaSensores, 2
8	192	33	#line 192 "C:\Users\luan\Documents\GitHub\Droid\sekksi2016\tentativa2\consultor.nxc"
8	4406	33	#line 4406 "NXCDefs.h"
8	4407	33	#pragma macro 6
8	4407	33		setin __constVal15, __SetSensorColorGreen_7qG2_port_7qG2_000_inline_InicializaSensores, 0
8	4407	37		setin __constVal128, __SetSensorColorGreen_7qG2_port_7qG2_000_inline_InicializaSensores, 1
8	4407	41		mov __ResetSensorPort, __SetSensorColorGreen_7qG2_port_7qG2_000_inline_InicializaSensores
8	4407	43		subcall __ResetSensorSubroutine, ____ResetSensorSubroutine_return
8	5345	45	#line 5345 "NXCDefs.h"
8	4406	45	#line 4406 "NXCDefs.h"
8	193	45	#line 193 "C:\Users\luan\Documents\GitHub\Droid\sekksi2016\tentativa2\consultor.nxc"
8	193	45	#line 193 "C:\Users\luan\Documents\GitHub\Droid\sekksi2016\tentativa2\consultor.nxc"
8	194	45		set __SetSensorLowspeed_7qG2_port_7qG2_000_inline_InicializaSensores, 3
8	193	48	#line 193 "C:\Users\luan\Documents\GitHub\Droid\sekksi2016\tentativa2\consultor.nxc"
8	194	48	#line 194 "C:\Users\luan\Documents\GitHub\Droid\sekksi2016\tentativa2\consultor.nxc"
8	195	48		mov __SetSensorLowspeed_7qG2_bIsPowered_7qG2_000_inline_InicializaSensores, __constVal1
8	4342	50	#line 4342 "NXCDefs.h"
8	4343	50		mov __SetSensorType_7qG2_port_7qG2_000_inline_SetSensorLowspeed_inline_InicializaSensores, __SetSensorLowspeed_7qG2_port_7qG2_000_inline_InicializaSensores
8	4342	52	#line 4342 "NXCDefs.h"
8	4342	52	#line 4342 "NXCDefs.h"
8	4343	52		mov __DU0SetSensorLowspeed_inline_InicializaSensores, __SetSensorLowspeed_7qG2_bIsPowered_7qG2_000_inline_InicializaSensores
8	4342	54	#line 4342 "NXCDefs.h"
8	4343	54		tst 5, __D0SetSensorLowspeed_inline_InicializaSensores, __DU0SetSensorLowspeed_inline_InicializaSensores
8	4342	57	#line 4342 "NXCDefs.h"
8	4343	57		brtst 4, __004__ASM_Label_36, __D0SetSensorLowspeed_inline_InicializaSensores
8	4342	60	#line 4342 "NXCDefs.h"
8	4343	60		set __DU0SetSensorLowspeed_inline_InicializaSensores, 11
8	4342	63	#line 4342 "NXCDefs.h"
8	4342	63	#line 4342 "NXCDefs.h"
8	4343	63		jmp __004__ASM_Label_37
8	4342	65	#line 4342 "NXCDefs.h"
8	4343	65		set __DU0SetSensorLowspeed_inline_InicializaSensores, 10
8	4342	68	#line 4342 "NXCDefs.h"
8	4342	68	#line 4342 "NXCDefs.h"
8	4343	68		mov __SetSensorType_7qG2_type_7qG2_000_inline_SetSensorLowspeed_inline_InicializaSensores, __DU0SetSensorLowspeed_inline_InicializaSensores
8	4247	70	#line 4247 "NXCDefs.h"
8	4248	70		setin __SetSensorType_7qG2_type_7qG2_000_inline_SetSensorLowspeed_inline_InicializaSensores, __SetSensorType_7qG2_port_7qG2_000_inline_SetSensorLowspeed_inline_InicializaSensores, 0
8	4247	74	#line 4247 "NXCDefs.h"
8	4343	74	#line 4343 "NXCDefs.h"
8	4343	74	#line 4343 "NXCDefs.h"
8	4344	74		mov __SetSensorMode_7qG2_port_7qG2_000_inline_SetSensorLowspeed_inline_InicializaSensores, __SetSensorLowspeed_7qG2_port_7qG2_000_inline_InicializaSensores
8	4343	76	#line 4343 "NXCDefs.h"
8	4343	76	#line 4343 "NXCDefs.h"
8	4344	76		set __SetSensorMode_7qG2_mode_7qG2_000_inline_SetSensorLowspeed_inline_InicializaSensores, 0
8	4343	79	#line 4343 "NXCDefs.h"
8	4260	79	#line 4260 "NXCDefs.h"
8	4261	79		setin __SetSensorMode_7qG2_mode_7qG2_000_inline_SetSensorLowspeed_inline_InicializaSensores, __SetSensorMode_7qG2_port_7qG2_000_inline_SetSensorLowspeed_inline_InicializaSensores, 1
8	4260	83	#line 4260 "NXCDefs.h"
8	4344	83	#line 4344 "NXCDefs.h"
8	4344	83	#line 4344 "NXCDefs.h"
8	4344	83	#line 4344 "NXCDefs.h"
8	4278	83	#line 4278 "NXCDefs.h"
8	4279	83	#pragma macro 4
8	4279	83		mov __ResetSensorPort, __SetSensorLowspeed_7qG2_port_7qG2_000_inline_InicializaSensores
8	4279	85		subcall __ResetSensorSubroutine, ____ResetSensorSubroutine_return
8	5435	87	#line 5435 "NXCDefs.h"
8	4278	87	#line 4278 "NXCDefs.h"
8	4345	87	#line 4345 "NXCDefs.h"
8	194	87	#line 194 "C:\Users\luan\Documents\GitHub\Droid\sekksi2016\tentativa2\consultor.nxc"
8	196	87	#line 196 "C:\Users\luan\Documents\GitHub\Droid\sekksi2016\tentativa2\consultor.nxc"
8	197	87		subret __InicializaSensores_return
9	201	0	#line 201 "C:\Users\luan\Documents\GitHub\Droid\sekksi2016\tentativa2\consultor.nxc"
9	202	0		subcall RecebeBoneco, __RecebeBoneco_return
9	201	2	#line 201 "C:\Users\luan\Documents\GitHub\Droid\sekksi2016\tentativa2\consultor.nxc"
9	202	2		mov bonecoAlvo, __D0RecebeBoneco
9	201	4	#line 201 "C:\Users\luan\Documents\GitHub\Droid\sekksi2016\tentativa2\consultor.nxc"
9	201	4	#line 201 "C:\Users\luan\Documents\GitHub\Droid\sekksi2016\tentativa2\consultor.nxc"
9	201	4	#line 201 "C:\Users\luan\Documents\GitHub\Droid\sekksi2016\tentativa2\consultor.nxc"
9	202	4		mov __signed_stack_001BonecoAlvo, bonecoAlvo
9	201	6	#line 201 "C:\Users\luan\Documents\GitHub\Droid\sekksi2016\tentativa2\consultor.nxc"
9	202	6	#line 202 "C:\Users\luan\Documents\GitHub\Droid\sekksi2016\tentativa2\consultor.nxc"
9	203	6		set __D0BonecoAlvo, 2
9	202	9	#line 202 "C:\Users\luan\Documents\GitHub\Droid\sekksi2016\tentativa2\consultor.nxc"
9	203	9		cmp 4, __D0BonecoAlvo, __signed_stack_001BonecoAlvo, __D0BonecoAlvo
9	203	13	#line 203 "C:\Users\luan\Documents\GitHub\Droid\sekksi2016\tentativa2\consultor.nxc"
9	204	13		brtst 4, __ASM_Label_523, __D0BonecoAlvo
9	204	16	#line 204 "C:\Users\luan\Documents\GitHub\Droid\sekksi2016\tentativa2\consultor.nxc"
9	205	16		subcall BipPreto, __BipPreto_return
9	204	18	#line 204 "C:\Users\luan\Documents\GitHub\Droid\sekksi2016\tentativa2\consultor.nxc"
9	205	18	#line 205 "C:\Users\luan\Documents\GitHub\Droid\sekksi2016\tentativa2\consultor.nxc"
9	206	18		set bonecoNaoAlvo, 1
9	205	21	#line 205 "C:\Users\luan\Documents\GitHub\Droid\sekksi2016\tentativa2\consultor.nxc"
9	205	21	#line 205 "C:\Users\luan\Documents\GitHub\Droid\sekksi2016\tentativa2\consultor.nxc"
9	206	21	#line 206 "C:\Users\luan\Documents\GitHub\Droid\sekksi2016\tentativa2\consultor.nxc"
9	207	21		jmp __ASM_Label_526
9	206	23	#line 206 "C:\Users\luan\Documents\GitHub\Droid\sekksi2016\tentativa2\consultor.nxc"
9	207	23		mov __signed_stack_001BonecoAlvo, bonecoAlvo
9	206	25	#line 206 "C:\Users\luan\Documents\GitHub\Droid\sekksi2016\tentativa2\consultor.nxc"
9	207	25	#line 207 "C:\Users\luan\Documents\GitHub\Droid\sekksi2016\tentativa2\consultor.nxc"
9	208	25		set __D0BonecoAlvo, 1
9	207	28	#line 207 "C:\Users\luan\Documents\GitHub\Droid\sekksi2016\tentativa2\consultor.nxc"
9	208	28		cmp 4, __D0BonecoAlvo, __signed_stack_001BonecoAlvo, __D0BonecoAlvo
9	208	32	#line 208 "C:\Users\luan\Documents\GitHub\Droid\sekksi2016\tentativa2\consultor.nxc"
9	209	32		brtst 4, __ASM_Label_529, __D0BonecoAlvo
9	209	35	#line 209 "C:\Users\luan\Documents\GitHub\Droid\sekksi2016\tentativa2\consultor.nxc"
9	210	35		subcall BipBranco, __BipBranco_return
9	209	37	#line 209 "C:\Users\luan\Documents\GitHub\Droid\sekksi2016\tentativa2\consultor.nxc"
9	210	37	#line 210 "C:\Users\luan\Documents\GitHub\Droid\sekksi2016\tentativa2\consultor.nxc"
9	211	37		set bonecoNaoAlvo, 2
9	210	40	#line 210 "C:\Users\luan\Documents\GitHub\Droid\sekksi2016\tentativa2\consultor.nxc"
9	210	40	#line 210 "C:\Users\luan\Documents\GitHub\Droid\sekksi2016\tentativa2\consultor.nxc"
9	213	40	#line 213 "C:\Users\luan\Documents\GitHub\Droid\sekksi2016\tentativa2\consultor.nxc"
9	213	40	#line 213 "C:\Users\luan\Documents\GitHub\Droid\sekksi2016\tentativa2\consultor.nxc"
9	213	40	#line 213 "C:\Users\luan\Documents\GitHub\Droid\sekksi2016\tentativa2\consultor.nxc"
9	214	40		subret __BonecoAlvo_return
10	219	0	#line 219 "C:\Users\luan\Documents\GitHub\Droid\sekksi2016\tentativa2\consultor.nxc"
10	220	0		set __lerSensor_7qG2_sensor_7qG2_000, 0
10	219	3	#line 219 "C:\Users\luan\Documents\GitHub\Droid\sekksi2016\tentativa2\consultor.nxc"
10	220	3	#line 220 "C:\Users\luan\Documents\GitHub\Droid\sekksi2016\tentativa2\consultor.nxc"
10	221	3		subcall lerSensor, __lerSensor_return
10	220	5	#line 220 "C:\Users\luan\Documents\GitHub\Droid\sekksi2016\tentativa2\consultor.nxc"
10	221	5		mov __TemBoneco_7qG2_rgb_dir_7qG2_000, __D0lerSensor
10	220	7	#line 220 "C:\Users\luan\Documents\GitHub\Droid\sekksi2016\tentativa2\consultor.nxc"
10	220	7	#line 220 "C:\Users\luan\Documents\GitHub\Droid\sekksi2016\tentativa2\consultor.nxc"
10	220	7	#line 220 "C:\Users\luan\Documents\GitHub\Droid\sekksi2016\tentativa2\consultor.nxc"
10	221	7		set __lerSensor_7qG2_sensor_7qG2_000, 1
10	220	10	#line 220 "C:\Users\luan\Documents\GitHub\Droid\sekksi2016\tentativa2\consultor.nxc"
10	221	10	#line 221 "C:\Users\luan\Documents\GitHub\Droid\sekksi2016\tentativa2\consultor.nxc"
10	222	10		subcall lerSensor, __lerSensor_return
10	221	12	#line 221 "C:\Users\luan\Documents\GitHub\Droid\sekksi2016\tentativa2\consultor.nxc"
10	222	12		mov __TemBoneco_7qG2_rgb_esq_7qG2_000, __D0lerSensor
10	221	14	#line 221 "C:\Users\luan\Documents\GitHub\Droid\sekksi2016\tentativa2\consultor.nxc"
10	221	14	#line 221 "C:\Users\luan\Documents\GitHub\Droid\sekksi2016\tentativa2\consultor.nxc"
10	221	14	#line 221 "C:\Users\luan\Documents\GitHub\Droid\sekksi2016\tentativa2\consultor.nxc"
10	222	14		set __lerSensor_7qG2_sensor_7qG2_000, 2
10	221	17	#line 221 "C:\Users\luan\Documents\GitHub\Droid\sekksi2016\tentativa2\consultor.nxc"
10	226	17	#line 226 "C:\Users\luan\Documents\GitHub\Droid\sekksi2016\tentativa2\consultor.nxc"
10	227	17		subcall lerSensor, __lerSensor_return
10	226	19	#line 226 "C:\Users\luan\Documents\GitHub\Droid\sekksi2016\tentativa2\consultor.nxc"
10	227	19		mov __TemBoneco_7qG2_rgb_meio_7qG2_000, __D0lerSensor
10	226	21	#line 226 "C:\Users\luan\Documents\GitHub\Droid\sekksi2016\tentativa2\consultor.nxc"
10	226	21	#line 226 "C:\Users\luan\Documents\GitHub\Droid\sekksi2016\tentativa2\consultor.nxc"
10	226	21	#line 226 "C:\Users\luan\Documents\GitHub\Droid\sekksi2016\tentativa2\consultor.nxc"
10	227	21		mov __signed_stack_001TemBoneco, __TemBoneco_7qG2_rgb_dir_7qG2_000
10	226	23	#line 226 "C:\Users\luan\Documents\GitHub\Droid\sekksi2016\tentativa2\consultor.nxc"
10	226	23	#line 226 "C:\Users\luan\Documents\GitHub\Droid\sekksi2016\tentativa2\consultor.nxc"
10	227	23		mov __D0TemBoneco, CorBaseDirMax
10	226	25	#line 226 "C:\Users\luan\Documents\GitHub\Droid\sekksi2016\tentativa2\consultor.nxc"
10	227	25		cmp 0, __D0TemBoneco, __signed_stack_001TemBoneco, __D0TemBoneco
10	226	29	#line 226 "C:\Users\luan\Documents\GitHub\Droid\sekksi2016\tentativa2\consultor.nxc"
10	227	29		brtst 4, __ASM_Label_547, __D0TemBoneco
10	226	32	#line 226 "C:\Users\luan\Documents\GitHub\Droid\sekksi2016\tentativa2\consultor.nxc"
10	227	32		mov __signed_stack_001TemBoneco, __TemBoneco_7qG2_rgb_dir_7qG2_000
10	226	34	#line 226 "C:\Users\luan\Documents\GitHub\Droid\sekksi2016\tentativa2\consultor.nxc"
10	226	34	#line 226 "C:\Users\luan\Documents\GitHub\Droid\sekksi2016\tentativa2\consultor.nxc"
10	227	34		mov __D0TemBoneco, CorBaseDirMin
10	226	36	#line 226 "C:\Users\luan\Documents\GitHub\Droid\sekksi2016\tentativa2\consultor.nxc"
10	227	36		cmp 1, __D0TemBoneco, __signed_stack_001TemBoneco, __D0TemBoneco
10	226	40	#line 226 "C:\Users\luan\Documents\GitHub\Droid\sekksi2016\tentativa2\consultor.nxc"
10	227	40		brtst 4, __ASM_Label_545, __D0TemBoneco
10	226	43	#line 226 "C:\Users\luan\Documents\GitHub\Droid\sekksi2016\tentativa2\consultor.nxc"
10	227	43		mov __signed_stack_001TemBoneco, __TemBoneco_7qG2_rgb_esq_7qG2_000
10	226	45	#line 226 "C:\Users\luan\Documents\GitHub\Droid\sekksi2016\tentativa2\consultor.nxc"
10	226	45	#line 226 "C:\Users\luan\Documents\GitHub\Droid\sekksi2016\tentativa2\consultor.nxc"
10	227	45		mov __D0TemBoneco, CorBaseEsqMax
10	226	47	#line 226 "C:\Users\luan\Documents\GitHub\Droid\sekksi2016\tentativa2\consultor.nxc"
10	227	47		cmp 0, __D0TemBoneco, __signed_stack_001TemBoneco, __D0TemBoneco
10	226	51	#line 226 "C:\Users\luan\Documents\GitHub\Droid\sekksi2016\tentativa2\consultor.nxc"
10	227	51		brtst 4, __ASM_Label_553, __D0TemBoneco
10	226	54	#line 226 "C:\Users\luan\Documents\GitHub\Droid\sekksi2016\tentativa2\consultor.nxc"
10	227	54		mov __signed_stack_001TemBoneco, __TemBoneco_7qG2_rgb_esq_7qG2_000
10	226	56	#line 226 "C:\Users\luan\Documents\GitHub\Droid\sekksi2016\tentativa2\consultor.nxc"
10	226	56	#line 226 "C:\Users\luan\Documents\GitHub\Droid\sekksi2016\tentativa2\consultor.nxc"
10	227	56		mov __D0TemBoneco, CorBaseEsqMin
10	226	58	#line 226 "C:\Users\luan\Documents\GitHub\Droid\sekksi2016\tentativa2\consultor.nxc"
10	227	58		cmp 1, __D0TemBoneco, __signed_stack_001TemBoneco, __D0TemBoneco
10	226	62	#line 226 "C:\Users\luan\Documents\GitHub\Droid\sekksi2016\tentativa2\consultor.nxc"
10	227	62		brtst 4, __ASM_Label_545, __D0TemBoneco
10	226	65	#line 226 "C:\Users\luan\Documents\GitHub\Droid\sekksi2016\tentativa2\consultor.nxc"
10	227	65		mov __signed_stack_001TemBoneco, __TemBoneco_7qG2_rgb_meio_7qG2_000
10	226	67	#line 226 "C:\Users\luan\Documents\GitHub\Droid\sekksi2016\tentativa2\consultor.nxc"
10	226	67	#line 226 "C:\Users\luan\Documents\GitHub\Droid\sekksi2016\tentativa2\consultor.nxc"
10	227	67		mov __D0TemBoneco, CorBaseMeioMax
10	226	69	#line 226 "C:\Users\luan\Documents\GitHub\Droid\sekksi2016\tentativa2\consultor.nxc"
10	227	69		cmp 0, __D0TemBoneco, __signed_stack_001TemBoneco, __D0TemBoneco
10	226	73	#line 226 "C:\Users\luan\Documents\GitHub\Droid\sekksi2016\tentativa2\consultor.nxc"
10	227	73		brtst 4, __ASM_Label_559, __D0TemBoneco
10	226	76	#line 226 "C:\Users\luan\Documents\GitHub\Droid\sekksi2016\tentativa2\consultor.nxc"
10	227	76		mov __signed_stack_001TemBoneco, __TemBoneco_7qG2_rgb_meio_7qG2_000
10	226	78	#line 226 "C:\Users\luan\Documents\GitHub\Droid\sekksi2016\tentativa2\consultor.nxc"
10	226	78	#line 226 "C:\Users\luan\Documents\GitHub\Droid\sekksi2016\tentativa2\consultor.nxc"
10	227	78		mov __D0TemBoneco, CorBaseMeioMin
10	226	80	#line 226 "C:\Users\luan\Documents\GitHub\Droid\sekksi2016\tentativa2\consultor.nxc"
10	227	80		cmp 1, __D0TemBoneco, __signed_stack_001TemBoneco, __D0TemBoneco
10	227	84	#line 227 "C:\Users\luan\Documents\GitHub\Droid\sekksi2016\tentativa2\consultor.nxc"
10	228	84		brtst 4, __ASM_Label_564, __D0TemBoneco
10	228	87	#line 228 "C:\Users\luan\Documents\GitHub\Droid\sekksi2016\tentativa2\consultor.nxc"
10	229	87		set __D0TemBoneco, 0
10	228	90	#line 228 "C:\Users\luan\Documents\GitHub\Droid\sekksi2016\tentativa2\consultor.nxc"
10	229	90		subret __TemBoneco_return
10	228	92	#line 228 "C:\Users\luan\Documents\GitHub\Droid\sekksi2016\tentativa2\consultor.nxc"
10	228	92	#line 228 "C:\Users\luan\Documents\GitHub\Droid\sekksi2016\tentativa2\consultor.nxc"
10	229	92	#line 229 "C:\Users\luan\Documents\GitHub\Droid\sekksi2016\tentativa2\consultor.nxc"
10	230	92		set __D0TemBoneco, 1
10	229	95	#line 229 "C:\Users\luan\Documents\GitHub\Droid\sekksi2016\tentativa2\consultor.nxc"
10	230	95		subret __TemBoneco_return
10	229	97	#line 229 "C:\Users\luan\Documents\GitHub\Droid\sekksi2016\tentativa2\consultor.nxc"
10	231	97	#line 231 "C:\Users\luan\Documents\GitHub\Droid\sekksi2016\tentativa2\consultor.nxc"
10	232	97		subret __TemBoneco_return
11	263	0	#line 263 "C:\Users\luan\Documents\GitHub\Droid\sekksi2016\tentativa2\consultor.nxc"
11	263	0	#line 263 "C:\Users\luan\Documents\GitHub\Droid\sekksi2016\tentativa2\consultor.nxc"
11	265	0	#line 265 "C:\Users\luan\Documents\GitHub\Droid\sekksi2016\tentativa2\consultor.nxc"
11	266	0		set __D0RecebeBoneco, 2
11	265	3	#line 265 "C:\Users\luan\Documents\GitHub\Droid\sekksi2016\tentativa2\consultor.nxc"
11	266	3		subret __RecebeBoneco_return
11	265	5	#line 265 "C:\Users\luan\Documents\GitHub\Droid\sekksi2016\tentativa2\consultor.nxc"
11	267	5	#line 267 "C:\Users\luan\Documents\GitHub\Droid\sekksi2016\tentativa2\consultor.nxc"
11	268	5		subret __RecebeBoneco_return
12	282	0	#line 282 "C:\Users\luan\Documents\GitHub\Droid\sekksi2016\tentativa2\consultor.nxc"
12	283	0		arrinit __lerSensor_7qG2_leitura_7qG2_000, __constVal0, __constVal11
12	282	4	#line 282 "C:\Users\luan\Documents\GitHub\Droid\sekksi2016\tentativa2\consultor.nxc"
12	283	4		set __lerSensor_7qG2_i_7qG2_000, 0
12	282	7	#line 282 "C:\Users\luan\Documents\GitHub\Droid\sekksi2016\tentativa2\consultor.nxc"
12	282	7	#line 282 "C:\Users\luan\Documents\GitHub\Droid\sekksi2016\tentativa2\consultor.nxc"
12	283	7		mov __signed_stack_001lerSensor, __lerSensor_7qG2_i_7qG2_000
12	282	9	#line 282 "C:\Users\luan\Documents\GitHub\Droid\sekksi2016\tentativa2\consultor.nxc"
12	282	9	#line 282 "C:\Users\luan\Documents\GitHub\Droid\sekksi2016\tentativa2\consultor.nxc"
12	283	9		set __D0lerSensor, 11
12	282	12	#line 282 "C:\Users\luan\Documents\GitHub\Droid\sekksi2016\tentativa2\consultor.nxc"
12	283	12		cmp 0, __D0lerSensor, __signed_stack_001lerSensor, __D0lerSensor
12	282	16	#line 282 "C:\Users\luan\Documents\GitHub\Droid\sekksi2016\tentativa2\consultor.nxc"
12	283	16		brtst 4, __ASM_Label_602, __D0lerSensor
12	282	19	#line 282 "C:\Users\luan\Documents\GitHub\Droid\sekksi2016\tentativa2\consultor.nxc"
12	283	19		jmp __ASM_Label_603
12	282	21	#line 282 "C:\Users\luan\Documents\GitHub\Droid\sekksi2016\tentativa2\consultor.nxc"
12	283	21		add __lerSensor_7qG2_i_7qG2_000, __lerSensor_7qG2_i_7qG2_000, __constVal1
12	283	25	#line 283 "C:\Users\luan\Documents\GitHub\Droid\sekksi2016\tentativa2\consultor.nxc"
12	284	25		jmp __ASM_Label_601
12	285	27	#line 285 "C:\Users\luan\Documents\GitHub\Droid\sekksi2016\tentativa2\consultor.nxc"
12	286	27		getin __lerSensor_7qG2_aux_7qG2_000, __lerSensor_7qG2_sensor_7qG2_000, 2
12	285	31	#line 285 "C:\Users\luan\Documents\GitHub\Droid\sekksi2016\tentativa2\consultor.nxc"
12	285	31	#line 285 "C:\Users\luan\Documents\GitHub\Droid\sekksi2016\tentativa2\consultor.nxc"
12	286	31	#line 286 "C:\Users\luan\Documents\GitHub\Droid\sekksi2016\tentativa2\consultor.nxc"
12	287	31		set __lerSensor_7qG2_j_7qG2_000, 0
12	286	34	#line 286 "C:\Users\luan\Documents\GitHub\Droid\sekksi2016\tentativa2\consultor.nxc"
12	286	34	#line 286 "C:\Users\luan\Documents\GitHub\Droid\sekksi2016\tentativa2\consultor.nxc"
12	286	34	#line 286 "C:\Users\luan\Documents\GitHub\Droid\sekksi2016\tentativa2\consultor.nxc"
12	287	34		mov __signed_stack_001lerSensor, __lerSensor_7qG2_aux_7qG2_000
12	286	36	#line 286 "C:\Users\luan\Documents\GitHub\Droid\sekksi2016\tentativa2\consultor.nxc"
12	286	36	#line 286 "C:\Users\luan\Documents\GitHub\Droid\sekksi2016\tentativa2\consultor.nxc"
12	287	36		mov __signed_stack_002lerSensor, __lerSensor_7qG2_j_7qG2_000
12	286	38	#line 286 "C:\Users\luan\Documents\GitHub\Droid\sekksi2016\tentativa2\consultor.nxc"
12	286	38	#line 286 "C:\Users\luan\Documents\GitHub\Droid\sekksi2016\tentativa2\consultor.nxc"
12	287	38		index __D0lerSensor, __lerSensor_7qG2_leitura_7qG2_000, __signed_stack_002lerSensor
12	286	42	#line 286 "C:\Users\luan\Documents\GitHub\Droid\sekksi2016\tentativa2\consultor.nxc"
12	286	42	#line 286 "C:\Users\luan\Documents\GitHub\Droid\sekksi2016\tentativa2\consultor.nxc"
12	287	42		cmp 0, __D0lerSensor, __signed_stack_001lerSensor, __D0lerSensor
12	286	46	#line 286 "C:\Users\luan\Documents\GitHub\Droid\sekksi2016\tentativa2\consultor.nxc"
12	287	46		brtst 4, __ASM_Label_616, __D0lerSensor
12	286	49	#line 286 "C:\Users\luan\Documents\GitHub\Droid\sekksi2016\tentativa2\consultor.nxc"
12	287	49		mov __signed_stack_001lerSensor, __lerSensor_7qG2_j_7qG2_000
12	286	51	#line 286 "C:\Users\luan\Documents\GitHub\Droid\sekksi2016\tentativa2\consultor.nxc"
12	287	51	#line 287 "C:\Users\luan\Documents\GitHub\Droid\sekksi2016\tentativa2\consultor.nxc"
12	288	51		mov __D0lerSensor, __lerSensor_7qG2_i_7qG2_000
12	287	53	#line 287 "C:\Users\luan\Documents\GitHub\Droid\sekksi2016\tentativa2\consultor.nxc"
12	288	53		cmp 0, __D0lerSensor, __signed_stack_001lerSensor, __D0lerSensor
12	288	57	#line 288 "C:\Users\luan\Documents\GitHub\Droid\sekksi2016\tentativa2\consultor.nxc"
12	289	57		brtst 4, __ASM_Label_614, __D0lerSensor
12	289	60	#line 289 "C:\Users\luan\Documents\GitHub\Droid\sekksi2016\tentativa2\consultor.nxc"
12	290	60		add __lerSensor_7qG2_j_7qG2_000, __lerSensor_7qG2_j_7qG2_000, __constVal1
12	289	64	#line 289 "C:\Users\luan\Documents\GitHub\Droid\sekksi2016\tentativa2\consultor.nxc"
12	291	64	#line 291 "C:\Users\luan\Documents\GitHub\Droid\sekksi2016\tentativa2\consultor.nxc"
12	292	64		jmp __ASM_Label_613
12	291	66	#line 291 "C:\Users\luan\Documents\GitHub\Droid\sekksi2016\tentativa2\consultor.nxc"
12	291	66	#line 291 "C:\Users\luan\Documents\GitHub\Droid\sekksi2016\tentativa2\consultor.nxc"
12	292	66		mov __signed_stack_001lerSensor, __lerSensor_7qG2_j_7qG2_000
12	291	68	#line 291 "C:\Users\luan\Documents\GitHub\Droid\sekksi2016\tentativa2\consultor.nxc"
12	291	68	#line 291 "C:\Users\luan\Documents\GitHub\Droid\sekksi2016\tentativa2\consultor.nxc"
12	292	68		mov __D0lerSensor, __lerSensor_7qG2_i_7qG2_000
12	291	70	#line 291 "C:\Users\luan\Documents\GitHub\Droid\sekksi2016\tentativa2\consultor.nxc"
12	292	70		cmp 0, __D0lerSensor, __signed_stack_001lerSensor, __D0lerSensor
12	292	74	#line 292 "C:\Users\luan\Documents\GitHub\Droid\sekksi2016\tentativa2\consultor.nxc"
12	293	74		brtst 4, __ASM_Label_621, __D0lerSensor
12	292	77	#line 292 "C:\Users\luan\Documents\GitHub\Droid\sekksi2016\tentativa2\consultor.nxc"
12	293	77		mov __lerSensor_7qG2_k_7qG2_000, __lerSensor_7qG2_i_7qG2_000
12	292	79	#line 292 "C:\Users\luan\Documents\GitHub\Droid\sekksi2016\tentativa2\consultor.nxc"
12	292	79	#line 292 "C:\Users\luan\Documents\GitHub\Droid\sekksi2016\tentativa2\consultor.nxc"
12	293	79		mov __signed_stack_001lerSensor, __lerSensor_7qG2_k_7qG2_000
12	292	81	#line 292 "C:\Users\luan\Documents\GitHub\Droid\sekksi2016\tentativa2\consultor.nxc"
12	292	81	#line 292 "C:\Users\luan\Documents\GitHub\Droid\sekksi2016\tentativa2\consultor.nxc"
12	293	81		mov __D0lerSensor, __lerSensor_7qG2_j_7qG2_000
12	292	83	#line 292 "C:\Users\luan\Documents\GitHub\Droid\sekksi2016\tentativa2\consultor.nxc"
12	293	83		cmp 1, __D0lerSensor, __signed_stack_001lerSensor, __D0lerSensor
12	292	87	#line 292 "C:\Users\luan\Documents\GitHub\Droid\sekksi2016\tentativa2\consultor.nxc"
12	293	87		brtst 4, __ASM_Label_623, __D0lerSensor
12	292	90	#line 292 "C:\Users\luan\Documents\GitHub\Droid\sekksi2016\tentativa2\consultor.nxc"
12	293	90		jmp __ASM_Label_624
12	292	92	#line 292 "C:\Users\luan\Documents\GitHub\Droid\sekksi2016\tentativa2\consultor.nxc"
12	293	92		sub __lerSensor_7qG2_k_7qG2_000, __lerSensor_7qG2_k_7qG2_000, __constVal1
12	293	96	#line 293 "C:\Users\luan\Documents\GitHub\Droid\sekksi2016\tentativa2\consultor.nxc"
12	294	96		jmp __ASM_Label_622
12	293	98	#line 293 "C:\Users\luan\Documents\GitHub\Droid\sekksi2016\tentativa2\consultor.nxc"
12	294	98		mov __signed_stack_001lerSensor, __lerSensor_7qG2_k_7qG2_000
12	293	100	#line 293 "C:\Users\luan\Documents\GitHub\Droid\sekksi2016\tentativa2\consultor.nxc"
12	293	100	#line 293 "C:\Users\luan\Documents\GitHub\Droid\sekksi2016\tentativa2\consultor.nxc"
12	294	100		mov __signed_stack_002lerSensor, __lerSensor_7qG2_k_7qG2_000
12	293	102	#line 293 "C:\Users\luan\Documents\GitHub\Droid\sekksi2016\tentativa2\consultor.nxc"
12	293	102	#line 293 "C:\Users\luan\Documents\GitHub\Droid\sekksi2016\tentativa2\consultor.nxc"
12	294	102		set __D0lerSensor, 1
12	293	105	#line 293 "C:\Users\luan\Documents\GitHub\Droid\sekksi2016\tentativa2\consultor.nxc"
12	294	105		sub __signed_stack_002lerSensor, __signed_stack_002lerSensor, __D0lerSensor
12	293	109	#line 293 "C:\Users\luan\Documents\GitHub\Droid\sekksi2016\tentativa2\consultor.nxc"
12	293	109	#line 293 "C:\Users\luan\Documents\GitHub\Droid\sekksi2016\tentativa2\consultor.nxc"
12	294	109		index __D0lerSensor, __lerSensor_7qG2_leitura_7qG2_000, __signed_stack_002lerSensor
12	293	113	#line 293 "C:\Users\luan\Documents\GitHub\Droid\sekksi2016\tentativa2\consultor.nxc"
12	294	113	#line 294 "C:\Users\luan\Documents\GitHub\Droid\sekksi2016\tentativa2\consultor.nxc"
12	295	113		replace __lerSensor_7qG2_leitura_7qG2_000, __lerSensor_7qG2_leitura_7qG2_000, __signed_stack_001lerSensor, __D0lerSensor
12	294	118	#line 294 "C:\Users\luan\Documents\GitHub\Droid\sekksi2016\tentativa2\consultor.nxc"
12	295	118	#line 295 "C:\Users\luan\Documents\GitHub\Droid\sekksi2016\tentativa2\consultor.nxc"
12	296	118		jmp __ASM_Label_625
12	295	120	#line 295 "C:\Users\luan\Documents\GitHub\Droid\sekksi2016\tentativa2\consultor.nxc"
12	295	120	#line 295 "C:\Users\luan\Documents\GitHub\Droid\sekksi2016\tentativa2\consultor.nxc"
12	296	120		mov __signed_stack_001lerSensor, __lerSensor_7qG2_j_7qG2_000
12	295	122	#line 295 "C:\Users\luan\Documents\GitHub\Droid\sekksi2016\tentativa2\consultor.nxc"
12	296	122	#line 296 "C:\Users\luan\Documents\GitHub\Droid\sekksi2016\tentativa2\consultor.nxc"
12	297	122		mov __D0lerSensor, __lerSensor_7qG2_aux_7qG2_000
12	296	124	#line 296 "C:\Users\luan\Documents\GitHub\Droid\sekksi2016\tentativa2\consultor.nxc"
12	297	124		replace __lerSensor_7qG2_leitura_7qG2_000, __lerSensor_7qG2_leitura_7qG2_000, __signed_stack_001lerSensor, __D0lerSensor
12	296	129	#line 296 "C:\Users\luan\Documents\GitHub\Droid\sekksi2016\tentativa2\consultor.nxc"
12	298	129	#line 298 "C:\Users\luan\Documents\GitHub\Droid\sekksi2016\tentativa2\consultor.nxc"
12	299	129		jmp __ASM_Label_640
12	298	131	#line 298 "C:\Users\luan\Documents\GitHub\Droid\sekksi2016\tentativa2\consultor.nxc"
12	299	131		mov __signed_stack_001lerSensor, __lerSensor_7qG2_i_7qG2_000
12	298	133	#line 298 "C:\Users\luan\Documents\GitHub\Droid\sekksi2016\tentativa2\consultor.nxc"
12	299	133	#line 299 "C:\Users\luan\Documents\GitHub\Droid\sekksi2016\tentativa2\consultor.nxc"
12	300	133		mov __D0lerSensor, __lerSensor_7qG2_aux_7qG2_000
12	299	135	#line 299 "C:\Users\luan\Documents\GitHub\Droid\sekksi2016\tentativa2\consultor.nxc"
12	300	135		replace __lerSensor_7qG2_leitura_7qG2_000, __lerSensor_7qG2_leitura_7qG2_000, __signed_stack_001lerSensor, __D0lerSensor
12	299	140	#line 299 "C:\Users\luan\Documents\GitHub\Droid\sekksi2016\tentativa2\consultor.nxc"
12	302	140	#line 302 "C:\Users\luan\Documents\GitHub\Droid\sekksi2016\tentativa2\consultor.nxc"
12	302	140	#line 302 "C:\Users\luan\Documents\GitHub\Droid\sekksi2016\tentativa2\consultor.nxc"
12	303	140		jmp __ASM_Label_604
12	302	142	#line 302 "C:\Users\luan\Documents\GitHub\Droid\sekksi2016\tentativa2\consultor.nxc"
12	302	142	#line 302 "C:\Users\luan\Documents\GitHub\Droid\sekksi2016\tentativa2\consultor.nxc"
12	303	142		set __signed_stack_001lerSensor, 5
12	302	145	#line 302 "C:\Users\luan\Documents\GitHub\Droid\sekksi2016\tentativa2\consultor.nxc"
12	302	145	#line 302 "C:\Users\luan\Documents\GitHub\Droid\sekksi2016\tentativa2\consultor.nxc"
12	303	145		index __D0lerSensor, __lerSensor_7qG2_leitura_7qG2_000, __signed_stack_001lerSensor
12	302	149	#line 302 "C:\Users\luan\Documents\GitHub\Droid\sekksi2016\tentativa2\consultor.nxc"
12	303	149	#line 303 "C:\Users\luan\Documents\GitHub\Droid\sekksi2016\tentativa2\consultor.nxc"
12	304	149		subret __lerSensor_return
12	303	151	#line 303 "C:\Users\luan\Documents\GitHub\Droid\sekksi2016\tentativa2\consultor.nxc"
12	305	151	#line 305 "C:\Users\luan\Documents\GitHub\Droid\sekksi2016\tentativa2\consultor.nxc"
12	306	151		subret __lerSensor_return
13	309	0	#line 309 "C:\Users\luan\Documents\GitHub\Droid\sekksi2016\tentativa2\consultor.nxc"
13	310	0		mov __D0PegaBoneco, __constValNeg30
13	310	2	#line 310 "C:\Users\luan\Documents\GitHub\Droid\sekksi2016\tentativa2\consultor.nxc"
13	311	2	#pragma macro 7
13	311	2		setout __constVal0, 2, __D0PegaBoneco, 1, __constVal3, 8, __constVal0, 6, __constVal32, 7, __constVal0, 5, __constVal0, 10, __constVal96, 11, __constVal32, 12, __constVal32, 0, __constVal63
13	6091	25	#line 6091 "C:\Users\luan\Documents\GitHub\Droid\sekksi2016\tentativa2\consultor.nxc"
13	310	25	#line 310 "C:\Users\luan\Documents\GitHub\Droid\sekksi2016\tentativa2\consultor.nxc"
13	312	25	#line 312 "C:\Users\luan\Documents\GitHub\Droid\sekksi2016\tentativa2\consultor.nxc"
13	313	25		getout __PegaBoneco_7qG2_tc_7qG2_000, __constVal0, 4
13	312	29	#line 312 "C:\Users\luan\Documents\GitHub\Droid\sekksi2016\tentativa2\consultor.nxc"
13	312	29	#line 312 "C:\Users\luan\Documents\GitHub\Droid\sekksi2016\tentativa2\consultor.nxc"
13	314	29	#line 314 "C:\Users\luan\Documents\GitHub\Droid\sekksi2016\tentativa2\consultor.nxc"
13	315	29		set __Wait_7qG2_ms_7qG2_000_inline_PegaBoneco, 200
13	314	32	#line 314 "C:\Users\luan\Documents\GitHub\Droid\sekksi2016\tentativa2\consultor.nxc"
13	8551	32	#line 8551 "NXCDefs.h"
13	8552	32		wait2 NA, __Wait_7qG2_ms_7qG2_000_inline_PegaBoneco
13	8551	35	#line 8551 "NXCDefs.h"
13	315	35	#line 315 "C:\Users\luan\Documents\GitHub\Droid\sekksi2016\tentativa2\consultor.nxc"
13	316	35	#line 316 "C:\Users\luan\Documents\GitHub\Droid\sekksi2016\tentativa2\consultor.nxc"
13	317	35		mov __PegaBoneco_7qG2_old_tc_7qG2_000, __PegaBoneco_7qG2_tc_7qG2_000
13	316	37	#line 316 "C:\Users\luan\Documents\GitHub\Droid\sekksi2016\tentativa2\consultor.nxc"
13	316	37	#line 316 "C:\Users\luan\Documents\GitHub\Droid\sekksi2016\tentativa2\consultor.nxc"
13	317	37	#line 317 "C:\Users\luan\Documents\GitHub\Droid\sekksi2016\tentativa2\consultor.nxc"
13	318	37		getout __PegaBoneco_7qG2_tc_7qG2_000, __constVal0, 4
13	317	41	#line 317 "C:\Users\luan\Documents\GitHub\Droid\sekksi2016\tentativa2\consultor.nxc"
13	317	41	#line 317 "C:\Users\luan\Documents\GitHub\Droid\sekksi2016\tentativa2\consultor.nxc"
13	317	41	#line 317 "C:\Users\luan\Documents\GitHub\Droid\sekksi2016\tentativa2\consultor.nxc"
13	318	41		mov __signed_stack_001PegaBoneco, __PegaBoneco_7qG2_tc_7qG2_000
13	317	43	#line 317 "C:\Users\luan\Documents\GitHub\Droid\sekksi2016\tentativa2\consultor.nxc"
13	318	43	#line 318 "C:\Users\luan\Documents\GitHub\Droid\sekksi2016\tentativa2\consultor.nxc"
13	319	43		mov __D0PegaBoneco, __constValNeg153
13	318	45	#line 318 "C:\Users\luan\Documents\GitHub\Droid\sekksi2016\tentativa2\consultor.nxc"
13	319	45		cmp 0, __D0PegaBoneco, __signed_stack_001PegaBoneco, __D0PegaBoneco
13	319	49	#line 319 "C:\Users\luan\Documents\GitHub\Droid\sekksi2016\tentativa2\consultor.nxc"
13	320	49		brtst 4, __ASM_Label_665, __D0PegaBoneco
13	319	52	#line 319 "C:\Users\luan\Documents\GitHub\Droid\sekksi2016\tentativa2\consultor.nxc"
13	320	52		set __D0PegaBoneco, 0
13	321	55	#line 321 "C:\Users\luan\Documents\GitHub\Droid\sekksi2016\tentativa2\consultor.nxc"
13	322	55	#pragma macro 7
13	322	55		setout __constVal0, 2, __D0PegaBoneco, 1, __constVal3, 8, __constVal0, 6, __constVal32, 7, __constVal0, 5, __constVal0, 10, __constVal96, 11, __constVal32, 12, __constVal32, 0, __constVal63
13	6144	78	#line 6144 "C:\Users\luan\Documents\GitHub\Droid\sekksi2016\tentativa2\consultor.nxc"
13	321	78	#line 321 "C:\Users\luan\Documents\GitHub\Droid\sekksi2016\tentativa2\consultor.nxc"
13	322	78	#line 322 "C:\Users\luan\Documents\GitHub\Droid\sekksi2016\tentativa2\consultor.nxc"
13	323	78		subcall VoltaGarra, __VoltaGarra_return
13	322	81	#line 322 "C:\Users\luan\Documents\GitHub\Droid\sekksi2016\tentativa2\consultor.nxc"
13	323	81	#line 323 "C:\Users\luan\Documents\GitHub\Droid\sekksi2016\tentativa2\consultor.nxc"
13	324	81		set __D0PegaBoneco, 0
13	323	84	#line 323 "C:\Users\luan\Documents\GitHub\Droid\sekksi2016\tentativa2\consultor.nxc"
13	324	84		subret __PegaBoneco_return
13	323	86	#line 323 "C:\Users\luan\Documents\GitHub\Droid\sekksi2016\tentativa2\consultor.nxc"
13	324	86	#line 324 "C:\Users\luan\Documents\GitHub\Droid\sekksi2016\tentativa2\consultor.nxc"
13	324	86	#line 324 "C:\Users\luan\Documents\GitHub\Droid\sekksi2016\tentativa2\consultor.nxc"
13	325	86		mov __signed_stack_001PegaBoneco, __PegaBoneco_7qG2_tc_7qG2_000
13	324	88	#line 324 "C:\Users\luan\Documents\GitHub\Droid\sekksi2016\tentativa2\consultor.nxc"
13	324	88	#line 324 "C:\Users\luan\Documents\GitHub\Droid\sekksi2016\tentativa2\consultor.nxc"
13	325	88		mov __D0PegaBoneco, __PegaBoneco_7qG2_old_tc_7qG2_000
13	324	90	#line 324 "C:\Users\luan\Documents\GitHub\Droid\sekksi2016\tentativa2\consultor.nxc"
13	325	90		cmp 5, __D0PegaBoneco, __signed_stack_001PegaBoneco, __D0PegaBoneco
13	326	94	#line 326 "C:\Users\luan\Documents\GitHub\Droid\sekksi2016\tentativa2\consultor.nxc"
13	327	94		brtst 4, __ASM_Label_656, __D0PegaBoneco
13	326	97	#line 326 "C:\Users\luan\Documents\GitHub\Droid\sekksi2016\tentativa2\consultor.nxc"
13	327	97		jmp __ASM_Label_655
13	326	99	#line 326 "C:\Users\luan\Documents\GitHub\Droid\sekksi2016\tentativa2\consultor.nxc"
13	326	99	#line 326 "C:\Users\luan\Documents\GitHub\Droid\sekksi2016\tentativa2\consultor.nxc"
13	326	99	#line 326 "C:\Users\luan\Documents\GitHub\Droid\sekksi2016\tentativa2\consultor.nxc"
13	327	99		set __D0PegaBoneco, 0
13	328	102	#line 328 "C:\Users\luan\Documents\GitHub\Droid\sekksi2016\tentativa2\consultor.nxc"
13	329	102	#pragma macro 7
13	329	102		setout __constVal0, 2, __D0PegaBoneco, 1, __constVal3, 8, __constVal0, 6, __constVal32, 7, __constVal0, 5, __constVal0, 10, __constVal96, 11, __constVal32, 12, __constVal32, 0, __constVal63
13	6178	125	#line 6178 "C:\Users\luan\Documents\GitHub\Droid\sekksi2016\tentativa2\consultor.nxc"
13	328	125	#line 328 "C:\Users\luan\Documents\GitHub\Droid\sekksi2016\tentativa2\consultor.nxc"
13	329	125	#line 329 "C:\Users\luan\Documents\GitHub\Droid\sekksi2016\tentativa2\consultor.nxc"
13	330	125		set __D0PegaBoneco, 1
13	329	128	#line 329 "C:\Users\luan\Documents\GitHub\Droid\sekksi2016\tentativa2\consultor.nxc"
13	330	128		subret __PegaBoneco_return
13	329	130	#line 329 "C:\Users\luan\Documents\GitHub\Droid\sekksi2016\tentativa2\consultor.nxc"
13	331	130	#line 331 "C:\Users\luan\Documents\GitHub\Droid\sekksi2016\tentativa2\consultor.nxc"
13	332	130		subret __PegaBoneco_return
14	335	0	#line 335 "C:\Users\luan\Documents\GitHub\Droid\sekksi2016\tentativa2\consultor.nxc"
14	336	0		set __signed_stack_001VoltaGarra, 0
14	335	3	#line 335 "C:\Users\luan\Documents\GitHub\Droid\sekksi2016\tentativa2\consultor.nxc"
14	335	3	#line 335 "C:\Users\luan\Documents\GitHub\Droid\sekksi2016\tentativa2\consultor.nxc"
14	336	3		mov __D0VoltaGarra, __constValNeg30
14	335	5	#line 335 "C:\Users\luan\Documents\GitHub\Droid\sekksi2016\tentativa2\consultor.nxc"
14	336	5		sub __D0VoltaGarra, __signed_stack_001VoltaGarra, __D0VoltaGarra
14	336	9	#line 336 "C:\Users\luan\Documents\GitHub\Droid\sekksi2016\tentativa2\consultor.nxc"
14	337	9	#pragma macro 7
14	337	9		setout __constVal0, 2, __D0VoltaGarra, 1, __constVal3, 8, __constVal0, 6, __constVal32, 7, __constVal0, 5, __constVal0, 10, __constVal96, 11, __constVal32, 12, __constVal32, 0, __constVal63
14	6211	32	#line 6211 "C:\Users\luan\Documents\GitHub\Droid\sekksi2016\tentativa2\consultor.nxc"
14	336	32	#line 336 "C:\Users\luan\Documents\GitHub\Droid\sekksi2016\tentativa2\consultor.nxc"
14	337	32	#line 337 "C:\Users\luan\Documents\GitHub\Droid\sekksi2016\tentativa2\consultor.nxc"
14	338	32		getout __VoltaGarra_7qG2_tc_7qG2_000, __constVal0, 4
14	337	36	#line 337 "C:\Users\luan\Documents\GitHub\Droid\sekksi2016\tentativa2\consultor.nxc"
14	337	36	#line 337 "C:\Users\luan\Documents\GitHub\Droid\sekksi2016\tentativa2\consultor.nxc"
14	339	36	#line 339 "C:\Users\luan\Documents\GitHub\Droid\sekksi2016\tentativa2\consultor.nxc"
14	340	36		set __Wait_7qG2_ms_7qG2_000_inline_VoltaGarra, 200
14	339	39	#line 339 "C:\Users\luan\Documents\GitHub\Droid\sekksi2016\tentativa2\consultor.nxc"
14	8551	39	#line 8551 "NXCDefs.h"
14	8552	39		wait2 NA, __Wait_7qG2_ms_7qG2_000_inline_VoltaGarra
14	8551	42	#line 8551 "NXCDefs.h"
14	340	42	#line 340 "C:\Users\luan\Documents\GitHub\Droid\sekksi2016\tentativa2\consultor.nxc"
14	341	42	#line 341 "C:\Users\luan\Documents\GitHub\Droid\sekksi2016\tentativa2\consultor.nxc"
14	342	42		mov __VoltaGarra_7qG2_old_tc_7qG2_000, __VoltaGarra_7qG2_tc_7qG2_000
14	341	44	#line 341 "C:\Users\luan\Documents\GitHub\Droid\sekksi2016\tentativa2\consultor.nxc"
14	341	44	#line 341 "C:\Users\luan\Documents\GitHub\Droid\sekksi2016\tentativa2\consultor.nxc"
14	342	44	#line 342 "C:\Users\luan\Documents\GitHub\Droid\sekksi2016\tentativa2\consultor.nxc"
14	343	44		getout __VoltaGarra_7qG2_tc_7qG2_000, __constVal0, 4
14	342	48	#line 342 "C:\Users\luan\Documents\GitHub\Droid\sekksi2016\tentativa2\consultor.nxc"
14	342	48	#line 342 "C:\Users\luan\Documents\GitHub\Droid\sekksi2016\tentativa2\consultor.nxc"
14	342	48	#line 342 "C:\Users\luan\Documents\GitHub\Droid\sekksi2016\tentativa2\consultor.nxc"
14	343	48		mov __signed_stack_001VoltaGarra, __VoltaGarra_7qG2_tc_7qG2_000
14	342	50	#line 342 "C:\Users\luan\Documents\GitHub\Droid\sekksi2016\tentativa2\consultor.nxc"
14	342	50	#line 342 "C:\Users\luan\Documents\GitHub\Droid\sekksi2016\tentativa2\consultor.nxc"
14	343	50		mov __D0VoltaGarra, __VoltaGarra_7qG2_old_tc_7qG2_000
14	342	52	#line 342 "C:\Users\luan\Documents\GitHub\Droid\sekksi2016\tentativa2\consultor.nxc"
14	343	52		cmp 5, __D0VoltaGarra, __signed_stack_001VoltaGarra, __D0VoltaGarra
14	344	56	#line 344 "C:\Users\luan\Documents\GitHub\Droid\sekksi2016\tentativa2\consultor.nxc"
14	345	56		brtst 4, __ASM_Label_683, __D0VoltaGarra
14	344	59	#line 344 "C:\Users\luan\Documents\GitHub\Droid\sekksi2016\tentativa2\consultor.nxc"
14	345	59		jmp __ASM_Label_682
14	344	61	#line 344 "C:\Users\luan\Documents\GitHub\Droid\sekksi2016\tentativa2\consultor.nxc"
14	344	61	#line 344 "C:\Users\luan\Documents\GitHub\Droid\sekksi2016\tentativa2\consultor.nxc"
14	344	61	#line 344 "C:\Users\luan\Documents\GitHub\Droid\sekksi2016\tentativa2\consultor.nxc"
14	345	61		set __D0VoltaGarra, 0
14	345	64	#line 345 "C:\Users\luan\Documents\GitHub\Droid\sekksi2016\tentativa2\consultor.nxc"
14	346	64	#pragma macro 7
14	346	64		setout __constVal0, 2, __D0VoltaGarra, 1, __constVal3, 8, __constVal0, 6, __constVal32, 7, __constVal0, 5, __constVal0, 10, __constVal96, 11, __constVal32, 12, __constVal32, 0, __constVal63
14	6269	87	#line 6269 "C:\Users\luan\Documents\GitHub\Droid\sekksi2016\tentativa2\consultor.nxc"
14	345	87	#line 345 "C:\Users\luan\Documents\GitHub\Droid\sekksi2016\tentativa2\consultor.nxc"
14	347	87	#line 347 "C:\Users\luan\Documents\GitHub\Droid\sekksi2016\tentativa2\consultor.nxc"
14	348	87		subret __VoltaGarra_return
15	351	0	#line 351 "C:\Users\luan\Documents\GitHub\Droid\sekksi2016\tentativa2\consultor.nxc"
15	352	0		set __lerSensor_7qG2_sensor_7qG2_000, 2
15	351	3	#line 351 "C:\Users\luan\Documents\GitHub\Droid\sekksi2016\tentativa2\consultor.nxc"
15	353	3	#line 353 "C:\Users\luan\Documents\GitHub\Droid\sekksi2016\tentativa2\consultor.nxc"
15	354	3		subcall lerSensor, __lerSensor_return
15	353	5	#line 353 "C:\Users\luan\Documents\GitHub\Droid\sekksi2016\tentativa2\consultor.nxc"
15	354	5		mov __CorBoneco_7qG2_leitura_7qG2_000, __D0lerSensor
15	353	7	#line 353 "C:\Users\luan\Documents\GitHub\Droid\sekksi2016\tentativa2\consultor.nxc"
15	353	7	#line 353 "C:\Users\luan\Documents\GitHub\Droid\sekksi2016\tentativa2\consultor.nxc"
15	353	7	#line 353 "C:\Users\luan\Documents\GitHub\Droid\sekksi2016\tentativa2\consultor.nxc"
15	354	7		mov __signed_stack_001CorBoneco, __CorBoneco_7qG2_leitura_7qG2_000
15	353	9	#line 353 "C:\Users\luan\Documents\GitHub\Droid\sekksi2016\tentativa2\consultor.nxc"
15	353	9	#line 353 "C:\Users\luan\Documents\GitHub\Droid\sekksi2016\tentativa2\consultor.nxc"
15	354	9		set __D0CorBoneco, 600
15	353	12	#line 353 "C:\Users\luan\Documents\GitHub\Droid\sekksi2016\tentativa2\consultor.nxc"
15	354	12		cmp 0, __D0CorBoneco, __signed_stack_001CorBoneco, __D0CorBoneco
15	353	16	#line 353 "C:\Users\luan\Documents\GitHub\Droid\sekksi2016\tentativa2\consultor.nxc"
15	354	16		brtst 4, __ASM_Label_699, __D0CorBoneco
15	353	19	#line 353 "C:\Users\luan\Documents\GitHub\Droid\sekksi2016\tentativa2\consultor.nxc"
15	354	19		mov __signed_stack_001CorBoneco, __CorBoneco_7qG2_leitura_7qG2_000
15	353	21	#line 353 "C:\Users\luan\Documents\GitHub\Droid\sekksi2016\tentativa2\consultor.nxc"
15	353	21	#line 353 "C:\Users\luan\Documents\GitHub\Droid\sekksi2016\tentativa2\consultor.nxc"
15	354	21		set __D0CorBoneco, 250
15	353	24	#line 353 "C:\Users\luan\Documents\GitHub\Droid\sekksi2016\tentativa2\consultor.nxc"
15	354	24		cmp 1, __D0CorBoneco, __signed_stack_001CorBoneco, __D0CorBoneco
15	355	28	#line 355 "C:\Users\luan\Documents\GitHub\Droid\sekksi2016\tentativa2\consultor.nxc"
15	356	28		brtst 4, __ASM_Label_704, __D0CorBoneco
15	356	31	#line 356 "C:\Users\luan\Documents\GitHub\Droid\sekksi2016\tentativa2\consultor.nxc"
15	357	31		set __D0CorBoneco, 1
15	356	34	#line 356 "C:\Users\luan\Documents\GitHub\Droid\sekksi2016\tentativa2\consultor.nxc"
15	357	34		subret __CorBoneco_return
15	356	36	#line 356 "C:\Users\luan\Documents\GitHub\Droid\sekksi2016\tentativa2\consultor.nxc"
15	357	36	#line 357 "C:\Users\luan\Documents\GitHub\Droid\sekksi2016\tentativa2\consultor.nxc"
15	357	36	#line 357 "C:\Users\luan\Documents\GitHub\Droid\sekksi2016\tentativa2\consultor.nxc"
15	358	36		mov __signed_stack_001CorBoneco, __CorBoneco_7qG2_leitura_7qG2_000
15	357	38	#line 357 "C:\Users\luan\Documents\GitHub\Droid\sekksi2016\tentativa2\consultor.nxc"
15	357	38	#line 357 "C:\Users\luan\Documents\GitHub\Droid\sekksi2016\tentativa2\consultor.nxc"
15	358	38		set __D0CorBoneco, 250
15	357	41	#line 357 "C:\Users\luan\Documents\GitHub\Droid\sekksi2016\tentativa2\consultor.nxc"
15	358	41		cmp 0, __D0CorBoneco, __signed_stack_001CorBoneco, __D0CorBoneco
15	357	45	#line 357 "C:\Users\luan\Documents\GitHub\Droid\sekksi2016\tentativa2\consultor.nxc"
15	358	45		brtst 4, __ASM_Label_708, __D0CorBoneco
15	357	48	#line 357 "C:\Users\luan\Documents\GitHub\Droid\sekksi2016\tentativa2\consultor.nxc"
15	358	48		mov __signed_stack_001CorBoneco, __CorBoneco_7qG2_leitura_7qG2_000
15	357	50	#line 357 "C:\Users\luan\Documents\GitHub\Droid\sekksi2016\tentativa2\consultor.nxc"
15	357	50	#line 357 "C:\Users\luan\Documents\GitHub\Droid\sekksi2016\tentativa2\consultor.nxc"
15	358	50		set __D0CorBoneco, 10
15	357	53	#line 357 "C:\Users\luan\Documents\GitHub\Droid\sekksi2016\tentativa2\consultor.nxc"
15	358	53		cmp 1, __D0CorBoneco, __signed_stack_001CorBoneco, __D0CorBoneco
15	358	57	#line 358 "C:\Users\luan\Documents\GitHub\Droid\sekksi2016\tentativa2\consultor.nxc"
15	359	57		brtst 4, __ASM_Label_713, __D0CorBoneco
15	359	60	#line 359 "C:\Users\luan\Documents\GitHub\Droid\sekksi2016\tentativa2\consultor.nxc"
15	360	60		set __D0CorBoneco, 2
15	359	63	#line 359 "C:\Users\luan\Documents\GitHub\Droid\sekksi2016\tentativa2\consultor.nxc"
15	360	63		subret __CorBoneco_return
15	359	65	#line 359 "C:\Users\luan\Documents\GitHub\Droid\sekksi2016\tentativa2\consultor.nxc"
15	359	65	#line 359 "C:\Users\luan\Documents\GitHub\Droid\sekksi2016\tentativa2\consultor.nxc"
15	359	65	#line 359 "C:\Users\luan\Documents\GitHub\Droid\sekksi2016\tentativa2\consultor.nxc"
15	360	65		mov __signed_stack_001CorBoneco, __CorBoneco_7qG2_leitura_7qG2_000
15	359	67	#line 359 "C:\Users\luan\Documents\GitHub\Droid\sekksi2016\tentativa2\consultor.nxc"
15	359	67	#line 359 "C:\Users\luan\Documents\GitHub\Droid\sekksi2016\tentativa2\consultor.nxc"
15	360	67		set __D0CorBoneco, 168
15	359	70	#line 359 "C:\Users\luan\Documents\GitHub\Droid\sekksi2016\tentativa2\consultor.nxc"
15	360	70		cmp 0, __D0CorBoneco, __signed_stack_001CorBoneco, __D0CorBoneco
15	359	74	#line 359 "C:\Users\luan\Documents\GitHub\Droid\sekksi2016\tentativa2\consultor.nxc"
15	360	74		brtst 4, __ASM_Label_717, __D0CorBoneco
15	359	77	#line 359 "C:\Users\luan\Documents\GitHub\Droid\sekksi2016\tentativa2\consultor.nxc"
15	360	77		mov __signed_stack_001CorBoneco, __CorBoneco_7qG2_leitura_7qG2_000
15	359	79	#line 359 "C:\Users\luan\Documents\GitHub\Droid\sekksi2016\tentativa2\consultor.nxc"
15	359	79	#line 359 "C:\Users\luan\Documents\GitHub\Droid\sekksi2016\tentativa2\consultor.nxc"
15	360	79		set __D0CorBoneco, 78
15	359	82	#line 359 "C:\Users\luan\Documents\GitHub\Droid\sekksi2016\tentativa2\consultor.nxc"
15	360	82		cmp 1, __D0CorBoneco, __signed_stack_001CorBoneco, __D0CorBoneco
15	360	86	#line 360 "C:\Users\luan\Documents\GitHub\Droid\sekksi2016\tentativa2\consultor.nxc"
15	361	86		brtst 4, __ASM_Label_722, __D0CorBoneco
15	361	89	#line 361 "C:\Users\luan\Documents\GitHub\Droid\sekksi2016\tentativa2\consultor.nxc"
15	362	89		set __D0CorBoneco, 3
15	361	92	#line 361 "C:\Users\luan\Documents\GitHub\Droid\sekksi2016\tentativa2\consultor.nxc"
15	362	92		subret __CorBoneco_return
15	361	94	#line 361 "C:\Users\luan\Documents\GitHub\Droid\sekksi2016\tentativa2\consultor.nxc"
15	363	94	#line 363 "C:\Users\luan\Documents\GitHub\Droid\sekksi2016\tentativa2\consultor.nxc"
15	363	94	#line 363 "C:\Users\luan\Documents\GitHub\Droid\sekksi2016\tentativa2\consultor.nxc"
15	364	94		subret __CorBoneco_return
16	364	0	#line 364 "C:\Users\luan\Documents\GitHub\Droid\sekksi2016\tentativa2\consultor.nxc"
16	365	0		getout __signed_stack_001Pega, __constVal0, 4
16	364	4	#line 364 "C:\Users\luan\Documents\GitHub\Droid\sekksi2016\tentativa2\consultor.nxc"
16	365	4	#line 365 "C:\Users\luan\Documents\GitHub\Droid\sekksi2016\tentativa2\consultor.nxc"
16	366	4		set __D0Pega, 0
16	365	7	#line 365 "C:\Users\luan\Documents\GitHub\Droid\sekksi2016\tentativa2\consultor.nxc"
16	366	7		cmp 5, __D0Pega, __signed_stack_001Pega, __D0Pega
16	366	11	#line 366 "C:\Users\luan\Documents\GitHub\Droid\sekksi2016\tentativa2\consultor.nxc"
16	367	11		brtst 4, __ASM_Label_726, __D0Pega
16	367	14	#line 367 "C:\Users\luan\Documents\GitHub\Droid\sekksi2016\tentativa2\consultor.nxc"
16	368	14	#pragma macro 7
16	368	14		setout __constVal0, 0, __constVal8
16	6425	19	#line 6425 "C:\Users\luan\Documents\GitHub\Droid\sekksi2016\tentativa2\consultor.nxc"
16	367	19	#line 367 "C:\Users\luan\Documents\GitHub\Droid\sekksi2016\tentativa2\consultor.nxc"
16	368	19	#line 368 "C:\Users\luan\Documents\GitHub\Droid\sekksi2016\tentativa2\consultor.nxc"
16	369	19		jmp __ASM_Label_725
16	368	21	#line 368 "C:\Users\luan\Documents\GitHub\Droid\sekksi2016\tentativa2\consultor.nxc"
16	368	21	#line 368 "C:\Users\luan\Documents\GitHub\Droid\sekksi2016\tentativa2\consultor.nxc"
16	369	21		mov __D0Pega, __constValNeg70
16	369	23	#line 369 "C:\Users\luan\Documents\GitHub\Droid\sekksi2016\tentativa2\consultor.nxc"
16	370	23	#pragma macro 7
16	370	23		setout __constVal0, 2, __D0Pega, 1, __constVal3, 8, __constVal0, 6, __constVal32, 7, __constVal0, 5, __constVal0, 10, __constVal96, 11, __constVal32, 12, __constVal32, 0, __constVal63
16	6434	46	#line 6434 "C:\Users\luan\Documents\GitHub\Droid\sekksi2016\tentativa2\consultor.nxc"
16	369	46	#line 369 "C:\Users\luan\Documents\GitHub\Droid\sekksi2016\tentativa2\consultor.nxc"
16	369	46	#line 369 "C:\Users\luan\Documents\GitHub\Droid\sekksi2016\tentativa2\consultor.nxc"
16	370	46		getout __signed_stack_001Pega, __constVal0, 4
16	369	50	#line 369 "C:\Users\luan\Documents\GitHub\Droid\sekksi2016\tentativa2\consultor.nxc"
16	369	50	#line 369 "C:\Users\luan\Documents\GitHub\Droid\sekksi2016\tentativa2\consultor.nxc"
16	370	50		mov __D0Pega, __constValNeg110
16	369	52	#line 369 "C:\Users\luan\Documents\GitHub\Droid\sekksi2016\tentativa2\consultor.nxc"
16	370	52		cmp 1, __D0Pega, __signed_stack_001Pega, __D0Pega
16	370	56	#line 370 "C:\Users\luan\Documents\GitHub\Droid\sekksi2016\tentativa2\consultor.nxc"
16	371	56		brtst 4, __ASM_Label_732, __D0Pega
16	370	59	#line 370 "C:\Users\luan\Documents\GitHub\Droid\sekksi2016\tentativa2\consultor.nxc"
16	370	59	#line 370 "C:\Users\luan\Documents\GitHub\Droid\sekksi2016\tentativa2\consultor.nxc"
16	371	59		jmp __ASM_Label_731
16	370	61	#line 370 "C:\Users\luan\Documents\GitHub\Droid\sekksi2016\tentativa2\consultor.nxc"
16	371	61	#line 371 "C:\Users\luan\Documents\GitHub\Droid\sekksi2016\tentativa2\consultor.nxc"
16	372	61	#pragma macro 7
16	372	61		setout __constVal0, 2, __constVal0, 1, __constVal3, 8, __constVal0, 6, __constVal32, 7, __constVal0, 5, __constVal0, 10, __constVal96, 11, __constVal32, 12, __constVal32, 0, __constVal63
16	6457	84	#line 6457 "C:\Users\luan\Documents\GitHub\Droid\sekksi2016\tentativa2\consultor.nxc"
16	371	84	#line 371 "C:\Users\luan\Documents\GitHub\Droid\sekksi2016\tentativa2\consultor.nxc"
16	372	84	#line 372 "C:\Users\luan\Documents\GitHub\Droid\sekksi2016\tentativa2\consultor.nxc"
16	373	84		subcall MandaPeguei, __MandaPeguei_return
16	372	86	#line 372 "C:\Users\luan\Documents\GitHub\Droid\sekksi2016\tentativa2\consultor.nxc"
16	372	86	#line 372 "C:\Users\luan\Documents\GitHub\Droid\sekksi2016\tentativa2\consultor.nxc"
16	373	86		set __Wait_7qG2_ms_7qG2_000_inline_Pega, 200
16	372	89	#line 372 "C:\Users\luan\Documents\GitHub\Droid\sekksi2016\tentativa2\consultor.nxc"
16	8551	89	#line 8551 "NXCDefs.h"
16	8552	89		wait2 NA, __Wait_7qG2_ms_7qG2_000_inline_Pega
16	8551	92	#line 8551 "NXCDefs.h"
16	373	92	#line 373 "C:\Users\luan\Documents\GitHub\Droid\sekksi2016\tentativa2\consultor.nxc"
16	374	92	#line 374 "C:\Users\luan\Documents\GitHub\Droid\sekksi2016\tentativa2\consultor.nxc"
16	375	92		subcall VoltaGarra, __VoltaGarra_return
16	374	95	#line 374 "C:\Users\luan\Documents\GitHub\Droid\sekksi2016\tentativa2\consultor.nxc"
16	376	95	#line 376 "C:\Users\luan\Documents\GitHub\Droid\sekksi2016\tentativa2\consultor.nxc"
16	377	95		subret __Pega_return
17	378	0	#line 378 "C:\Users\luan\Documents\GitHub\Droid\sekksi2016\tentativa2\consultor.nxc"
17	379	0	#pragma macro 14
17	379	0		acquire __RemoteMutex
17	379	1		mov __SRSTmpBuf, __DCMessageWritePacket
17	379	3		replace __SRSTmpBuf, __SRSTmpBuf, __constVal2, __constVal1
17	379	8		replace __SRSTmpBuf, __SRSTmpBuf, __constVal3, __constVal5
17	379	13		mov __SRSTmpLongVal, __constVal1
17	379	15		flatten __SRSFlattenBuf, __SRSTmpLongVal
17	379	18		arrbuild __SRSSendBuf, __SRSTmpBuf, __SRSFlattenBuf
17	379	23		acquire __CBTWMutex
17	379	24		mov __CBTWArgs.Connection, __constVal0
17	379	26		mov __CBTWArgs.Buffer, __SRSSendBuf
17	379	28		syscall 29, __CBTWArgs
17	379	31		release __CBTWMutex
17	379	32		release __RemoteMutex
17	6483	33	#line 6483 "C:\Users\luan\Documents\GitHub\Droid\sekksi2016\tentativa2\consultor.nxc"
17	378	33	#line 378 "C:\Users\luan\Documents\GitHub\Droid\sekksi2016\tentativa2\consultor.nxc"
17	378	33	#line 378 "C:\Users\luan\Documents\GitHub\Droid\sekksi2016\tentativa2\consultor.nxc"
17	381	33	#line 381 "C:\Users\luan\Documents\GitHub\Droid\sekksi2016\tentativa2\consultor.nxc"
17	382	33		subret __MandarParar_return
18	383	0	#line 383 "C:\Users\luan\Documents\GitHub\Droid\sekksi2016\tentativa2\consultor.nxc"
18	384	0	#pragma macro 14
18	384	0		acquire __RemoteMutex
18	384	1		mov __SRSTmpBuf, __DCMessageWritePacket
18	384	3		replace __SRSTmpBuf, __SRSTmpBuf, __constVal2, __constVal1
18	384	8		replace __SRSTmpBuf, __SRSTmpBuf, __constVal3, __constVal5
18	384	13		mov __SRSTmpLongVal, __constVal2
18	384	15		flatten __SRSFlattenBuf, __SRSTmpLongVal
18	384	18		arrbuild __SRSSendBuf, __SRSTmpBuf, __SRSFlattenBuf
18	384	23		acquire __CBTWMutex
18	384	24		mov __CBTWArgs.Connection, __constVal0
18	384	26		mov __CBTWArgs.Buffer, __SRSSendBuf
18	384	28		syscall 29, __CBTWArgs
18	384	31		release __CBTWMutex
18	384	32		release __RemoteMutex
18	6492	33	#line 6492 "C:\Users\luan\Documents\GitHub\Droid\sekksi2016\tentativa2\consultor.nxc"
18	383	33	#line 383 "C:\Users\luan\Documents\GitHub\Droid\sekksi2016\tentativa2\consultor.nxc"
18	383	33	#line 383 "C:\Users\luan\Documents\GitHub\Droid\sekksi2016\tentativa2\consultor.nxc"
18	386	33	#line 386 "C:\Users\luan\Documents\GitHub\Droid\sekksi2016\tentativa2\consultor.nxc"
18	387	33		subret __MandarSeguir_return
19	388	0	#line 388 "C:\Users\luan\Documents\GitHub\Droid\sekksi2016\tentativa2\consultor.nxc"
19	389	0		set __PlaySound_7qG2_aCode_7qG2_000, 3
19	388	3	#line 388 "C:\Users\luan\Documents\GitHub\Droid\sekksi2016\tentativa2\consultor.nxc"
19	389	3	#line 389 "C:\Users\luan\Documents\GitHub\Droid\sekksi2016\tentativa2\consultor.nxc"
19	390	3		subcall PlaySound, __PlaySound_return
19	389	6	#line 389 "C:\Users\luan\Documents\GitHub\Droid\sekksi2016\tentativa2\consultor.nxc"
19	389	6	#line 389 "C:\Users\luan\Documents\GitHub\Droid\sekksi2016\tentativa2\consultor.nxc"
19	390	6		set __PlaySound_7qG2_aCode_7qG2_000, 2
19	389	9	#line 389 "C:\Users\luan\Documents\GitHub\Droid\sekksi2016\tentativa2\consultor.nxc"
19	390	9	#line 390 "C:\Users\luan\Documents\GitHub\Droid\sekksi2016\tentativa2\consultor.nxc"
19	391	9		subcall PlaySound, __PlaySound_return
19	390	12	#line 390 "C:\Users\luan\Documents\GitHub\Droid\sekksi2016\tentativa2\consultor.nxc"
19	392	12	#line 392 "C:\Users\luan\Documents\GitHub\Droid\sekksi2016\tentativa2\consultor.nxc"
19	393	12		subret __BipBranco_return
20	395	0	#line 395 "C:\Users\luan\Documents\GitHub\Droid\sekksi2016\tentativa2\consultor.nxc"
20	396	0		set __PlaySound_7qG2_aCode_7qG2_000, 2
20	395	3	#line 395 "C:\Users\luan\Documents\GitHub\Droid\sekksi2016\tentativa2\consultor.nxc"
20	396	3	#line 396 "C:\Users\luan\Documents\GitHub\Droid\sekksi2016\tentativa2\consultor.nxc"
20	397	3		subcall PlaySound, __PlaySound_return
20	396	6	#line 396 "C:\Users\luan\Documents\GitHub\Droid\sekksi2016\tentativa2\consultor.nxc"
20	396	6	#line 396 "C:\Users\luan\Documents\GitHub\Droid\sekksi2016\tentativa2\consultor.nxc"
20	397	6		set __PlaySound_7qG2_aCode_7qG2_000, 3
20	396	9	#line 396 "C:\Users\luan\Documents\GitHub\Droid\sekksi2016\tentativa2\consultor.nxc"
20	397	9	#line 397 "C:\Users\luan\Documents\GitHub\Droid\sekksi2016\tentativa2\consultor.nxc"
20	398	9		subcall PlaySound, __PlaySound_return
20	397	12	#line 397 "C:\Users\luan\Documents\GitHub\Droid\sekksi2016\tentativa2\consultor.nxc"
20	399	12	#line 399 "C:\Users\luan\Documents\GitHub\Droid\sekksi2016\tentativa2\consultor.nxc"
20	400	12		subret __BipPreto_return
21	405	0	#line 405 "C:\Users\luan\Documents\GitHub\Droid\sekksi2016\tentativa2\consultor.nxc"
21	406	0		subcall MandarParar, __MandarParar_return
21	405	2	#line 405 "C:\Users\luan\Documents\GitHub\Droid\sekksi2016\tentativa2\consultor.nxc"
21	406	2	#line 406 "C:\Users\luan\Documents\GitHub\Droid\sekksi2016\tentativa2\consultor.nxc"
21	407	2		subcall PegaBoneco, __PegaBoneco_return
21	406	4	#line 406 "C:\Users\luan\Documents\GitHub\Droid\sekksi2016\tentativa2\consultor.nxc"
21	407	4		mov __D0BonecoNaFrente, __D0PegaBoneco
21	407	6	#line 407 "C:\Users\luan\Documents\GitHub\Droid\sekksi2016\tentativa2\consultor.nxc"
21	408	6		tst 5, __D0BonecoNaFrente, __D0BonecoNaFrente
21	407	9	#line 407 "C:\Users\luan\Documents\GitHub\Droid\sekksi2016\tentativa2\consultor.nxc"
21	408	9		brtst 4, __ASM_Label_749, __D0BonecoNaFrente
21	410	12	#line 410 "C:\Users\luan\Documents\GitHub\Droid\sekksi2016\tentativa2\consultor.nxc"
21	411	12		subcall CorBoneco, __CorBoneco_return
21	410	14	#line 410 "C:\Users\luan\Documents\GitHub\Droid\sekksi2016\tentativa2\consultor.nxc"
21	411	14		mov __BonecoNaFrente_7qG2_cor_7qG2_000, __D0CorBoneco
21	410	16	#line 410 "C:\Users\luan\Documents\GitHub\Droid\sekksi2016\tentativa2\consultor.nxc"
21	410	16	#line 410 "C:\Users\luan\Documents\GitHub\Droid\sekksi2016\tentativa2\consultor.nxc"
21	410	16	#line 410 "C:\Users\luan\Documents\GitHub\Droid\sekksi2016\tentativa2\consultor.nxc"
21	411	16		mov __signed_stack_001BonecoNaFrente, __BonecoNaFrente_7qG2_cor_7qG2_000
21	410	18	#line 410 "C:\Users\luan\Documents\GitHub\Droid\sekksi2016\tentativa2\consultor.nxc"
21	411	18	#line 411 "C:\Users\luan\Documents\GitHub\Droid\sekksi2016\tentativa2\consultor.nxc"
21	412	18		mov __D0BonecoNaFrente, bonecoAlvo
21	411	20	#line 411 "C:\Users\luan\Documents\GitHub\Droid\sekksi2016\tentativa2\consultor.nxc"
21	412	20		cmp 4, __D0BonecoNaFrente, __signed_stack_001BonecoNaFrente, __D0BonecoNaFrente
21	412	24	#line 412 "C:\Users\luan\Documents\GitHub\Droid\sekksi2016\tentativa2\consultor.nxc"
21	413	24		brtst 4, __ASM_Label_754, __D0BonecoNaFrente
21	412	27	#line 412 "C:\Users\luan\Documents\GitHub\Droid\sekksi2016\tentativa2\consultor.nxc"
21	413	27		mov __signed_stack_001BonecoNaFrente, BonecosCapturados
21	412	29	#line 412 "C:\Users\luan\Documents\GitHub\Droid\sekksi2016\tentativa2\consultor.nxc"
21	413	29	#line 413 "C:\Users\luan\Documents\GitHub\Droid\sekksi2016\tentativa2\consultor.nxc"
21	414	29		set __D0BonecoNaFrente, 3
21	413	32	#line 413 "C:\Users\luan\Documents\GitHub\Droid\sekksi2016\tentativa2\consultor.nxc"
21	414	32		cmp 4, __D0BonecoNaFrente, __signed_stack_001BonecoNaFrente, __D0BonecoNaFrente
21	414	36	#line 414 "C:\Users\luan\Documents\GitHub\Droid\sekksi2016\tentativa2\consultor.nxc"
21	415	36		brtst 4, __ASM_Label_757, __D0BonecoNaFrente
21	415	39	#line 415 "C:\Users\luan\Documents\GitHub\Droid\sekksi2016\tentativa2\consultor.nxc"
21	416	39		subcall LevantaBoneco, __LevantaBoneco_return
21	415	41	#line 415 "C:\Users\luan\Documents\GitHub\Droid\sekksi2016\tentativa2\consultor.nxc"
21	415	41	#line 415 "C:\Users\luan\Documents\GitHub\Droid\sekksi2016\tentativa2\consultor.nxc"
21	416	41		set __nbip_7qG2_n_7qG2_000, 4
21	415	44	#line 415 "C:\Users\luan\Documents\GitHub\Droid\sekksi2016\tentativa2\consultor.nxc"
21	416	44	#line 416 "C:\Users\luan\Documents\GitHub\Droid\sekksi2016\tentativa2\consultor.nxc"
21	417	44		subcall nbip, __nbip_return
21	416	47	#line 416 "C:\Users\luan\Documents\GitHub\Droid\sekksi2016\tentativa2\consultor.nxc"
21	417	47	#line 417 "C:\Users\luan\Documents\GitHub\Droid\sekksi2016\tentativa2\consultor.nxc"
21	418	47		subcall MandaCheio, __MandaCheio_return
21	417	49	#line 417 "C:\Users\luan\Documents\GitHub\Droid\sekksi2016\tentativa2\consultor.nxc"
21	417	49	#line 417 "C:\Users\luan\Documents\GitHub\Droid\sekksi2016\tentativa2\consultor.nxc"
21	418	49		set __D0BonecoNaFrente, 1
21	418	52	#line 418 "C:\Users\luan\Documents\GitHub\Droid\sekksi2016\tentativa2\consultor.nxc"
21	419	52		tst 5, __D0BonecoNaFrente, __D0BonecoNaFrente
21	418	55	#line 418 "C:\Users\luan\Documents\GitHub\Droid\sekksi2016\tentativa2\consultor.nxc"
21	419	55		brtst 4, __ASM_Label_761, __D0BonecoNaFrente
21	419	58	#line 419 "C:\Users\luan\Documents\GitHub\Droid\sekksi2016\tentativa2\consultor.nxc"
21	420	58		subcall MandaUs, __MandaUs_return
21	419	61	#line 419 "C:\Users\luan\Documents\GitHub\Droid\sekksi2016\tentativa2\consultor.nxc"
21	421	61	#line 421 "C:\Users\luan\Documents\GitHub\Droid\sekksi2016\tentativa2\consultor.nxc"
21	422	61		jmp __ASM_Label_760
21	421	63	#line 421 "C:\Users\luan\Documents\GitHub\Droid\sekksi2016\tentativa2\consultor.nxc"
21	423	63	#line 423 "C:\Users\luan\Documents\GitHub\Droid\sekksi2016\tentativa2\consultor.nxc"
21	424	63		jmp __ASM_Label_764
21	424	65	#line 424 "C:\Users\luan\Documents\GitHub\Droid\sekksi2016\tentativa2\consultor.nxc"
21	425	65		subcall Pega, __Pega_return
21	424	67	#line 424 "C:\Users\luan\Documents\GitHub\Droid\sekksi2016\tentativa2\consultor.nxc"
21	425	67	#line 425 "C:\Users\luan\Documents\GitHub\Droid\sekksi2016\tentativa2\consultor.nxc"
21	426	67		subcall MandarSeguir, __MandarSeguir_return
21	425	69	#line 425 "C:\Users\luan\Documents\GitHub\Droid\sekksi2016\tentativa2\consultor.nxc"
21	426	69	#line 426 "C:\Users\luan\Documents\GitHub\Droid\sekksi2016\tentativa2\consultor.nxc"
21	427	69		add BonecosCapturados, BonecosCapturados, __constVal1
21	426	73	#line 426 "C:\Users\luan\Documents\GitHub\Droid\sekksi2016\tentativa2\consultor.nxc"
21	426	73	#line 426 "C:\Users\luan\Documents\GitHub\Droid\sekksi2016\tentativa2\consultor.nxc"
21	427	73		mov __nbip_7qG2_n_7qG2_000, BonecosCapturados
21	426	75	#line 426 "C:\Users\luan\Documents\GitHub\Droid\sekksi2016\tentativa2\consultor.nxc"
21	427	75	#line 427 "C:\Users\luan\Documents\GitHub\Droid\sekksi2016\tentativa2\consultor.nxc"
21	428	75		subcall nbip, __nbip_return
21	427	78	#line 427 "C:\Users\luan\Documents\GitHub\Droid\sekksi2016\tentativa2\consultor.nxc"
21	429	78	#line 429 "C:\Users\luan\Documents\GitHub\Droid\sekksi2016\tentativa2\consultor.nxc"
21	429	78	#line 429 "C:\Users\luan\Documents\GitHub\Droid\sekksi2016\tentativa2\consultor.nxc"
21	430	78		jmp __ASM_Label_767
21	429	80	#line 429 "C:\Users\luan\Documents\GitHub\Droid\sekksi2016\tentativa2\consultor.nxc"
21	430	80		mov __signed_stack_001BonecoNaFrente, __BonecoNaFrente_7qG2_cor_7qG2_000
21	429	82	#line 429 "C:\Users\luan\Documents\GitHub\Droid\sekksi2016\tentativa2\consultor.nxc"
21	430	82	#line 430 "C:\Users\luan\Documents\GitHub\Droid\sekksi2016\tentativa2\consultor.nxc"
21	431	82		mov __D0BonecoNaFrente, bonecoNaoAlvo
21	430	84	#line 430 "C:\Users\luan\Documents\GitHub\Droid\sekksi2016\tentativa2\consultor.nxc"
21	431	84		cmp 4, __D0BonecoNaFrente, __signed_stack_001BonecoNaFrente, __D0BonecoNaFrente
21	433	88	#line 433 "C:\Users\luan\Documents\GitHub\Droid\sekksi2016\tentativa2\consultor.nxc"
21	434	88		brtst 4, __ASM_Label_770, __D0BonecoNaFrente
21	434	91	#line 434 "C:\Users\luan\Documents\GitHub\Droid\sekksi2016\tentativa2\consultor.nxc"
21	435	91		subcall Rejeita, __Rejeita_return
21	434	93	#line 434 "C:\Users\luan\Documents\GitHub\Droid\sekksi2016\tentativa2\consultor.nxc"
21	435	93	#line 435 "C:\Users\luan\Documents\GitHub\Droid\sekksi2016\tentativa2\consultor.nxc"
21	436	93		jmp __ASM_Label_771
21	435	95	#line 435 "C:\Users\luan\Documents\GitHub\Droid\sekksi2016\tentativa2\consultor.nxc"
21	436	95		mov __signed_stack_001BonecoNaFrente, __BonecoNaFrente_7qG2_cor_7qG2_000
21	435	97	#line 435 "C:\Users\luan\Documents\GitHub\Droid\sekksi2016\tentativa2\consultor.nxc"
21	436	97	#line 436 "C:\Users\luan\Documents\GitHub\Droid\sekksi2016\tentativa2\consultor.nxc"
21	437	97		set __D0BonecoNaFrente, 3
21	436	100	#line 436 "C:\Users\luan\Documents\GitHub\Droid\sekksi2016\tentativa2\consultor.nxc"
21	437	100		cmp 4, __D0BonecoNaFrente, __signed_stack_001BonecoNaFrente, __D0BonecoNaFrente
21	439	104	#line 439 "C:\Users\luan\Documents\GitHub\Droid\sekksi2016\tentativa2\consultor.nxc"
21	440	104		brtst 4, __ASM_Label_774, __D0BonecoNaFrente
21	441	107	#line 441 "C:\Users\luan\Documents\GitHub\Droid\sekksi2016\tentativa2\consultor.nxc"
21	442	107		subcall Rejeita, __Rejeita_return
21	441	109	#line 441 "C:\Users\luan\Documents\GitHub\Droid\sekksi2016\tentativa2\consultor.nxc"
21	444	109	#line 444 "C:\Users\luan\Documents\GitHub\Droid\sekksi2016\tentativa2\consultor.nxc"
21	445	109		jmp __ASM_Label_775
21	445	111	#line 445 "C:\Users\luan\Documents\GitHub\Droid\sekksi2016\tentativa2\consultor.nxc"
21	446	111		subcall bip, __bip_return
21	445	114	#line 445 "C:\Users\luan\Documents\GitHub\Droid\sekksi2016\tentativa2\consultor.nxc"
21	447	114	#line 447 "C:\Users\luan\Documents\GitHub\Droid\sekksi2016\tentativa2\consultor.nxc"
21	448	114		subcall bip, __bip_return
21	447	117	#line 447 "C:\Users\luan\Documents\GitHub\Droid\sekksi2016\tentativa2\consultor.nxc"
21	6678	117	#line 6678 "NXCDefs.h"
21	6679	117	#pragma macro 6
21	6679	117		mov __PointOutArgs.Location.X, __constVal200
21	6679	119		mov __PointOutArgs.Location.Y, __constVal200
21	6679	121		mov __PointOutArgs.Options, __constVal1
21	6679	123		syscall 14, __PointOutArgs
21	6692	126	#line 6692 "NXCDefs.h"
21	6678	126	#line 6678 "NXCDefs.h"
21	448	126	#line 448 "C:\Users\luan\Documents\GitHub\Droid\sekksi2016\tentativa2\consultor.nxc"
21	448	126	#line 448 "C:\Users\luan\Documents\GitHub\Droid\sekksi2016\tentativa2\consultor.nxc"
21	449	126		set __signed_stack_001BonecoNaFrente, 0
21	448	129	#line 448 "C:\Users\luan\Documents\GitHub\Droid\sekksi2016\tentativa2\consultor.nxc"
21	448	129	#line 448 "C:\Users\luan\Documents\GitHub\Droid\sekksi2016\tentativa2\consultor.nxc"
21	449	129		set __signed_stack_002BonecoNaFrente, 56
21	448	132	#line 448 "C:\Users\luan\Documents\GitHub\Droid\sekksi2016\tentativa2\consultor.nxc"
21	448	132	#line 448 "C:\Users\luan\Documents\GitHub\Droid\sekksi2016\tentativa2\consultor.nxc"
21	449	132		mov __D0BonecoNaFrente, __BonecoNaFrente_7qG2_cor_7qG2_000
21	452	134	#line 452 "C:\Users\luan\Documents\GitHub\Droid\sekksi2016\tentativa2\consultor.nxc"
21	453	134		acquire __TextOutMutex
21	452	135	#line 452 "C:\Users\luan\Documents\GitHub\Droid\sekksi2016\tentativa2\consultor.nxc"
21	453	135		mov __TextOutArgs.Location.X, __signed_stack_001BonecoNaFrente
21	452	138	#line 452 "C:\Users\luan\Documents\GitHub\Droid\sekksi2016\tentativa2\consultor.nxc"
21	453	138		mov __TextOutArgs.Location.Y, __signed_stack_002BonecoNaFrente
21	452	141	#line 452 "C:\Users\luan\Documents\GitHub\Droid\sekksi2016\tentativa2\consultor.nxc"
21	453	141		set __TextOutArgs.Options, 0
21	452	144	#line 452 "C:\Users\luan\Documents\GitHub\Droid\sekksi2016\tentativa2\consultor.nxc"
21	453	144		numtostr __TextOutArgs.Text, __D0BonecoNaFrente
21	452	147	#line 452 "C:\Users\luan\Documents\GitHub\Droid\sekksi2016\tentativa2\consultor.nxc"
21	453	147		syscall 13, __TextOutArgs
21	452	150	#line 452 "C:\Users\luan\Documents\GitHub\Droid\sekksi2016\tentativa2\consultor.nxc"
21	453	150		mov __D0BonecoNaFrente, __TextOutArgs.Result
21	452	153	#line 452 "C:\Users\luan\Documents\GitHub\Droid\sekksi2016\tentativa2\consultor.nxc"
21	453	153		release __TextOutMutex
21	452	154	#line 452 "C:\Users\luan\Documents\GitHub\Droid\sekksi2016\tentativa2\consultor.nxc"
21	453	154	#line 453 "C:\Users\luan\Documents\GitHub\Droid\sekksi2016\tentativa2\consultor.nxc"
21	454	154		subcall VoltaGarra, __VoltaGarra_return
21	453	157	#line 453 "C:\Users\luan\Documents\GitHub\Droid\sekksi2016\tentativa2\consultor.nxc"
21	454	157	#line 454 "C:\Users\luan\Documents\GitHub\Droid\sekksi2016\tentativa2\consultor.nxc"
21	455	157		subcall MandarSeguir, __MandarSeguir_return
21	454	159	#line 454 "C:\Users\luan\Documents\GitHub\Droid\sekksi2016\tentativa2\consultor.nxc"
21	454	159	#line 454 "C:\Users\luan\Documents\GitHub\Droid\sekksi2016\tentativa2\consultor.nxc"
21	455	159		set __Wait_7qG2_ms_7qG2_000_inline_BonecoNaFrente, 400
21	454	162	#line 454 "C:\Users\luan\Documents\GitHub\Droid\sekksi2016\tentativa2\consultor.nxc"
21	8551	162	#line 8551 "NXCDefs.h"
21	8552	162		wait2 NA, __Wait_7qG2_ms_7qG2_000_inline_BonecoNaFrente
21	8551	165	#line 8551 "NXCDefs.h"
21	455	165	#line 455 "C:\Users\luan\Documents\GitHub\Droid\sekksi2016\tentativa2\consultor.nxc"
21	457	165	#line 457 "C:\Users\luan\Documents\GitHub\Droid\sekksi2016\tentativa2\consultor.nxc"
21	457	165	#line 457 "C:\Users\luan\Documents\GitHub\Droid\sekksi2016\tentativa2\consultor.nxc"
21	457	165	#line 457 "C:\Users\luan\Documents\GitHub\Droid\sekksi2016\tentativa2\consultor.nxc"
21	459	165	#line 459 "C:\Users\luan\Documents\GitHub\Droid\sekksi2016\tentativa2\consultor.nxc"
21	460	165		jmp __ASM_Label_784
21	460	167	#line 460 "C:\Users\luan\Documents\GitHub\Droid\sekksi2016\tentativa2\consultor.nxc"
21	461	167		subcall VoltaGarra, __VoltaGarra_return
21	460	170	#line 460 "C:\Users\luan\Documents\GitHub\Droid\sekksi2016\tentativa2\consultor.nxc"
21	461	170	#line 461 "C:\Users\luan\Documents\GitHub\Droid\sekksi2016\tentativa2\consultor.nxc"
21	462	170		subcall MandarSeguir, __MandarSeguir_return
21	461	172	#line 461 "C:\Users\luan\Documents\GitHub\Droid\sekksi2016\tentativa2\consultor.nxc"
21	461	172	#line 461 "C:\Users\luan\Documents\GitHub\Droid\sekksi2016\tentativa2\consultor.nxc"
21	462	172		set __Wait_7qG2_ms_7qG2_000_inline_BonecoNaFrente, 400
21	461	175	#line 461 "C:\Users\luan\Documents\GitHub\Droid\sekksi2016\tentativa2\consultor.nxc"
21	8551	175	#line 8551 "NXCDefs.h"
21	8552	175		wait2 NA, __Wait_7qG2_ms_7qG2_000_inline_BonecoNaFrente
21	8551	178	#line 8551 "NXCDefs.h"
21	462	178	#line 462 "C:\Users\luan\Documents\GitHub\Droid\sekksi2016\tentativa2\consultor.nxc"
21	465	178	#line 465 "C:\Users\luan\Documents\GitHub\Droid\sekksi2016\tentativa2\consultor.nxc"
21	465	178	#line 465 "C:\Users\luan\Documents\GitHub\Droid\sekksi2016\tentativa2\consultor.nxc"
21	466	178		subret __BonecoNaFrente_return
22	468	0	#line 468 "C:\Users\luan\Documents\GitHub\Droid\sekksi2016\tentativa2\consultor.nxc"
22	469	0		subcall LevantaBoneco, __LevantaBoneco_return
22	468	2	#line 468 "C:\Users\luan\Documents\GitHub\Droid\sekksi2016\tentativa2\consultor.nxc"
22	469	2	#line 469 "C:\Users\luan\Documents\GitHub\Droid\sekksi2016\tentativa2\consultor.nxc"
22	470	2		subcall MandaRejeitar, __MandaRejeitar_return
22	469	4	#line 469 "C:\Users\luan\Documents\GitHub\Droid\sekksi2016\tentativa2\consultor.nxc"
22	469	4	#line 469 "C:\Users\luan\Documents\GitHub\Droid\sekksi2016\tentativa2\consultor.nxc"
22	470	4		subcall RecebiGirei, __RecebiGirei_return
22	469	6	#line 469 "C:\Users\luan\Documents\GitHub\Droid\sekksi2016\tentativa2\consultor.nxc"
22	469	6	#line 469 "C:\Users\luan\Documents\GitHub\Droid\sekksi2016\tentativa2\consultor.nxc"
22	470	6		not __D0Rejeita, __D0RecebiGirei
22	469	9	#line 469 "C:\Users\luan\Documents\GitHub\Droid\sekksi2016\tentativa2\consultor.nxc"
22	470	9		tst 5, __D0Rejeita, __D0Rejeita
22	469	12	#line 469 "C:\Users\luan\Documents\GitHub\Droid\sekksi2016\tentativa2\consultor.nxc"
22	470	12		brtst 4, __ASM_Label_788, __D0Rejeita
22	470	15	#line 470 "C:\Users\luan\Documents\GitHub\Droid\sekksi2016\tentativa2\consultor.nxc"
22	471	15		jmp __ASM_Label_787
22	470	17	#line 470 "C:\Users\luan\Documents\GitHub\Droid\sekksi2016\tentativa2\consultor.nxc"
22	471	17	#line 471 "C:\Users\luan\Documents\GitHub\Droid\sekksi2016\tentativa2\consultor.nxc"
22	472	17		subcall VoltaGarra, __VoltaGarra_return
22	471	20	#line 471 "C:\Users\luan\Documents\GitHub\Droid\sekksi2016\tentativa2\consultor.nxc"
22	472	20	#line 472 "C:\Users\luan\Documents\GitHub\Droid\sekksi2016\tentativa2\consultor.nxc"
22	473	20		subcall MandaDesgirar, __MandaDesgirar_return
22	472	22	#line 472 "C:\Users\luan\Documents\GitHub\Droid\sekksi2016\tentativa2\consultor.nxc"
22	472	22	#line 472 "C:\Users\luan\Documents\GitHub\Droid\sekksi2016\tentativa2\consultor.nxc"
22	473	22		subcall RecebiDesGirei, __RecebiDesGirei_return
22	472	24	#line 472 "C:\Users\luan\Documents\GitHub\Droid\sekksi2016\tentativa2\consultor.nxc"
22	472	24	#line 472 "C:\Users\luan\Documents\GitHub\Droid\sekksi2016\tentativa2\consultor.nxc"
22	473	24		not __D0Rejeita, __D0RecebiDesGirei
22	472	27	#line 472 "C:\Users\luan\Documents\GitHub\Droid\sekksi2016\tentativa2\consultor.nxc"
22	473	27		tst 5, __D0Rejeita, __D0Rejeita
22	472	30	#line 472 "C:\Users\luan\Documents\GitHub\Droid\sekksi2016\tentativa2\consultor.nxc"
22	473	30		brtst 4, __ASM_Label_792, __D0Rejeita
22	475	33	#line 475 "C:\Users\luan\Documents\GitHub\Droid\sekksi2016\tentativa2\consultor.nxc"
22	476	33		jmp __ASM_Label_791
22	475	35	#line 475 "C:\Users\luan\Documents\GitHub\Droid\sekksi2016\tentativa2\consultor.nxc"
22	475	35	#line 475 "C:\Users\luan\Documents\GitHub\Droid\sekksi2016\tentativa2\consultor.nxc"
22	476	35		subret __Rejeita_return
23	478	0	#line 478 "C:\Users\luan\Documents\GitHub\Droid\sekksi2016\tentativa2\consultor.nxc"
23	479	0	#pragma macro 9
23	479	0		acquire __MRMutex
23	479	1		mov __MRArgs.QueueID, __constVal2
23	479	3		mov __MRArgs.Remove, __constVal1
23	479	5		set __RRNTmpVal, 0
23	479	8		syscall 27, __MRArgs
23	479	11		unflatten __RRNTmpVal, __RRNErr, __MRArgs.Message, __RRNTmpVal
23	479	16		mov __RecebiGirei_7qG2_aux_7qG2_000, __RRNTmpVal
23	479	18		mov __D0RecebiGirei, __MRArgs.Result
23	479	21		release __MRMutex
23	6832	22	#line 6832 "C:\Users\luan\Documents\GitHub\Droid\sekksi2016\tentativa2\consultor.nxc"
23	478	22	#line 478 "C:\Users\luan\Documents\GitHub\Droid\sekksi2016\tentativa2\consultor.nxc"
23	478	22	#line 478 "C:\Users\luan\Documents\GitHub\Droid\sekksi2016\tentativa2\consultor.nxc"
23	479	22	#line 479 "C:\Users\luan\Documents\GitHub\Droid\sekksi2016\tentativa2\consultor.nxc"
23	480	22		mov __signed_stack_001RecebiGirei, __RecebiGirei_7qG2_aux_7qG2_000
23	479	24	#line 479 "C:\Users\luan\Documents\GitHub\Droid\sekksi2016\tentativa2\consultor.nxc"
23	480	24	#line 480 "C:\Users\luan\Documents\GitHub\Droid\sekksi2016\tentativa2\consultor.nxc"
23	481	24		set __D0RecebiGirei, 3
23	480	27	#line 480 "C:\Users\luan\Documents\GitHub\Droid\sekksi2016\tentativa2\consultor.nxc"
23	481	27		cmp 4, __D0RecebiGirei, __signed_stack_001RecebiGirei, __D0RecebiGirei
23	480	31	#line 480 "C:\Users\luan\Documents\GitHub\Droid\sekksi2016\tentativa2\consultor.nxc"
23	481	31		brtst 4, __ASM_Label_797, __D0RecebiGirei
23	481	34	#line 481 "C:\Users\luan\Documents\GitHub\Droid\sekksi2016\tentativa2\consultor.nxc"
23	482	34		set __D0RecebiGirei, 1
23	481	37	#line 481 "C:\Users\luan\Documents\GitHub\Droid\sekksi2016\tentativa2\consultor.nxc"
23	482	37		subret __RecebiGirei_return
23	481	39	#line 481 "C:\Users\luan\Documents\GitHub\Droid\sekksi2016\tentativa2\consultor.nxc"
23	481	39	#line 481 "C:\Users\luan\Documents\GitHub\Droid\sekksi2016\tentativa2\consultor.nxc"
23	482	39	#line 482 "C:\Users\luan\Documents\GitHub\Droid\sekksi2016\tentativa2\consultor.nxc"
23	483	39		set __D0RecebiGirei, 0
23	482	42	#line 482 "C:\Users\luan\Documents\GitHub\Droid\sekksi2016\tentativa2\consultor.nxc"
23	483	42		subret __RecebiGirei_return
23	482	44	#line 482 "C:\Users\luan\Documents\GitHub\Droid\sekksi2016\tentativa2\consultor.nxc"
23	484	44	#line 484 "C:\Users\luan\Documents\GitHub\Droid\sekksi2016\tentativa2\consultor.nxc"
23	485	44		subret __RecebiGirei_return
24	487	0	#line 487 "C:\Users\luan\Documents\GitHub\Droid\sekksi2016\tentativa2\consultor.nxc"
24	488	0	#pragma macro 9
24	488	0		acquire __MRMutex
24	488	1		mov __MRArgs.QueueID, __constVal2
24	488	3		mov __MRArgs.Remove, __constVal1
24	488	5		set __RRNTmpVal, 0
24	488	8		syscall 27, __MRArgs
24	488	11		unflatten __RRNTmpVal, __RRNErr, __MRArgs.Message, __RRNTmpVal
24	488	16		mov __RecebiDesGirei_7qG2_aux_7qG2_000, __RRNTmpVal
24	488	18		mov __D0RecebiDesGirei, __MRArgs.Result
24	488	21		release __MRMutex
24	6871	22	#line 6871 "C:\Users\luan\Documents\GitHub\Droid\sekksi2016\tentativa2\consultor.nxc"
24	487	22	#line 487 "C:\Users\luan\Documents\GitHub\Droid\sekksi2016\tentativa2\consultor.nxc"
24	487	22	#line 487 "C:\Users\luan\Documents\GitHub\Droid\sekksi2016\tentativa2\consultor.nxc"
24	488	22	#line 488 "C:\Users\luan\Documents\GitHub\Droid\sekksi2016\tentativa2\consultor.nxc"
24	489	22		mov __signed_stack_001RecebiDesGirei, __RecebiDesGirei_7qG2_aux_7qG2_000
24	488	24	#line 488 "C:\Users\luan\Documents\GitHub\Droid\sekksi2016\tentativa2\consultor.nxc"
24	489	24	#line 489 "C:\Users\luan\Documents\GitHub\Droid\sekksi2016\tentativa2\consultor.nxc"
24	490	24		set __D0RecebiDesGirei, 6
24	489	27	#line 489 "C:\Users\luan\Documents\GitHub\Droid\sekksi2016\tentativa2\consultor.nxc"
24	490	27		cmp 4, __D0RecebiDesGirei, __signed_stack_001RecebiDesGirei, __D0RecebiDesGirei
24	489	31	#line 489 "C:\Users\luan\Documents\GitHub\Droid\sekksi2016\tentativa2\consultor.nxc"
24	490	31		brtst 4, __ASM_Label_804, __D0RecebiDesGirei
24	490	34	#line 490 "C:\Users\luan\Documents\GitHub\Droid\sekksi2016\tentativa2\consultor.nxc"
24	491	34		set __D0RecebiDesGirei, 1
24	490	37	#line 490 "C:\Users\luan\Documents\GitHub\Droid\sekksi2016\tentativa2\consultor.nxc"
24	491	37		subret __RecebiDesGirei_return
24	490	39	#line 490 "C:\Users\luan\Documents\GitHub\Droid\sekksi2016\tentativa2\consultor.nxc"
24	490	39	#line 490 "C:\Users\luan\Documents\GitHub\Droid\sekksi2016\tentativa2\consultor.nxc"
24	491	39	#line 491 "C:\Users\luan\Documents\GitHub\Droid\sekksi2016\tentativa2\consultor.nxc"
24	492	39		set __D0RecebiDesGirei, 0
24	491	42	#line 491 "C:\Users\luan\Documents\GitHub\Droid\sekksi2016\tentativa2\consultor.nxc"
24	492	42		subret __RecebiDesGirei_return
24	491	44	#line 491 "C:\Users\luan\Documents\GitHub\Droid\sekksi2016\tentativa2\consultor.nxc"
24	493	44	#line 493 "C:\Users\luan\Documents\GitHub\Droid\sekksi2016\tentativa2\consultor.nxc"
24	494	44		subret __RecebiDesGirei_return
25	498	0	#line 498 "C:\Users\luan\Documents\GitHub\Droid\sekksi2016\tentativa2\consultor.nxc"
25	499	0	#pragma macro 14
25	499	0		acquire __RemoteMutex
25	499	1		mov __SRSTmpBuf, __DCMessageWritePacket
25	499	3		replace __SRSTmpBuf, __SRSTmpBuf, __constVal2, __constVal1
25	499	8		replace __SRSTmpBuf, __SRSTmpBuf, __constVal3, __constVal5
25	499	13		mov __SRSTmpLongVal, __constVal5
25	499	15		flatten __SRSFlattenBuf, __SRSTmpLongVal
25	499	18		arrbuild __SRSSendBuf, __SRSTmpBuf, __SRSFlattenBuf
25	499	23		acquire __CBTWMutex
25	499	24		mov __CBTWArgs.Connection, __constVal0
25	499	26		mov __CBTWArgs.Buffer, __SRSSendBuf
25	499	28		syscall 29, __CBTWArgs
25	499	31		release __CBTWMutex
25	499	32		release __RemoteMutex
25	6906	33	#line 6906 "C:\Users\luan\Documents\GitHub\Droid\sekksi2016\tentativa2\consultor.nxc"
25	498	33	#line 498 "C:\Users\luan\Documents\GitHub\Droid\sekksi2016\tentativa2\consultor.nxc"
25	498	33	#line 498 "C:\Users\luan\Documents\GitHub\Droid\sekksi2016\tentativa2\consultor.nxc"
25	501	33	#line 501 "C:\Users\luan\Documents\GitHub\Droid\sekksi2016\tentativa2\consultor.nxc"
25	502	33		subret __MandaRejeitar_return
26	503	0	#line 503 "C:\Users\luan\Documents\GitHub\Droid\sekksi2016\tentativa2\consultor.nxc"
26	504	0	#pragma macro 14
26	504	0		acquire __RemoteMutex
26	504	1		mov __SRSTmpBuf, __DCMessageWritePacket
26	504	3		replace __SRSTmpBuf, __SRSTmpBuf, __constVal2, __constVal1
26	504	8		replace __SRSTmpBuf, __SRSTmpBuf, __constVal3, __constVal5
26	504	13		mov __SRSTmpLongVal, __constVal4
26	504	15		flatten __SRSFlattenBuf, __SRSTmpLongVal
26	504	18		arrbuild __SRSSendBuf, __SRSTmpBuf, __SRSFlattenBuf
26	504	23		acquire __CBTWMutex
26	504	24		mov __CBTWArgs.Connection, __constVal0
26	504	26		mov __CBTWArgs.Buffer, __SRSSendBuf
26	504	28		syscall 29, __CBTWArgs
26	504	31		release __CBTWMutex
26	504	32		release __RemoteMutex
26	6915	33	#line 6915 "C:\Users\luan\Documents\GitHub\Droid\sekksi2016\tentativa2\consultor.nxc"
26	503	33	#line 503 "C:\Users\luan\Documents\GitHub\Droid\sekksi2016\tentativa2\consultor.nxc"
26	503	33	#line 503 "C:\Users\luan\Documents\GitHub\Droid\sekksi2016\tentativa2\consultor.nxc"
26	506	33	#line 506 "C:\Users\luan\Documents\GitHub\Droid\sekksi2016\tentativa2\consultor.nxc"
26	507	33		subret __MandaDesgirar_return
27	510	0	#line 510 "C:\Users\luan\Documents\GitHub\Droid\sekksi2016\tentativa2\consultor.nxc"
27	511	0	#pragma macro 26
27	511	0		acquire __RLSBmutex3
27	511	1		mov __RLSReadBuf3, __RLSBbufLSWrite1
27	511	3		set __RLSBytesCount3, 1
27	511	6		wait2 NA, __constVal15
27	511	9		subcall __ReadLSBytes3, ____ReadLSBytes3_return
27	511	12		index __D0MandaUs, __RLSReadBuf3, 65535
27	511	16		release __RLSBmutex3
27	6928	17	#line 6928 "C:\Users\luan\Documents\GitHub\Droid\sekksi2016\tentativa2\consultor.nxc"
27	510	17	#line 510 "C:\Users\luan\Documents\GitHub\Droid\sekksi2016\tentativa2\consultor.nxc"
27	511	17		mov __MandaUs_7qG2_aux_7qG2_000, __D0MandaUs
27	510	19	#line 510 "C:\Users\luan\Documents\GitHub\Droid\sekksi2016\tentativa2\consultor.nxc"
27	510	19	#line 510 "C:\Users\luan\Documents\GitHub\Droid\sekksi2016\tentativa2\consultor.nxc"
27	512	19	#line 512 "C:\Users\luan\Documents\GitHub\Droid\sekksi2016\tentativa2\consultor.nxc"
27	513	19	#pragma macro 14
27	513	19		acquire __RemoteMutex
27	513	20		mov __SRSTmpBuf, __DCMessageWritePacket
27	513	22		replace __SRSTmpBuf, __SRSTmpBuf, __constVal2, __constVal3
27	513	27		replace __SRSTmpBuf, __SRSTmpBuf, __constVal3, __constVal5
27	513	32		mov __SRSTmpLongVal, __MandaUs_7qG2_aux_7qG2_000
27	513	34		flatten __SRSFlattenBuf, __SRSTmpLongVal
27	513	37		arrbuild __SRSSendBuf, __SRSTmpBuf, __SRSFlattenBuf
27	513	42		acquire __CBTWMutex
27	513	43		mov __CBTWArgs.Connection, __constVal0
27	513	45		mov __CBTWArgs.Buffer, __SRSSendBuf
27	513	47		syscall 29, __CBTWArgs
27	513	50		mov __D0MandaUs, __CBTWArgs.Result
27	513	53		release __CBTWMutex
27	513	54		release __RemoteMutex
27	6936	55	#line 6936 "C:\Users\luan\Documents\GitHub\Droid\sekksi2016\tentativa2\consultor.nxc"
27	512	55	#line 512 "C:\Users\luan\Documents\GitHub\Droid\sekksi2016\tentativa2\consultor.nxc"
27	512	55	#line 512 "C:\Users\luan\Documents\GitHub\Droid\sekksi2016\tentativa2\consultor.nxc"
27	515	55	#line 515 "C:\Users\luan\Documents\GitHub\Droid\sekksi2016\tentativa2\consultor.nxc"
27	516	55		subret __MandaUs_return
28	517	0	#line 517 "C:\Users\luan\Documents\GitHub\Droid\sekksi2016\tentativa2\consultor.nxc"
28	518	0	#pragma macro 14
28	518	0		acquire __RemoteMutex
28	518	1		mov __SRSTmpBuf, __DCMessageWritePacket
28	518	3		replace __SRSTmpBuf, __SRSTmpBuf, __constVal2, __constVal1
28	518	8		replace __SRSTmpBuf, __SRSTmpBuf, __constVal3, __constVal5
28	518	13		mov __SRSTmpLongVal, __constVal9
28	518	15		flatten __SRSFlattenBuf, __SRSTmpLongVal
28	518	18		arrbuild __SRSSendBuf, __SRSTmpBuf, __SRSFlattenBuf
28	518	23		acquire __CBTWMutex
28	518	24		mov __CBTWArgs.Connection, __constVal0
28	518	26		mov __CBTWArgs.Buffer, __SRSSendBuf
28	518	28		syscall 29, __CBTWArgs
28	518	31		release __CBTWMutex
28	518	32		release __RemoteMutex
28	6945	33	#line 6945 "C:\Users\luan\Documents\GitHub\Droid\sekksi2016\tentativa2\consultor.nxc"
28	517	33	#line 517 "C:\Users\luan\Documents\GitHub\Droid\sekksi2016\tentativa2\consultor.nxc"
28	517	33	#line 517 "C:\Users\luan\Documents\GitHub\Droid\sekksi2016\tentativa2\consultor.nxc"
28	520	33	#line 520 "C:\Users\luan\Documents\GitHub\Droid\sekksi2016\tentativa2\consultor.nxc"
28	521	33		subret __MandaCheio_return
29	522	0	#line 522 "C:\Users\luan\Documents\GitHub\Droid\sekksi2016\tentativa2\consultor.nxc"
29	523	0		mov __D0LevantaBoneco, __constValNeg70
29	523	2	#line 523 "C:\Users\luan\Documents\GitHub\Droid\sekksi2016\tentativa2\consultor.nxc"
29	524	2	#pragma macro 7
29	524	2		setout __constVal0, 2, __D0LevantaBoneco, 1, __constVal3, 8, __constVal0, 6, __constVal32, 7, __constVal0, 5, __constVal0, 10, __constVal96, 11, __constVal32, 12, __constVal32, 0, __constVal63
29	6956	25	#line 6956 "C:\Users\luan\Documents\GitHub\Droid\sekksi2016\tentativa2\consultor.nxc"
29	523	25	#line 523 "C:\Users\luan\Documents\GitHub\Droid\sekksi2016\tentativa2\consultor.nxc"
29	523	25	#line 523 "C:\Users\luan\Documents\GitHub\Droid\sekksi2016\tentativa2\consultor.nxc"
29	524	25		getout __signed_stack_001LevantaBoneco, __constVal0, 4
29	523	29	#line 523 "C:\Users\luan\Documents\GitHub\Droid\sekksi2016\tentativa2\consultor.nxc"
29	523	29	#line 523 "C:\Users\luan\Documents\GitHub\Droid\sekksi2016\tentativa2\consultor.nxc"
29	524	29		mov __D0LevantaBoneco, __constValNeg50
29	523	31	#line 523 "C:\Users\luan\Documents\GitHub\Droid\sekksi2016\tentativa2\consultor.nxc"
29	524	31		cmp 1, __D0LevantaBoneco, __signed_stack_001LevantaBoneco, __D0LevantaBoneco
29	523	35	#line 523 "C:\Users\luan\Documents\GitHub\Droid\sekksi2016\tentativa2\consultor.nxc"
29	524	35		brtst 4, __ASM_Label_814, __D0LevantaBoneco
29	524	38	#line 524 "C:\Users\luan\Documents\GitHub\Droid\sekksi2016\tentativa2\consultor.nxc"
29	525	38		jmp __ASM_Label_813
29	524	40	#line 524 "C:\Users\luan\Documents\GitHub\Droid\sekksi2016\tentativa2\consultor.nxc"
29	525	40	#line 525 "C:\Users\luan\Documents\GitHub\Droid\sekksi2016\tentativa2\consultor.nxc"
29	526	40	#pragma macro 7
29	526	40		setout __constVal0, 2, __constVal0, 1, __constVal3, 8, __constVal0, 6, __constVal32, 7, __constVal0, 5, __constVal0, 10, __constVal96, 11, __constVal32, 12, __constVal32, 0, __constVal63
29	6978	63	#line 6978 "C:\Users\luan\Documents\GitHub\Droid\sekksi2016\tentativa2\consultor.nxc"
29	525	63	#line 525 "C:\Users\luan\Documents\GitHub\Droid\sekksi2016\tentativa2\consultor.nxc"
29	527	63	#line 527 "C:\Users\luan\Documents\GitHub\Droid\sekksi2016\tentativa2\consultor.nxc"
29	528	63		subret __LevantaBoneco_return
30	533	0	#line 533 "C:\Users\luan\Documents\GitHub\Droid\sekksi2016\tentativa2\consultor.nxc"
30	534	0		set __lerSensor_7qG2_sensor_7qG2_000, 0
30	533	3	#line 533 "C:\Users\luan\Documents\GitHub\Droid\sekksi2016\tentativa2\consultor.nxc"
30	534	3	#line 534 "C:\Users\luan\Documents\GitHub\Droid\sekksi2016\tentativa2\consultor.nxc"
30	535	3		subcall lerSensor, __lerSensor_return
30	534	5	#line 534 "C:\Users\luan\Documents\GitHub\Droid\sekksi2016\tentativa2\consultor.nxc"
30	535	5		mov __CalibraFaixaBase_7qG2_rgb_dir_7qG2_000, __D0lerSensor
30	534	7	#line 534 "C:\Users\luan\Documents\GitHub\Droid\sekksi2016\tentativa2\consultor.nxc"
30	534	7	#line 534 "C:\Users\luan\Documents\GitHub\Droid\sekksi2016\tentativa2\consultor.nxc"
30	534	7	#line 534 "C:\Users\luan\Documents\GitHub\Droid\sekksi2016\tentativa2\consultor.nxc"
30	535	7		set __lerSensor_7qG2_sensor_7qG2_000, 1
30	534	10	#line 534 "C:\Users\luan\Documents\GitHub\Droid\sekksi2016\tentativa2\consultor.nxc"
30	535	10	#line 535 "C:\Users\luan\Documents\GitHub\Droid\sekksi2016\tentativa2\consultor.nxc"
30	536	10		subcall lerSensor, __lerSensor_return
30	535	12	#line 535 "C:\Users\luan\Documents\GitHub\Droid\sekksi2016\tentativa2\consultor.nxc"
30	536	12		mov __CalibraFaixaBase_7qG2_rgb_esq_7qG2_000, __D0lerSensor
30	535	14	#line 535 "C:\Users\luan\Documents\GitHub\Droid\sekksi2016\tentativa2\consultor.nxc"
30	535	14	#line 535 "C:\Users\luan\Documents\GitHub\Droid\sekksi2016\tentativa2\consultor.nxc"
30	535	14	#line 535 "C:\Users\luan\Documents\GitHub\Droid\sekksi2016\tentativa2\consultor.nxc"
30	536	14		set __lerSensor_7qG2_sensor_7qG2_000, 2
30	535	17	#line 535 "C:\Users\luan\Documents\GitHub\Droid\sekksi2016\tentativa2\consultor.nxc"
30	537	17	#line 537 "C:\Users\luan\Documents\GitHub\Droid\sekksi2016\tentativa2\consultor.nxc"
30	538	17		subcall lerSensor, __lerSensor_return
30	537	19	#line 537 "C:\Users\luan\Documents\GitHub\Droid\sekksi2016\tentativa2\consultor.nxc"
30	538	19		mov __CalibraFaixaBase_7qG2_rgb_meio_7qG2_000, __D0lerSensor
30	537	21	#line 537 "C:\Users\luan\Documents\GitHub\Droid\sekksi2016\tentativa2\consultor.nxc"
30	537	21	#line 537 "C:\Users\luan\Documents\GitHub\Droid\sekksi2016\tentativa2\consultor.nxc"
30	537	21	#line 537 "C:\Users\luan\Documents\GitHub\Droid\sekksi2016\tentativa2\consultor.nxc"
30	538	21		mov __signed_stack_001CalibraFaixaBase, __CalibraFaixaBase_7qG2_rgb_dir_7qG2_000
30	537	23	#line 537 "C:\Users\luan\Documents\GitHub\Droid\sekksi2016\tentativa2\consultor.nxc"
30	538	23	#line 538 "C:\Users\luan\Documents\GitHub\Droid\sekksi2016\tentativa2\consultor.nxc"
30	539	23		set __D0CalibraFaixaBase, 97
30	538	26	#line 538 "C:\Users\luan\Documents\GitHub\Droid\sekksi2016\tentativa2\consultor.nxc"
30	539	26		add CorBaseDirMax, __signed_stack_001CalibraFaixaBase, __D0CalibraFaixaBase
30	538	30	#line 538 "C:\Users\luan\Documents\GitHub\Droid\sekksi2016\tentativa2\consultor.nxc"
30	538	30	#line 538 "C:\Users\luan\Documents\GitHub\Droid\sekksi2016\tentativa2\consultor.nxc"
30	538	30	#line 538 "C:\Users\luan\Documents\GitHub\Droid\sekksi2016\tentativa2\consultor.nxc"
30	539	30		mov __signed_stack_001CalibraFaixaBase, __CalibraFaixaBase_7qG2_rgb_dir_7qG2_000
30	538	32	#line 538 "C:\Users\luan\Documents\GitHub\Droid\sekksi2016\tentativa2\consultor.nxc"
30	539	32	#line 539 "C:\Users\luan\Documents\GitHub\Droid\sekksi2016\tentativa2\consultor.nxc"
30	540	32		set __D0CalibraFaixaBase, 97
30	539	35	#line 539 "C:\Users\luan\Documents\GitHub\Droid\sekksi2016\tentativa2\consultor.nxc"
30	540	35		sub CorBaseDirMin, __signed_stack_001CalibraFaixaBase, __D0CalibraFaixaBase
30	539	39	#line 539 "C:\Users\luan\Documents\GitHub\Droid\sekksi2016\tentativa2\consultor.nxc"
30	539	39	#line 539 "C:\Users\luan\Documents\GitHub\Droid\sekksi2016\tentativa2\consultor.nxc"
30	539	39	#line 539 "C:\Users\luan\Documents\GitHub\Droid\sekksi2016\tentativa2\consultor.nxc"
30	540	39		mov __signed_stack_001CalibraFaixaBase, __CalibraFaixaBase_7qG2_rgb_esq_7qG2_000
30	539	41	#line 539 "C:\Users\luan\Documents\GitHub\Droid\sekksi2016\tentativa2\consultor.nxc"
30	540	41	#line 540 "C:\Users\luan\Documents\GitHub\Droid\sekksi2016\tentativa2\consultor.nxc"
30	541	41		set __D0CalibraFaixaBase, 97
30	540	44	#line 540 "C:\Users\luan\Documents\GitHub\Droid\sekksi2016\tentativa2\consultor.nxc"
30	541	44		add CorBaseEsqMax, __signed_stack_001CalibraFaixaBase, __D0CalibraFaixaBase
30	540	48	#line 540 "C:\Users\luan\Documents\GitHub\Droid\sekksi2016\tentativa2\consultor.nxc"
30	540	48	#line 540 "C:\Users\luan\Documents\GitHub\Droid\sekksi2016\tentativa2\consultor.nxc"
30	540	48	#line 540 "C:\Users\luan\Documents\GitHub\Droid\sekksi2016\tentativa2\consultor.nxc"
30	541	48		mov __signed_stack_001CalibraFaixaBase, __CalibraFaixaBase_7qG2_rgb_esq_7qG2_000
30	540	50	#line 540 "C:\Users\luan\Documents\GitHub\Droid\sekksi2016\tentativa2\consultor.nxc"
30	541	50	#line 541 "C:\Users\luan\Documents\GitHub\Droid\sekksi2016\tentativa2\consultor.nxc"
30	542	50		set __D0CalibraFaixaBase, 97
30	541	53	#line 541 "C:\Users\luan\Documents\GitHub\Droid\sekksi2016\tentativa2\consultor.nxc"
30	542	53		sub CorBaseEsqMin, __signed_stack_001CalibraFaixaBase, __D0CalibraFaixaBase
30	541	57	#line 541 "C:\Users\luan\Documents\GitHub\Droid\sekksi2016\tentativa2\consultor.nxc"
30	541	57	#line 541 "C:\Users\luan\Documents\GitHub\Droid\sekksi2016\tentativa2\consultor.nxc"
30	541	57	#line 541 "C:\Users\luan\Documents\GitHub\Droid\sekksi2016\tentativa2\consultor.nxc"
30	542	57		mov __signed_stack_001CalibraFaixaBase, __CalibraFaixaBase_7qG2_rgb_meio_7qG2_000
30	541	59	#line 541 "C:\Users\luan\Documents\GitHub\Droid\sekksi2016\tentativa2\consultor.nxc"
30	542	59	#line 542 "C:\Users\luan\Documents\GitHub\Droid\sekksi2016\tentativa2\consultor.nxc"
30	543	59		set __D0CalibraFaixaBase, 247
30	542	62	#line 542 "C:\Users\luan\Documents\GitHub\Droid\sekksi2016\tentativa2\consultor.nxc"
30	543	62		add CorBaseMeioMax, __signed_stack_001CalibraFaixaBase, __D0CalibraFaixaBase
30	542	66	#line 542 "C:\Users\luan\Documents\GitHub\Droid\sekksi2016\tentativa2\consultor.nxc"
30	542	66	#line 542 "C:\Users\luan\Documents\GitHub\Droid\sekksi2016\tentativa2\consultor.nxc"
30	542	66	#line 542 "C:\Users\luan\Documents\GitHub\Droid\sekksi2016\tentativa2\consultor.nxc"
30	543	66		mov __signed_stack_001CalibraFaixaBase, __CalibraFaixaBase_7qG2_rgb_meio_7qG2_000
30	542	68	#line 542 "C:\Users\luan\Documents\GitHub\Droid\sekksi2016\tentativa2\consultor.nxc"
30	544	68	#line 544 "C:\Users\luan\Documents\GitHub\Droid\sekksi2016\tentativa2\consultor.nxc"
30	545	68		set __D0CalibraFaixaBase, 247
30	544	71	#line 544 "C:\Users\luan\Documents\GitHub\Droid\sekksi2016\tentativa2\consultor.nxc"
30	545	71		sub CorBaseMeioMin, __signed_stack_001CalibraFaixaBase, __D0CalibraFaixaBase
30	544	75	#line 544 "C:\Users\luan\Documents\GitHub\Droid\sekksi2016\tentativa2\consultor.nxc"
30	544	75	#line 544 "C:\Users\luan\Documents\GitHub\Droid\sekksi2016\tentativa2\consultor.nxc"
30	544	75	#line 544 "C:\Users\luan\Documents\GitHub\Droid\sekksi2016\tentativa2\consultor.nxc"
30	545	75		set __nbip_7qG2_n_7qG2_000, 2
30	544	78	#line 544 "C:\Users\luan\Documents\GitHub\Droid\sekksi2016\tentativa2\consultor.nxc"
30	546	78	#line 546 "C:\Users\luan\Documents\GitHub\Droid\sekksi2016\tentativa2\consultor.nxc"
30	547	78		subcall nbip, __nbip_return
30	546	81	#line 546 "C:\Users\luan\Documents\GitHub\Droid\sekksi2016\tentativa2\consultor.nxc"
30	548	81	#line 548 "C:\Users\luan\Documents\GitHub\Droid\sekksi2016\tentativa2\consultor.nxc"
30	549	81		subret __CalibraFaixaBase_return
31	550	0	#line 550 "C:\Users\luan\Documents\GitHub\Droid\sekksi2016\tentativa2\consultor.nxc"
31	551	0	#pragma macro 14
31	551	0		acquire __RemoteMutex
31	551	1		mov __SRSTmpBuf, __DCMessageWritePacket
31	551	3		replace __SRSTmpBuf, __SRSTmpBuf, __constVal2, __constVal1
31	551	8		replace __SRSTmpBuf, __SRSTmpBuf, __constVal3, __constVal5
31	551	13		mov __SRSTmpLongVal, __constVal8
31	551	15		flatten __SRSFlattenBuf, __SRSTmpLongVal
31	551	18		arrbuild __SRSSendBuf, __SRSTmpBuf, __SRSFlattenBuf
31	551	23		acquire __CBTWMutex
31	551	24		mov __CBTWArgs.Connection, __constVal0
31	551	26		mov __CBTWArgs.Buffer, __SRSSendBuf
31	551	28		syscall 29, __CBTWArgs
31	551	31		release __CBTWMutex
31	551	32		release __RemoteMutex
31	7139	33	#line 7139 "C:\Users\luan\Documents\GitHub\Droid\sekksi2016\tentativa2\consultor.nxc"
31	550	33	#line 550 "C:\Users\luan\Documents\GitHub\Droid\sekksi2016\tentativa2\consultor.nxc"
31	550	33	#line 550 "C:\Users\luan\Documents\GitHub\Droid\sekksi2016\tentativa2\consultor.nxc"
31	553	33	#line 553 "C:\Users\luan\Documents\GitHub\Droid\sekksi2016\tentativa2\consultor.nxc"
31	554	33		subret __MandaPeguei_return
32	554	0	#line 554 "C:\Users\luan\Documents\GitHub\Droid\sekksi2016\tentativa2\consultor.nxc"
32	555	0		subret ____initialize_global_data_return
#CLUMPS
Clump	Name	Offset	File
0	main	0	C:\Users\luan\Documents\GitHub\Droid\sekksi2016\tentativa2\consultor.nxc
1	__ResetSensorSubroutine	8	NXTDefs.h
2	__ReadLSBytes3	21	NXTDefs.h
3	PlaySound	107	NXCDefs.h
4	bip	547	C:\Users\luan\Documents\GitHub\Droid\sekksi2016\tentativa2\consultor.nxc
5	nbip	555	C:\Users\luan\Documents\GitHub\Droid\sekksi2016\tentativa2\consultor.nxc
6	consultor	584	C:\Users\luan\Documents\GitHub\Droid\sekksi2016\tentativa2\consultor.nxc
7	init	652	C:\Users\luan\Documents\GitHub\Droid\sekksi2016\tentativa2\consultor.nxc
8	InicializaSensores	668	C:\Users\luan\Documents\GitHub\Droid\sekksi2016\tentativa2\consultor.nxc
9	BonecoAlvo	757	C:\Users\luan\Documents\GitHub\Droid\sekksi2016\tentativa2\consultor.nxc
10	TemBoneco	799	C:\Users\luan\Documents\GitHub\Droid\sekksi2016\tentativa2\consultor.nxc
11	RecebeBoneco	898	C:\Users\luan\Documents\GitHub\Droid\sekksi2016\tentativa2\consultor.nxc
12	lerSensor	905	C:\Users\luan\Documents\GitHub\Droid\sekksi2016\tentativa2\consultor.nxc
13	PegaBoneco	1058	C:\Users\luan\Documents\GitHub\Droid\sekksi2016\tentativa2\consultor.nxc
14	VoltaGarra	1190	C:\Users\luan\Documents\GitHub\Droid\sekksi2016\tentativa2\consultor.nxc
15	CorBoneco	1279	C:\Users\luan\Documents\GitHub\Droid\sekksi2016\tentativa2\consultor.nxc
16	Pega	1375	C:\Users\luan\Documents\GitHub\Droid\sekksi2016\tentativa2\consultor.nxc
17	MandarParar	1472	C:\Users\luan\Documents\GitHub\Droid\sekksi2016\tentativa2\consultor.nxc
18	MandarSeguir	1507	C:\Users\luan\Documents\GitHub\Droid\sekksi2016\tentativa2\consultor.nxc
19	BipBranco	1542	C:\Users\luan\Documents\GitHub\Droid\sekksi2016\tentativa2\consultor.nxc
20	BipPreto	1556	C:\Users\luan\Documents\GitHub\Droid\sekksi2016\tentativa2\consultor.nxc
21	BonecoNaFrente	1570	C:\Users\luan\Documents\GitHub\Droid\sekksi2016\tentativa2\consultor.nxc
22	Rejeita	1750	C:\Users\luan\Documents\GitHub\Droid\sekksi2016\tentativa2\consultor.nxc
23	RecebiGirei	1787	C:\Users\luan\Documents\GitHub\Droid\sekksi2016\tentativa2\consultor.nxc
24	RecebiDesGirei	1833	C:\Users\luan\Documents\GitHub\Droid\sekksi2016\tentativa2\consultor.nxc
25	MandaRejeitar	1879	C:\Users\luan\Documents\GitHub\Droid\sekksi2016\tentativa2\consultor.nxc
26	MandaDesgirar	1914	C:\Users\luan\Documents\GitHub\Droid\sekksi2016\tentativa2\consultor.nxc
27	MandaUs	1949	C:\Users\luan\Documents\GitHub\Droid\sekksi2016\tentativa2\consultor.nxc
28	MandaCheio	2006	C:\Users\luan\Documents\GitHub\Droid\sekksi2016\tentativa2\consultor.nxc
29	LevantaBoneco	2041	C:\Users\luan\Documents\GitHub\Droid\sekksi2016\tentativa2\consultor.nxc
30	CalibraFaixaBase	2106	C:\Users\luan\Documents\GitHub\Droid\sekksi2016\tentativa2\consultor.nxc
31	MandaPeguei	2189	C:\Users\luan\Documents\GitHub\Droid\sekksi2016\tentativa2\consultor.nxc
32	__initialize_global_data	2224	C:\Users\luan\Documents\GitHub\Droid\sekksi2016\tentativa2\consultor.nxc
