#SYMBOLS
Index	Identifier	Type	Flag	Data	Size	RefCount
0	__D0RecebiDesGirei	6	1	0	4	9
1	__D0RecebiGirei	6	1	4	4	9
2	__D0RecebeBoneco	6	1	8	4	3
3	__D0PegaBoneco	6	1	12	4	17
4	__D0PlaySound	6	1	16	4	63
5	__D0Rejeita	6	1	20	4	8
6	__DU0SetSensorLowspeed_inline_InicializaSensores	5	1	24	4	5
7	__signed_stack_001BonecoAlvo	6	1	28	4	4
8	__D0SetSensorLowspeed_inline_InicializaSensores	6	1	32	4	2
9	__D0TemBoneco	6	1	36	4	27
10	__D0VoltaGarra	6	1	40	4	8
11	__D0CalibraFaixaBase	6	1	44	4	12
12	__D0consultor	6	1	48	4	13
13	__D0BonecoNaFrente	6	1	52	4	27
14	__SPTArgsMutex	9	0	56	4	14
15	__D0BonecoAlvo	6	1	60	4	8
16	__D0CorBoneco	6	1	64	4	29
17	__D0nbip	6	1	68	4	4
18	__D0Pega	6	1	72	4	10
19	__D0MandaUs	6	1	76	4	3
20	__D0lerSensor	6	1	80	4	37
21	__D0LevantaBoneco	6	1	84	4	6
22	__signed_stack_001RecebiDesGirei	6	1	88	4	2
23	__signed_stack_001RecebiGirei	6	1	92	4	2
24	__signed_stack_003PlaySound	6	1	96	4	14
25	__signed_stack_001PlaySound	6	1	100	4	44
26	__signed_stack_002PlaySound	6	1	104	4	14
27	__signed_stack_001TemBoneco	6	1	108	4	12
28	__Wait_7qG2_ms_7qG2_000_inline_Pega	5	1	112	4	2
29	__Wait_7qG2_ms_7qG2_000_inline_BonecoNaFrente	5	1	116	4	4
30	__Wait_7qG2_ms_7qG2_000_inline_VoltaGarra	5	1	120	4	2
31	__signed_stack_001VoltaGarra	6	1	124	4	4
32	__Wait_7qG2_ms_7qG2_000_inline_PegaBoneco	5	1	128	4	2
33	__signed_stack_001consultor	6	1	132	4	2
34	__signed_stack_001CorBoneco	6	1	136	4	12
35	__signed_stack_001CalibraFaixaBase	6	1	140	4	12
36	__signed_stack_001BonecoNaFrente	6	1	144	4	10
37	__signed_stack_002BonecoNaFrente	6	1	148	4	2
38	__signed_stack_001lerSensor	6	1	152	4	18
39	__signed_stack_001Pega	6	1	156	4	4
40	__signed_stack_001PegaBoneco	6	1	160	4	4
41	__signed_stack_001nbip	6	1	164	4	2
42	__signed_stack_002lerSensor	6	1	168	4	6
43	__signed_stack_001LevantaBoneco	6	1	172	4	2
44	__RRNTmpVal	6	1	176	4	12
45	__MRMutex	9	0	180	4	6
46	__CBTWMutex	9	0	184	4	12
47	__RemoteMutex	9	0	188	4	12
48	__SRSTmpLongVal	6	1	192	4	12
49	__CLSWMutex3	9	0	196	4	2
50	__CLSCSMutex3	9	0	200	4	2
51	__CLSRMutex3	9	0	204	4	2
52	__RLSBmutex3	9	0	208	4	2
53	__TextOutMutex	9	0	212	4	2
54	__lerSensor_7qG2_sensor_7qG2_000	4	1	216	2	8
55	__constValNeg153	4	0	218	2	1
56	BonecosCapturados	4	1	220	2	5
57	bonecoAlvo	4	1	222	2	3
58	bonecoNaoAlvo	4	1	224	2	3
59	__CalibraFaixaBase_7qG2_rgb_meio_7qG2_000	4	1	226	2	3
60	__CalibraFaixaBase_7qG2_rgb_esq_7qG2_000	4	1	228	2	3
61	__lerSensor_7qG2_aux_7qG2_000	4	1	230	2	4
62	__VoltaGarra_7qG2_old_tc_7qG2_000	4	1	232	2	2
63	__VoltaGarra_7qG2_tc_7qG2_000	4	1	234	2	4
64	__CalibraFaixaBase_7qG2_rgb_dir_7qG2_000	4	1	236	2	3
65	__PegaBoneco_7qG2_old_tc_7qG2_000	4	1	238	2	2
66	CorBaseDirMin	4	1	240	2	2
67	CorBaseDirMax	4	1	242	2	2
68	CorBaseEsqMax	4	1	244	2	2
69	CorBaseMeioMin	4	1	246	2	2
70	CorBaseEsqMin	4	1	248	2	2
71	__constVal500	4	0	250	2	1
72	__PlaySound_7qG2_aCode_7qG2_000	4	1	252	2	11
73	__PegaBoneco_7qG2_tc_7qG2_000	4	1	254	2	5
74	CorBaseMeioMax	4	1	256	2	2
75	__PlaySound_7qG2_i_7qG2_001	4	1	258	2	15
76	__constVal150	4	0	260	2	1
77	__nbip_7qG2_n_7qG2_000	4	1	262	2	4
78	__TemBoneco_7qG2_rgb_dir_7qG2_000	4	1	264	2	3
79	__TemBoneco_7qG2_rgb_esq_7qG2_000	4	1	266	2	3
80	__TemBoneco_7qG2_rgb_meio_7qG2_000	4	1	268	2	3
81	__BonecoNaFrente_7qG2_cor_7qG2_000	4	1	270	2	4
82	__RecebiDesGirei_7qG2_aux_7qG2_000	4	1	272	2	2
83	__RecebiGirei_7qG2_aux_7qG2_000	4	1	274	2	2
84	__constVal200	4	0	276	2	3
85	__MandaUs_7qG2_aux_7qG2_000	4	1	278	2	2
86	__lerSensor_7qG2_j_7qG2_000	4	1	280	2	8
87	__CorBoneco_7qG2_leitura_7qG2_000	4	1	282	2	6
88	__nbip_7qG2_i_7qG2_000	4	1	284	2	4
89	__lerSensor_7qG2_i_7qG2_000	4	1	286	2	8
90	__constVal128	4	0	288	2	3
91	__lerSensor_7qG2_k_7qG2_000	4	1	290	2	6
92	__consultor_7qG2_mensagem_7qG2_000	4	1	292	2	2
93	__SetSensorMode_7qG2_port_7qG2_000_inline_SetSensorLowspeed_inline_InicializaSensores	1	1	294	1	2
94	__SetSensorType_7qG2_port_7qG2_000_inline_SetSensorLowspeed_inline_InicializaSensores	1	1	295	1	2
95	__SetSensorType_7qG2_type_7qG2_000_inline_SetSensorLowspeed_inline_InicializaSensores	1	1	296	1	2
96	__BipBranco_return	1	1	297	1	3
97	__lerSensor_return	1	1	298	1	10
98	__BipPreto_return	1	1	299	1	3
99	__SetSensorMode_7qG2_mode_7qG2_000_inline_SetSensorLowspeed_inline_InicializaSensores	1	1	300	1	2
100	__RecebeBoneco_return	1	1	301	1	4
101	__MandaTeste_return	1	1	302	1	3
102	__Rejeita_return	1	1	303	1	4
103	__LevantaBoneco_return	1	1	304	1	4
104	__MandarParar_return	1	1	305	1	3
105	__MandarSeguir_return	1	1	306	1	5
106	__constValNeg1	2	0	307	1	1
107	__MandaDesgirar_return	1	1	308	1	3
108	__RecebiDesGirei_return	1	1	309	1	5
109	__RecebiGirei_return	1	1	310	1	5
110	__constVal32	2	0	311	1	27
111	__MandaRejeitar_return	1	1	312	1	3
112	__constVal0	2	1	313	1	54
113	__constVal63	2	0	314	1	9
114	__constVal50	2	0	315	1	1
115	__constVal96	2	0	316	1	9
116	__PegaBoneco_return	1	1	317	1	5
117	__constValNeg30	2	0	318	1	2
118	__constVal1	2	0	319	1	22
119	__constValNeg70	2	0	320	1	2
120	__constValNeg110	2	0	321	1	1
121	__Pega_return	1	1	322	1	3
122	__CorBoneco_return	1	1	323	1	6
123	__constValNeg50	2	0	324	1	1
124	__SetSensorLowspeed_7qG2_bIsPowered_7qG2_000_inline_InicializaSensores	1	1	325	1	2
125	__constVal15	2	0	326	1	2
126	____ResetSensorSubroutine_return	1	1	327	1	6
127	__constVal14	2	0	328	1	2
128	__constVal11	2	0	329	1	1
129	__constVal5	2	0	330	1	7
130	__constVal4	2	0	331	1	1
131	__ResetSensorTmp	1	1	332	1	2
132	__ResetSensorPort	1	1	333	1	6
133	__LSWriteOptionsVar	1	1	334	1	2
134	__RLSBResult3	2	1	335	1	7
135	__RRNErr	1	1	336	1	3
136	__RLSBIterations3	1	1	337	1	4
137	__RLSBytesCount3	1	1	338	1	7
138	__constVal100	2	0	339	1	2
139	__PFTmp	1	1	340	1	1
140	____ReadLSBytes3_return	1	1	341	1	3
141	__constVal2	2	0	342	1	10
142	__constVal3	2	0	343	1	18
143	__CalibraFaixaBase_return	1	1	344	1	4
144	__InicializaSensores_return	1	1	345	1	3
145	__BonecoNaFrente_return	1	1	346	1	3
146	__MandaUs_return	1	1	347	1	3
147	__VoltaGarra_return	1	1	348	1	8
148	__SetSensorColorGreen_7qG2_port_7qG2_000_inline_InicializaSensores	1	1	349	1	4
149	__SetSensorLowspeed_7qG2_port_7qG2_000_inline_InicializaSensores	1	1	350	1	4
150	__BonecoAlvo_return	1	1	351	1	3
151	__SetSensorColorRed_7qG2_port_7qG2_000_inline_InicializaSensores	1	1	352	1	8
152	__nbip_return	1	1	353	1	5
153	____initialize_global_data_return	1	1	354	1	3
154	__bip_return	1	1	355	1	5
155	__PlaySound_return	1	1	356	1	7
156	__constVal8	2	0	357	1	1
157	__init_return	1	1	358	1	3
158	__TemBoneco_return	1	1	359	1	5
159	__consultor_return	1	1	360	1	3
160	__MRArgs	8	0	4	8	15
161	__MRArgs.Result	2	1	364	1	15
162	__MRArgs.QueueID	1	1	365	1	15
163	__MRArgs.Remove	1	1	366	1	15
164	__MRArgs.Message	7	0	368	4	15
165	__MRArgs.Message.Message_type	1	0	0	1	0
166	__SPTArgs	8	0	5	8	42
167	__SPTArgs.Result	2	1	372	1	42
168	__SPTArgs.Frequency	3	1	374	2	42
169	__SPTArgs.Duration	3	1	376	2	42
170	__SPTArgs.Loop	1	1	378	1	42
171	__SPTArgs.Volume	1	1	379	1	42
172	__CBTWArgs	8	0	3	8	19
173	__CBTWArgs.Result	2	1	380	1	19
174	__CBTWArgs.Connection	1	1	381	1	19
175	__CBTWArgs.Buffer	7	0	382	4	19
176	__CBTWArgs.Buffer.Buffer_type	1	0	0	1	0
177	__CLSRArgs3	8	0	4	12	5
178	__CLSRArgs3.Result	2	1	384	1	5
179	__CLSRArgs3.Port	1	1	385	1	5
180	__CLSRArgs3.Buffer	7	0	386	4	5
181	__CLSRArgs3.Buffer.Buffer_type	1	0	0	1	0
182	__CLSRArgs3.BufferLen	1	1	388	1	5
183	__TextOutArgs	8	0	4	16	6
184	__TextOutArgs.Result	2	1	392	1	6
185	__TextOutArgs.Location	8	0	2	4	6
186	__TextOutArgs.Location.X	4	1	396	2	6
187	__TextOutArgs.Location.Y	4	1	398	2	6
188	__TextOutArgs.Text	7	0	400	4	6
189	__TextOutArgs.Text.Text_type	1	0	0	1	0
190	__TextOutArgs.Options	5	1	404	4	6
191	__PointOutArgs	8	0	3	12	4
192	__PointOutArgs.Result	2	1	408	1	4
193	__PointOutArgs.Location	8	0	2	4	4
194	__PointOutArgs.Location.X	4	1	412	2	4
195	__PointOutArgs.Location.Y	4	1	414	2	4
196	__PointOutArgs.Options	5	1	416	4	4
197	__CLSCSArgs3	8	0	3	4	4
198	__CLSCSArgs3.Result	2	1	420	1	4
199	__CLSCSArgs3.Port	1	1	421	1	4
200	__CLSCSArgs3.BytesReady	1	1	422	1	4
201	__CLSWArgs3	8	0	4	12	5
202	__CLSWArgs3.Result	2	1	424	1	5
203	__CLSWArgs3.Port	1	1	425	1	5
204	__CLSWArgs3.Buffer	7	0	426	4	5
205	__CLSWArgs3.Buffer.Buffer_type	1	0	0	1	0
206	__CLSWArgs3.ReturnLen	1	1	428	1	5
207	__lerSensor_7qG2_leitura_7qG2_000	7	0	430	4	10
208	__lerSensor_7qG2_leitura_7qG2_000.__lerSensor_7qG2_leitura_7qG2_000_type	4	0	0	2	0
209	__LSWriteOptions	7	0	432	4	1
210	__LSWriteOptions.__LSWriteOptions_type	1	0	0	1	0
211	__RLSBbufLSWrite1	7	0	434	4	1
212	__RLSBbufLSWrite1.__RLSBbufLSWrite1_type	1	0	0	1	0
213	__RLSLastGoodRead3	7	0	436	4	2
214	__RLSLastGoodRead3.__RLSLastGoodRead3_type	1	0	0	1	0
215	__RLSReadBuf3	7	0	438	4	8
216	__RLSReadBuf3.__RLSReadBuf3_type	1	0	0	1	0
217	__SRSTmpBuf	7	0	440	4	36
218	__SRSTmpBuf.__SRSTmpBuf_type	1	0	0	1	0
219	__DCMessageWritePacket	7	0	442	4	6
220	__DCMessageWritePacket.__DCMessageWritePacket_type	1	0	0	1	0
221	__SRSFlattenBuf	7	0	444	4	12
222	__SRSFlattenBuf.__SRSFlattenBuf_type	1	0	0	1	0
223	__SRSSendBuf	7	0	446	4	12
224	__SRSSendBuf.__SRSSendBuf_type	1	0	0	1	0
#SOURCES
Clump	Line	PC	Source
0	140	0	#line 140 "C:\Users\Lucas\Desktop\UnB\Droid\sekksi2016\tentativa2\consultor_cagadinha.nxc"
0	141	0		subcall __initialize_global_data, ____initialize_global_data_return
0	140	2	#line 140 "C:\Users\Lucas\Desktop\UnB\Droid\sekksi2016\tentativa2\consultor_cagadinha.nxc"
0	140	2	#line 140 "C:\Users\Lucas\Desktop\UnB\Droid\sekksi2016\tentativa2\consultor_cagadinha.nxc"
0	141	2		subcall consultor, __consultor_return
0	140	5	#line 140 "C:\Users\Lucas\Desktop\UnB\Droid\sekksi2016\tentativa2\consultor_cagadinha.nxc"
0	141	5		exit -1, -1
1	5724	0		setin __constVal1, __ResetSensorPort, 5
1	5726	4		getin __ResetSensorTmp, __ResetSensorPort, 5
1	5727	8		brtst 5, __SensorStillInvalid, __ResetSensorTmp
1	5728	11		subret ____ResetSensorSubroutine_return
2	6632	0	#pragma macro 27
2	6632	0		acquire __CLSWMutex3
2	6632	1		index __LSWriteOptionsVar, __LSWriteOptions, __constVal3
2	6632	5		or __CLSWArgs3.Port, __constVal3, __LSWriteOptionsVar
2	6632	9		mov __CLSWArgs3.ReturnLen, __RLSBytesCount3
2	6632	11		mov __CLSWArgs3.Buffer, __RLSReadBuf3
2	6632	13		syscall 21, __CLSWArgs3
2	6632	16		mov __RLSBResult3, __CLSWArgs3.Result
2	6632	18		release __CLSWMutex3
2	6632	19	#line 6632 "NXTDefs.h"
2	6633	19		brtst 5, __RLSBError3, __RLSBResult3
2	6634	22		set __RLSBIterations3, 60
2	6636	25	#pragma macro 23
2	6636	25		acquire __CLSCSMutex3
2	6636	26		set __CLSCSArgs3.Port, 3
2	6636	29		syscall 23, __CLSCSArgs3
2	6636	32		mov __RLSBytesCount3, __CLSCSArgs3.BytesReady
2	6636	34		mov __RLSBResult3, __CLSCSArgs3.Result
2	6636	36		release __CLSCSMutex3
2	6636	37	#line 6636 "NXTDefs.h"
2	6637	37		sub __RLSBIterations3, __RLSBIterations3, __constVal1
2	6638	41		brtst 2, __RLSBError3, __RLSBIterations3
2	6639	44		brtst 0, __RLSBError3, __RLSBResult3
2	6640	47		brtst 4, __RLSBReadyToRead3, __RLSBResult3
2	6642	50		wait2 NA, __constVal1
2	6643	53		jmp __RLSBDoCheckStatus3
2	6645	55		brtst 4, __RLSBReturn3, __RLSBytesCount3
2	6646	58		arrinit __RLSReadBuf3, __constVal0, __RLSBytesCount3
2	6648	62	#pragma macro 25
2	6648	62		acquire __CLSRMutex3
2	6648	63		set __CLSRArgs3.Port, 3
2	6648	66		mov __CLSRArgs3.BufferLen, __RLSBytesCount3
2	6648	68		syscall 22, __CLSRArgs3
2	6648	71		mov __RLSReadBuf3, __CLSRArgs3.Buffer
2	6648	73		mov __RLSBResult3, __CLSRArgs3.Result
2	6648	75		release __CLSRMutex3
2	6648	76	#line 6648 "NXTDefs.h"
2	6649	76		brtst 5, __RLSBError3, __RLSBResult3
2	6650	79		mov __RLSLastGoodRead3, __RLSReadBuf3
2	6651	81		jmp __RLSBDone3
2	6653	83		mov __RLSReadBuf3, __RLSLastGoodRead3
2	6655	85		arrsize __RLSBytesCount3, __RLSReadBuf3
2	6657	88		subret ____ReadLSBytes3_return
3	7372	0	#line 7372 "NXCDefs.h"
3	7373	0		mov __signed_stack_001PlaySound, __PlaySound_7qG2_aCode_7qG2_000
3	7372	2	#line 7372 "NXCDefs.h"
3	7373	2	#line 7373 "NXCDefs.h"
3	7374	2		set __D0PlaySound, 0
3	7373	5	#line 7373 "NXCDefs.h"
3	7374	5		cmp 4, __D0PlaySound, __signed_stack_001PlaySound, __D0PlaySound
3	7373	9	#line 7373 "NXCDefs.h"
3	7374	9		brtst 4, __ASM_Label_56, __D0PlaySound
3	7373	12	#line 7373 "NXCDefs.h"
3	7374	12		set __signed_stack_001PlaySound, 600
3	7373	15	#line 7373 "NXCDefs.h"
3	7373	15	#line 7373 "NXCDefs.h"
3	7374	15		set __signed_stack_002PlaySound, 200
3	7373	18	#line 7373 "NXCDefs.h"
3	7373	18	#line 7373 "NXCDefs.h"
3	7374	18		set __signed_stack_003PlaySound, 4
3	7373	21	#line 7373 "NXCDefs.h"
3	7373	21	#line 7373 "NXCDefs.h"
3	7374	21		set __D0PlaySound, 0
3	7373	24	#line 7373 "NXCDefs.h"
3	7374	24		acquire __SPTArgsMutex
3	7373	25	#line 7373 "NXCDefs.h"
3	7374	25		mov __SPTArgs.Frequency, __signed_stack_001PlaySound
3	7373	28	#line 7373 "NXCDefs.h"
3	7374	28		mov __SPTArgs.Duration, __signed_stack_002PlaySound
3	7373	31	#line 7373 "NXCDefs.h"
3	7374	31		mov __SPTArgs.Volume, __signed_stack_003PlaySound
3	7373	34	#line 7373 "NXCDefs.h"
3	7374	34		mov __SPTArgs.Loop, __D0PlaySound
3	7373	37	#line 7373 "NXCDefs.h"
3	7374	37		syscall 10, __SPTArgs
3	7373	40	#line 7373 "NXCDefs.h"
3	7374	40		mov __D0PlaySound, __SPTArgs.Result
3	7373	43	#line 7373 "NXCDefs.h"
3	7374	43		release __SPTArgsMutex
3	7373	44	#line 7373 "NXCDefs.h"
3	7374	44	#line 7374 "NXCDefs.h"
3	7375	44		jmp __ASM_Label_65
3	7374	46	#line 7374 "NXCDefs.h"
3	7375	46		mov __signed_stack_001PlaySound, __PlaySound_7qG2_aCode_7qG2_000
3	7374	48	#line 7374 "NXCDefs.h"
3	7375	48	#line 7375 "NXCDefs.h"
3	7376	48		set __D0PlaySound, 1
3	7375	51	#line 7375 "NXCDefs.h"
3	7376	51		cmp 4, __D0PlaySound, __signed_stack_001PlaySound, __D0PlaySound
3	7376	55	#line 7376 "NXCDefs.h"
3	7377	55		brtst 4, __ASM_Label_68, __D0PlaySound
3	7376	58	#line 7376 "NXCDefs.h"
3	7377	58		set __signed_stack_001PlaySound, 600
3	7376	61	#line 7376 "NXCDefs.h"
3	7376	61	#line 7376 "NXCDefs.h"
3	7377	61		set __signed_stack_002PlaySound, 150
3	7376	64	#line 7376 "NXCDefs.h"
3	7376	64	#line 7376 "NXCDefs.h"
3	7377	64		set __signed_stack_003PlaySound, 4
3	7376	67	#line 7376 "NXCDefs.h"
3	7376	67	#line 7376 "NXCDefs.h"
3	7377	67		set __D0PlaySound, 0
3	7376	70	#line 7376 "NXCDefs.h"
3	7377	70		acquire __SPTArgsMutex
3	7376	71	#line 7376 "NXCDefs.h"
3	7377	71		mov __SPTArgs.Frequency, __signed_stack_001PlaySound
3	7376	74	#line 7376 "NXCDefs.h"
3	7377	74		mov __SPTArgs.Duration, __signed_stack_002PlaySound
3	7376	77	#line 7376 "NXCDefs.h"
3	7377	77		mov __SPTArgs.Volume, __signed_stack_003PlaySound
3	7376	80	#line 7376 "NXCDefs.h"
3	7377	80		mov __SPTArgs.Loop, __D0PlaySound
3	7376	83	#line 7376 "NXCDefs.h"
3	7377	83		syscall 10, __SPTArgs
3	7376	86	#line 7376 "NXCDefs.h"
3	7377	86		mov __D0PlaySound, __SPTArgs.Result
3	7376	89	#line 7376 "NXCDefs.h"
3	7377	89		release __SPTArgsMutex
3	7376	90	#line 7376 "NXCDefs.h"
3	7377	90	#line 7377 "NXCDefs.h"
3	7378	90		wait2 NA, __constVal200
3	7377	93	#line 7377 "NXCDefs.h"
3	7377	93	#line 7377 "NXCDefs.h"
3	7378	93	#line 7378 "NXCDefs.h"
3	7379	93		set __signed_stack_001PlaySound, 600
3	7378	96	#line 7378 "NXCDefs.h"
3	7378	96	#line 7378 "NXCDefs.h"
3	7379	96		set __signed_stack_002PlaySound, 150
3	7378	99	#line 7378 "NXCDefs.h"
3	7378	99	#line 7378 "NXCDefs.h"
3	7379	99		set __signed_stack_003PlaySound, 4
3	7378	102	#line 7378 "NXCDefs.h"
3	7378	102	#line 7378 "NXCDefs.h"
3	7379	102		set __D0PlaySound, 0
3	7378	105	#line 7378 "NXCDefs.h"
3	7379	105		acquire __SPTArgsMutex
3	7378	106	#line 7378 "NXCDefs.h"
3	7379	106		mov __SPTArgs.Frequency, __signed_stack_001PlaySound
3	7378	109	#line 7378 "NXCDefs.h"
3	7379	109		mov __SPTArgs.Duration, __signed_stack_002PlaySound
3	7378	112	#line 7378 "NXCDefs.h"
3	7379	112		mov __SPTArgs.Volume, __signed_stack_003PlaySound
3	7378	115	#line 7378 "NXCDefs.h"
3	7379	115		mov __SPTArgs.Loop, __D0PlaySound
3	7378	118	#line 7378 "NXCDefs.h"
3	7379	118		syscall 10, __SPTArgs
3	7378	121	#line 7378 "NXCDefs.h"
3	7379	121		mov __D0PlaySound, __SPTArgs.Result
3	7378	124	#line 7378 "NXCDefs.h"
3	7379	124		release __SPTArgsMutex
3	7378	125	#line 7378 "NXCDefs.h"
3	7379	125	#line 7379 "NXCDefs.h"
3	7380	125		wait2 NA, __constVal150
3	7379	128	#line 7379 "NXCDefs.h"
3	7379	128	#line 7379 "NXCDefs.h"
3	7381	128	#line 7381 "NXCDefs.h"
3	7382	128		jmp __ASM_Label_85
3	7381	130	#line 7381 "NXCDefs.h"
3	7382	130		mov __signed_stack_001PlaySound, __PlaySound_7qG2_aCode_7qG2_000
3	7381	132	#line 7381 "NXCDefs.h"
3	7382	132	#line 7382 "NXCDefs.h"
3	7383	132		set __D0PlaySound, 3
3	7382	135	#line 7382 "NXCDefs.h"
3	7383	135		cmp 4, __D0PlaySound, __signed_stack_001PlaySound, __D0PlaySound
3	7382	139	#line 7382 "NXCDefs.h"
3	7383	139		brtst 4, __ASM_Label_88, __D0PlaySound
3	7382	142	#line 7382 "NXCDefs.h"
3	7383	142		set __PlaySound_7qG2_i_7qG2_001, 4
3	7382	145	#line 7382 "NXCDefs.h"
3	7382	145	#line 7382 "NXCDefs.h"
3	7383	145		mov __signed_stack_001PlaySound, __PlaySound_7qG2_i_7qG2_001
3	7382	147	#line 7382 "NXCDefs.h"
3	7382	147	#line 7382 "NXCDefs.h"
3	7383	147		set __D0PlaySound, 8
3	7382	150	#line 7382 "NXCDefs.h"
3	7383	150		cmp 0, __D0PlaySound, __signed_stack_001PlaySound, __D0PlaySound
3	7382	154	#line 7382 "NXCDefs.h"
3	7383	154		brtst 4, __ASM_Label_90, __D0PlaySound
3	7382	157	#line 7382 "NXCDefs.h"
3	7383	157		jmp __ASM_Label_91
3	7383	159	#line 7383 "NXCDefs.h"
3	7384	159		add __PlaySound_7qG2_i_7qG2_001, __PlaySound_7qG2_i_7qG2_001, __constVal1
3	7384	163	#line 7384 "NXCDefs.h"
3	7385	163		jmp __ASM_Label_89
3	7384	165	#line 7384 "NXCDefs.h"
3	7385	165		set __signed_stack_001PlaySound, 523
3	7384	168	#line 7384 "NXCDefs.h"
3	7384	168	#line 7384 "NXCDefs.h"
3	7384	168	#line 7384 "NXCDefs.h"
3	7385	168		mul __signed_stack_001PlaySound, __signed_stack_001PlaySound, __PlaySound_7qG2_i_7qG2_001
3	7384	172	#line 7384 "NXCDefs.h"
3	7384	172	#line 7384 "NXCDefs.h"
3	7385	172		set __D0PlaySound, 4
3	7384	175	#line 7384 "NXCDefs.h"
3	7385	175		div __signed_stack_001PlaySound, __signed_stack_001PlaySound, __D0PlaySound
3	7384	179	#line 7384 "NXCDefs.h"
3	7384	179	#line 7384 "NXCDefs.h"
3	7385	179		set __signed_stack_002PlaySound, 100
3	7384	182	#line 7384 "NXCDefs.h"
3	7384	182	#line 7384 "NXCDefs.h"
3	7385	182		set __signed_stack_003PlaySound, 4
3	7384	185	#line 7384 "NXCDefs.h"
3	7384	185	#line 7384 "NXCDefs.h"
3	7385	185		set __D0PlaySound, 0
3	7384	188	#line 7384 "NXCDefs.h"
3	7385	188		acquire __SPTArgsMutex
3	7384	189	#line 7384 "NXCDefs.h"
3	7385	189		mov __SPTArgs.Frequency, __signed_stack_001PlaySound
3	7384	192	#line 7384 "NXCDefs.h"
3	7385	192		mov __SPTArgs.Duration, __signed_stack_002PlaySound
3	7384	195	#line 7384 "NXCDefs.h"
3	7385	195		mov __SPTArgs.Volume, __signed_stack_003PlaySound
3	7384	198	#line 7384 "NXCDefs.h"
3	7385	198		mov __SPTArgs.Loop, __D0PlaySound
3	7384	201	#line 7384 "NXCDefs.h"
3	7385	201		syscall 10, __SPTArgs
3	7384	204	#line 7384 "NXCDefs.h"
3	7385	204		mov __D0PlaySound, __SPTArgs.Result
3	7384	207	#line 7384 "NXCDefs.h"
3	7385	207		release __SPTArgsMutex
3	7384	208	#line 7384 "NXCDefs.h"
3	7385	208	#line 7385 "NXCDefs.h"
3	7386	208		wait2 NA, __constVal100
3	7385	211	#line 7385 "NXCDefs.h"
3	7385	211	#line 7385 "NXCDefs.h"
3	7387	211	#line 7387 "NXCDefs.h"
3	7388	211		jmp __ASM_Label_92
3	7387	213	#line 7387 "NXCDefs.h"
3	7387	213	#line 7387 "NXCDefs.h"
3	7388	213		jmp __ASM_Label_105
3	7387	215	#line 7387 "NXCDefs.h"
3	7388	215		mov __signed_stack_001PlaySound, __PlaySound_7qG2_aCode_7qG2_000
3	7387	217	#line 7387 "NXCDefs.h"
3	7388	217	#line 7388 "NXCDefs.h"
3	7389	217		set __D0PlaySound, 2
3	7388	220	#line 7388 "NXCDefs.h"
3	7389	220		cmp 4, __D0PlaySound, __signed_stack_001PlaySound, __D0PlaySound
3	7388	224	#line 7388 "NXCDefs.h"
3	7389	224		brtst 4, __ASM_Label_108, __D0PlaySound
3	7388	227	#line 7388 "NXCDefs.h"
3	7389	227		set __PlaySound_7qG2_i_7qG2_001, 7
3	7388	230	#line 7388 "NXCDefs.h"
3	7388	230	#line 7388 "NXCDefs.h"
3	7389	230		mov __signed_stack_001PlaySound, __PlaySound_7qG2_i_7qG2_001
3	7388	232	#line 7388 "NXCDefs.h"
3	7388	232	#line 7388 "NXCDefs.h"
3	7389	232		set __D0PlaySound, 3
3	7388	235	#line 7388 "NXCDefs.h"
3	7389	235		cmp 1, __D0PlaySound, __signed_stack_001PlaySound, __D0PlaySound
3	7388	239	#line 7388 "NXCDefs.h"
3	7389	239		brtst 4, __ASM_Label_110, __D0PlaySound
3	7388	242	#line 7388 "NXCDefs.h"
3	7389	242		jmp __ASM_Label_111
3	7389	244	#line 7389 "NXCDefs.h"
3	7390	244		sub __PlaySound_7qG2_i_7qG2_001, __PlaySound_7qG2_i_7qG2_001, __constVal1
3	7390	248	#line 7390 "NXCDefs.h"
3	7391	248		jmp __ASM_Label_109
3	7390	250	#line 7390 "NXCDefs.h"
3	7391	250		set __signed_stack_001PlaySound, 523
3	7390	253	#line 7390 "NXCDefs.h"
3	7390	253	#line 7390 "NXCDefs.h"
3	7390	253	#line 7390 "NXCDefs.h"
3	7391	253		mul __signed_stack_001PlaySound, __signed_stack_001PlaySound, __PlaySound_7qG2_i_7qG2_001
3	7390	257	#line 7390 "NXCDefs.h"
3	7390	257	#line 7390 "NXCDefs.h"
3	7391	257		set __D0PlaySound, 4
3	7390	260	#line 7390 "NXCDefs.h"
3	7391	260		div __signed_stack_001PlaySound, __signed_stack_001PlaySound, __D0PlaySound
3	7390	264	#line 7390 "NXCDefs.h"
3	7390	264	#line 7390 "NXCDefs.h"
3	7391	264		set __signed_stack_002PlaySound, 100
3	7390	267	#line 7390 "NXCDefs.h"
3	7390	267	#line 7390 "NXCDefs.h"
3	7391	267		set __signed_stack_003PlaySound, 4
3	7390	270	#line 7390 "NXCDefs.h"
3	7390	270	#line 7390 "NXCDefs.h"
3	7391	270		set __D0PlaySound, 0
3	7390	273	#line 7390 "NXCDefs.h"
3	7391	273		acquire __SPTArgsMutex
3	7390	274	#line 7390 "NXCDefs.h"
3	7391	274		mov __SPTArgs.Frequency, __signed_stack_001PlaySound
3	7390	277	#line 7390 "NXCDefs.h"
3	7391	277		mov __SPTArgs.Duration, __signed_stack_002PlaySound
3	7390	280	#line 7390 "NXCDefs.h"
3	7391	280		mov __SPTArgs.Volume, __signed_stack_003PlaySound
3	7390	283	#line 7390 "NXCDefs.h"
3	7391	283		mov __SPTArgs.Loop, __D0PlaySound
3	7390	286	#line 7390 "NXCDefs.h"
3	7391	286		syscall 10, __SPTArgs
3	7390	289	#line 7390 "NXCDefs.h"
3	7391	289		mov __D0PlaySound, __SPTArgs.Result
3	7390	292	#line 7390 "NXCDefs.h"
3	7391	292		release __SPTArgsMutex
3	7390	293	#line 7390 "NXCDefs.h"
3	7391	293	#line 7391 "NXCDefs.h"
3	7392	293		wait2 NA, __constVal100
3	7391	296	#line 7391 "NXCDefs.h"
3	7391	296	#line 7391 "NXCDefs.h"
3	7393	296	#line 7393 "NXCDefs.h"
3	7394	296		jmp __ASM_Label_112
3	7393	298	#line 7393 "NXCDefs.h"
3	7393	298	#line 7393 "NXCDefs.h"
3	7394	298		jmp __ASM_Label_125
3	7393	300	#line 7393 "NXCDefs.h"
3	7394	300		mov __signed_stack_001PlaySound, __PlaySound_7qG2_aCode_7qG2_000
3	7393	302	#line 7393 "NXCDefs.h"
3	7394	302	#line 7394 "NXCDefs.h"
3	7395	302		set __D0PlaySound, 4
3	7394	305	#line 7394 "NXCDefs.h"
3	7395	305		cmp 4, __D0PlaySound, __signed_stack_001PlaySound, __D0PlaySound
3	7395	309	#line 7395 "NXCDefs.h"
3	7396	309		brtst 4, __ASM_Label_128, __D0PlaySound
3	7395	312	#line 7395 "NXCDefs.h"
3	7396	312		set __signed_stack_001PlaySound, 100
3	7395	315	#line 7395 "NXCDefs.h"
3	7395	315	#line 7395 "NXCDefs.h"
3	7396	315		set __signed_stack_002PlaySound, 500
3	7395	318	#line 7395 "NXCDefs.h"
3	7395	318	#line 7395 "NXCDefs.h"
3	7396	318		set __signed_stack_003PlaySound, 4
3	7395	321	#line 7395 "NXCDefs.h"
3	7395	321	#line 7395 "NXCDefs.h"
3	7396	321		set __D0PlaySound, 0
3	7395	324	#line 7395 "NXCDefs.h"
3	7396	324		acquire __SPTArgsMutex
3	7395	325	#line 7395 "NXCDefs.h"
3	7396	325		mov __SPTArgs.Frequency, __signed_stack_001PlaySound
3	7395	328	#line 7395 "NXCDefs.h"
3	7396	328		mov __SPTArgs.Duration, __signed_stack_002PlaySound
3	7395	331	#line 7395 "NXCDefs.h"
3	7396	331		mov __SPTArgs.Volume, __signed_stack_003PlaySound
3	7395	334	#line 7395 "NXCDefs.h"
3	7396	334		mov __SPTArgs.Loop, __D0PlaySound
3	7395	337	#line 7395 "NXCDefs.h"
3	7396	337		syscall 10, __SPTArgs
3	7395	340	#line 7395 "NXCDefs.h"
3	7396	340		mov __D0PlaySound, __SPTArgs.Result
3	7395	343	#line 7395 "NXCDefs.h"
3	7396	343		release __SPTArgsMutex
3	7395	344	#line 7395 "NXCDefs.h"
3	7396	344	#line 7396 "NXCDefs.h"
3	7397	344		wait2 NA, __constVal500
3	7396	347	#line 7396 "NXCDefs.h"
3	7396	347	#line 7396 "NXCDefs.h"
3	7398	347	#line 7398 "NXCDefs.h"
3	7399	347		jmp __ASM_Label_137
3	7398	349	#line 7398 "NXCDefs.h"
3	7399	349		mov __signed_stack_001PlaySound, __PlaySound_7qG2_aCode_7qG2_000
3	7398	351	#line 7398 "NXCDefs.h"
3	7399	351	#line 7399 "NXCDefs.h"
3	7400	351		set __D0PlaySound, 5
3	7399	354	#line 7399 "NXCDefs.h"
3	7400	354		cmp 4, __D0PlaySound, __signed_stack_001PlaySound, __D0PlaySound
3	7399	358	#line 7399 "NXCDefs.h"
3	7400	358		brtst 4, __ASM_Label_140, __D0PlaySound
3	7399	361	#line 7399 "NXCDefs.h"
3	7400	361		set __PlaySound_7qG2_i_7qG2_001, 4
3	7399	364	#line 7399 "NXCDefs.h"
3	7399	364	#line 7399 "NXCDefs.h"
3	7400	364		mov __signed_stack_001PlaySound, __PlaySound_7qG2_i_7qG2_001
3	7399	366	#line 7399 "NXCDefs.h"
3	7399	366	#line 7399 "NXCDefs.h"
3	7400	366		set __D0PlaySound, 8
3	7399	369	#line 7399 "NXCDefs.h"
3	7400	369		cmp 0, __D0PlaySound, __signed_stack_001PlaySound, __D0PlaySound
3	7399	373	#line 7399 "NXCDefs.h"
3	7400	373		brtst 4, __ASM_Label_142, __D0PlaySound
3	7399	376	#line 7399 "NXCDefs.h"
3	7400	376		jmp __ASM_Label_143
3	7400	378	#line 7400 "NXCDefs.h"
3	7401	378		add __PlaySound_7qG2_i_7qG2_001, __PlaySound_7qG2_i_7qG2_001, __constVal1
3	7401	382	#line 7401 "NXCDefs.h"
3	7402	382		jmp __ASM_Label_141
3	7401	384	#line 7401 "NXCDefs.h"
3	7402	384		set __signed_stack_001PlaySound, 523
3	7401	387	#line 7401 "NXCDefs.h"
3	7401	387	#line 7401 "NXCDefs.h"
3	7401	387	#line 7401 "NXCDefs.h"
3	7402	387		mul __signed_stack_001PlaySound, __signed_stack_001PlaySound, __PlaySound_7qG2_i_7qG2_001
3	7401	391	#line 7401 "NXCDefs.h"
3	7401	391	#line 7401 "NXCDefs.h"
3	7402	391		set __D0PlaySound, 4
3	7401	394	#line 7401 "NXCDefs.h"
3	7402	394		div __signed_stack_001PlaySound, __signed_stack_001PlaySound, __D0PlaySound
3	7401	398	#line 7401 "NXCDefs.h"
3	7401	398	#line 7401 "NXCDefs.h"
3	7402	398		set __signed_stack_002PlaySound, 50
3	7401	401	#line 7401 "NXCDefs.h"
3	7401	401	#line 7401 "NXCDefs.h"
3	7402	401		set __signed_stack_003PlaySound, 4
3	7401	404	#line 7401 "NXCDefs.h"
3	7401	404	#line 7401 "NXCDefs.h"
3	7402	404		set __D0PlaySound, 0
3	7401	407	#line 7401 "NXCDefs.h"
3	7402	407		acquire __SPTArgsMutex
3	7401	408	#line 7401 "NXCDefs.h"
3	7402	408		mov __SPTArgs.Frequency, __signed_stack_001PlaySound
3	7401	411	#line 7401 "NXCDefs.h"
3	7402	411		mov __SPTArgs.Duration, __signed_stack_002PlaySound
3	7401	414	#line 7401 "NXCDefs.h"
3	7402	414		mov __SPTArgs.Volume, __signed_stack_003PlaySound
3	7401	417	#line 7401 "NXCDefs.h"
3	7402	417		mov __SPTArgs.Loop, __D0PlaySound
3	7401	420	#line 7401 "NXCDefs.h"
3	7402	420		syscall 10, __SPTArgs
3	7401	423	#line 7401 "NXCDefs.h"
3	7402	423		mov __D0PlaySound, __SPTArgs.Result
3	7401	426	#line 7401 "NXCDefs.h"
3	7402	426		release __SPTArgsMutex
3	7401	427	#line 7401 "NXCDefs.h"
3	7402	427	#line 7402 "NXCDefs.h"
3	7403	427		wait2 NA, __constVal50
3	7402	430	#line 7402 "NXCDefs.h"
3	7402	430	#line 7402 "NXCDefs.h"
3	7414	430	#line 7414 "NXCDefs.h"
3	7415	430		jmp __ASM_Label_144
3	7414	432	#line 7414 "NXCDefs.h"
3	7414	432	#line 7414 "NXCDefs.h"
3	7414	432	#line 7414 "NXCDefs.h"
3	7414	432	#line 7414 "NXCDefs.h"
3	7414	432	#line 7414 "NXCDefs.h"
3	7414	432	#line 7414 "NXCDefs.h"
3	7414	432	#line 7414 "NXCDefs.h"
3	7414	432	#line 7414 "NXCDefs.h"
3	7415	432		subret __PlaySound_return
4	125	0	#line 125 "C:\Users\Lucas\Desktop\UnB\Droid\sekksi2016\tentativa2\consultor_cagadinha.nxc"
4	126	0		set __PlaySound_7qG2_aCode_7qG2_000, 2
4	125	3	#line 125 "C:\Users\Lucas\Desktop\UnB\Droid\sekksi2016\tentativa2\consultor_cagadinha.nxc"
4	125	3	#line 125 "C:\Users\Lucas\Desktop\UnB\Droid\sekksi2016\tentativa2\consultor_cagadinha.nxc"
4	126	3		subcall PlaySound, __PlaySound_return
4	125	6	#line 125 "C:\Users\Lucas\Desktop\UnB\Droid\sekksi2016\tentativa2\consultor_cagadinha.nxc"
4	128	6	#line 128 "C:\Users\Lucas\Desktop\UnB\Droid\sekksi2016\tentativa2\consultor_cagadinha.nxc"
4	129	6		subret __bip_return
5	132	0	#line 132 "C:\Users\Lucas\Desktop\UnB\Droid\sekksi2016\tentativa2\consultor_cagadinha.nxc"
5	133	0		set __nbip_7qG2_i_7qG2_000, 0
5	132	3	#line 132 "C:\Users\Lucas\Desktop\UnB\Droid\sekksi2016\tentativa2\consultor_cagadinha.nxc"
5	132	3	#line 132 "C:\Users\Lucas\Desktop\UnB\Droid\sekksi2016\tentativa2\consultor_cagadinha.nxc"
5	133	3		mov __signed_stack_001nbip, __nbip_7qG2_i_7qG2_000
5	132	5	#line 132 "C:\Users\Lucas\Desktop\UnB\Droid\sekksi2016\tentativa2\consultor_cagadinha.nxc"
5	132	5	#line 132 "C:\Users\Lucas\Desktop\UnB\Droid\sekksi2016\tentativa2\consultor_cagadinha.nxc"
5	133	5		mov __D0nbip, __nbip_7qG2_n_7qG2_000
5	132	7	#line 132 "C:\Users\Lucas\Desktop\UnB\Droid\sekksi2016\tentativa2\consultor_cagadinha.nxc"
5	133	7		cmp 0, __D0nbip, __signed_stack_001nbip, __D0nbip
5	132	11	#line 132 "C:\Users\Lucas\Desktop\UnB\Droid\sekksi2016\tentativa2\consultor_cagadinha.nxc"
5	133	11		brtst 4, __ASM_Label_561, __D0nbip
5	132	14	#line 132 "C:\Users\Lucas\Desktop\UnB\Droid\sekksi2016\tentativa2\consultor_cagadinha.nxc"
5	133	14		jmp __ASM_Label_562
5	133	16	#line 133 "C:\Users\Lucas\Desktop\UnB\Droid\sekksi2016\tentativa2\consultor_cagadinha.nxc"
5	134	16		add __nbip_7qG2_i_7qG2_000, __nbip_7qG2_i_7qG2_000, __constVal1
5	134	20	#line 134 "C:\Users\Lucas\Desktop\UnB\Droid\sekksi2016\tentativa2\consultor_cagadinha.nxc"
5	135	20		jmp __ASM_Label_560
5	134	22	#line 134 "C:\Users\Lucas\Desktop\UnB\Droid\sekksi2016\tentativa2\consultor_cagadinha.nxc"
5	135	22		subcall bip, __bip_return
5	134	25	#line 134 "C:\Users\Lucas\Desktop\UnB\Droid\sekksi2016\tentativa2\consultor_cagadinha.nxc"
5	138	25	#line 138 "C:\Users\Lucas\Desktop\UnB\Droid\sekksi2016\tentativa2\consultor_cagadinha.nxc"
5	139	25		jmp __ASM_Label_563
5	138	27	#line 138 "C:\Users\Lucas\Desktop\UnB\Droid\sekksi2016\tentativa2\consultor_cagadinha.nxc"
5	138	27	#line 138 "C:\Users\Lucas\Desktop\UnB\Droid\sekksi2016\tentativa2\consultor_cagadinha.nxc"
5	139	27		subret __nbip_return
6	147	0	#line 147 "C:\Users\Lucas\Desktop\UnB\Droid\sekksi2016\tentativa2\consultor_cagadinha.nxc"
6	148	0		subcall init, __init_return
6	147	3	#line 147 "C:\Users\Lucas\Desktop\UnB\Droid\sekksi2016\tentativa2\consultor_cagadinha.nxc"
6	152	3	#line 152 "C:\Users\Lucas\Desktop\UnB\Droid\sekksi2016\tentativa2\consultor_cagadinha.nxc"
6	153	3		set __D0consultor, 1
6	154	6	#line 154 "C:\Users\Lucas\Desktop\UnB\Droid\sekksi2016\tentativa2\consultor_cagadinha.nxc"
6	155	6		tst 5, __D0consultor, __D0consultor
6	154	9	#line 154 "C:\Users\Lucas\Desktop\UnB\Droid\sekksi2016\tentativa2\consultor_cagadinha.nxc"
6	155	9		brtst 4, __ASM_Label_569, __D0consultor
6	154	12	#line 154 "C:\Users\Lucas\Desktop\UnB\Droid\sekksi2016\tentativa2\consultor_cagadinha.nxc"
6	155	12	#pragma macro 9
6	155	12		acquire __MRMutex
6	155	13		mov __MRArgs.QueueID, __constVal2
6	155	15		mov __MRArgs.Remove, __constVal1
6	155	17		set __RRNTmpVal, 0
6	155	20		syscall 27, __MRArgs
6	155	23		unflatten __RRNTmpVal, __RRNErr, __MRArgs.Message, __RRNTmpVal
6	155	28		mov __consultor_7qG2_mensagem_7qG2_000, __RRNTmpVal
6	155	30		mov __D0consultor, __MRArgs.Result
6	155	33		release __MRMutex
6	5387	34	#line 5387 "C:\Users\Lucas\Desktop\UnB\Droid\sekksi2016\tentativa2\consultor_cagadinha.nxc"
6	154	34	#line 154 "C:\Users\Lucas\Desktop\UnB\Droid\sekksi2016\tentativa2\consultor_cagadinha.nxc"
6	154	34	#line 154 "C:\Users\Lucas\Desktop\UnB\Droid\sekksi2016\tentativa2\consultor_cagadinha.nxc"
6	157	34	#line 157 "C:\Users\Lucas\Desktop\UnB\Droid\sekksi2016\tentativa2\consultor_cagadinha.nxc"
6	158	34		subcall TemBoneco, __TemBoneco_return
6	157	37	#line 157 "C:\Users\Lucas\Desktop\UnB\Droid\sekksi2016\tentativa2\consultor_cagadinha.nxc"
6	158	37		mov __D0consultor, __D0TemBoneco
6	158	39	#line 158 "C:\Users\Lucas\Desktop\UnB\Droid\sekksi2016\tentativa2\consultor_cagadinha.nxc"
6	159	39		tst 5, __D0consultor, __D0consultor
6	158	42	#line 158 "C:\Users\Lucas\Desktop\UnB\Droid\sekksi2016\tentativa2\consultor_cagadinha.nxc"
6	159	42		brtst 4, __ASM_Label_574, __D0consultor
6	158	45	#line 158 "C:\Users\Lucas\Desktop\UnB\Droid\sekksi2016\tentativa2\consultor_cagadinha.nxc"
6	159	45		subcall BonecoNaFrente, __BonecoNaFrente_return
6	158	47	#line 158 "C:\Users\Lucas\Desktop\UnB\Droid\sekksi2016\tentativa2\consultor_cagadinha.nxc"
6	162	47	#line 162 "C:\Users\Lucas\Desktop\UnB\Droid\sekksi2016\tentativa2\consultor_cagadinha.nxc"
6	163	47		jmp __ASM_Label_575
6	162	49	#line 162 "C:\Users\Lucas\Desktop\UnB\Droid\sekksi2016\tentativa2\consultor_cagadinha.nxc"
6	163	49		subcall MandaUs, __MandaUs_return
6	162	51	#line 162 "C:\Users\Lucas\Desktop\UnB\Droid\sekksi2016\tentativa2\consultor_cagadinha.nxc"
6	165	51	#line 165 "C:\Users\Lucas\Desktop\UnB\Droid\sekksi2016\tentativa2\consultor_cagadinha.nxc"
6	165	51	#line 165 "C:\Users\Lucas\Desktop\UnB\Droid\sekksi2016\tentativa2\consultor_cagadinha.nxc"
6	166	51		mov __signed_stack_001consultor, __consultor_7qG2_mensagem_7qG2_000
6	165	53	#line 165 "C:\Users\Lucas\Desktop\UnB\Droid\sekksi2016\tentativa2\consultor_cagadinha.nxc"
6	166	53	#line 166 "C:\Users\Lucas\Desktop\UnB\Droid\sekksi2016\tentativa2\consultor_cagadinha.nxc"
6	167	53		set __D0consultor, 7
6	166	56	#line 166 "C:\Users\Lucas\Desktop\UnB\Droid\sekksi2016\tentativa2\consultor_cagadinha.nxc"
6	167	56		cmp 4, __D0consultor, __signed_stack_001consultor, __D0consultor
6	167	60	#line 167 "C:\Users\Lucas\Desktop\UnB\Droid\sekksi2016\tentativa2\consultor_cagadinha.nxc"
6	168	60		brtst 4, __ASM_Label_578, __D0consultor
6	167	63	#line 167 "C:\Users\Lucas\Desktop\UnB\Droid\sekksi2016\tentativa2\consultor_cagadinha.nxc"
6	168	63		subcall CalibraFaixaBase, __CalibraFaixaBase_return
6	167	65	#line 167 "C:\Users\Lucas\Desktop\UnB\Droid\sekksi2016\tentativa2\consultor_cagadinha.nxc"
6	170	65	#line 170 "C:\Users\Lucas\Desktop\UnB\Droid\sekksi2016\tentativa2\consultor_cagadinha.nxc"
6	172	65	#line 172 "C:\Users\Lucas\Desktop\UnB\Droid\sekksi2016\tentativa2\consultor_cagadinha.nxc"
6	173	65		jmp __ASM_Label_568
6	172	67	#line 172 "C:\Users\Lucas\Desktop\UnB\Droid\sekksi2016\tentativa2\consultor_cagadinha.nxc"
6	172	67	#line 172 "C:\Users\Lucas\Desktop\UnB\Droid\sekksi2016\tentativa2\consultor_cagadinha.nxc"
6	173	67		subret __consultor_return
7	174	0	#line 174 "C:\Users\Lucas\Desktop\UnB\Droid\sekksi2016\tentativa2\consultor_cagadinha.nxc"
7	175	0		subcall InicializaSensores, __InicializaSensores_return
7	174	3	#line 174 "C:\Users\Lucas\Desktop\UnB\Droid\sekksi2016\tentativa2\consultor_cagadinha.nxc"
7	175	3	#line 175 "C:\Users\Lucas\Desktop\UnB\Droid\sekksi2016\tentativa2\consultor_cagadinha.nxc"
7	176	3		subcall VoltaGarra, __VoltaGarra_return
7	175	6	#line 175 "C:\Users\Lucas\Desktop\UnB\Droid\sekksi2016\tentativa2\consultor_cagadinha.nxc"
7	176	6	#line 176 "C:\Users\Lucas\Desktop\UnB\Droid\sekksi2016\tentativa2\consultor_cagadinha.nxc"
7	177	6		subcall BonecoAlvo, __BonecoAlvo_return
7	176	9	#line 176 "C:\Users\Lucas\Desktop\UnB\Droid\sekksi2016\tentativa2\consultor_cagadinha.nxc"
7	178	9	#line 178 "C:\Users\Lucas\Desktop\UnB\Droid\sekksi2016\tentativa2\consultor_cagadinha.nxc"
7	179	9		subcall CalibraFaixaBase, __CalibraFaixaBase_return
7	178	11	#line 178 "C:\Users\Lucas\Desktop\UnB\Droid\sekksi2016\tentativa2\consultor_cagadinha.nxc"
7	180	11	#line 180 "C:\Users\Lucas\Desktop\UnB\Droid\sekksi2016\tentativa2\consultor_cagadinha.nxc"
7	181	11		set BonecosCapturados, 0
7	180	14	#line 180 "C:\Users\Lucas\Desktop\UnB\Droid\sekksi2016\tentativa2\consultor_cagadinha.nxc"
7	180	14	#line 180 "C:\Users\Lucas\Desktop\UnB\Droid\sekksi2016\tentativa2\consultor_cagadinha.nxc"
7	184	14	#line 184 "C:\Users\Lucas\Desktop\UnB\Droid\sekksi2016\tentativa2\consultor_cagadinha.nxc"
7	185	14		subret __init_return
8	186	0	#line 186 "C:\Users\Lucas\Desktop\UnB\Droid\sekksi2016\tentativa2\consultor_cagadinha.nxc"
8	187	0		set __SetSensorColorRed_7qG2_port_7qG2_000_inline_InicializaSensores, 0
8	186	3	#line 186 "C:\Users\Lucas\Desktop\UnB\Droid\sekksi2016\tentativa2\consultor_cagadinha.nxc"
8	4577	3	#line 4577 "NXCDefs.h"
8	4578	3	#pragma macro 6
8	4578	3		setin __constVal14, __SetSensorColorRed_7qG2_port_7qG2_000_inline_InicializaSensores, 0
8	4578	7		setin __constVal128, __SetSensorColorRed_7qG2_port_7qG2_000_inline_InicializaSensores, 1
8	4578	11		mov __ResetSensorPort, __SetSensorColorRed_7qG2_port_7qG2_000_inline_InicializaSensores
8	4578	13		subcall __ResetSensorSubroutine, ____ResetSensorSubroutine_return
8	5470	15	#line 5470 "NXCDefs.h"
8	4577	15	#line 4577 "NXCDefs.h"
8	186	15	#line 186 "C:\Users\Lucas\Desktop\UnB\Droid\sekksi2016\tentativa2\consultor_cagadinha.nxc"
8	187	15	#line 187 "C:\Users\Lucas\Desktop\UnB\Droid\sekksi2016\tentativa2\consultor_cagadinha.nxc"
8	188	15		set __SetSensorColorRed_7qG2_port_7qG2_000_inline_InicializaSensores, 1
8	187	18	#line 187 "C:\Users\Lucas\Desktop\UnB\Droid\sekksi2016\tentativa2\consultor_cagadinha.nxc"
8	4577	18	#line 4577 "NXCDefs.h"
8	4578	18	#pragma macro 6
8	4578	18		setin __constVal14, __SetSensorColorRed_7qG2_port_7qG2_000_inline_InicializaSensores, 0
8	4578	22		setin __constVal128, __SetSensorColorRed_7qG2_port_7qG2_000_inline_InicializaSensores, 1
8	4578	26		mov __ResetSensorPort, __SetSensorColorRed_7qG2_port_7qG2_000_inline_InicializaSensores
8	4578	28		subcall __ResetSensorSubroutine, ____ResetSensorSubroutine_return
8	5478	30	#line 5478 "NXCDefs.h"
8	4577	30	#line 4577 "NXCDefs.h"
8	187	30	#line 187 "C:\Users\Lucas\Desktop\UnB\Droid\sekksi2016\tentativa2\consultor_cagadinha.nxc"
8	188	30	#line 188 "C:\Users\Lucas\Desktop\UnB\Droid\sekksi2016\tentativa2\consultor_cagadinha.nxc"
8	189	30		set __SetSensorColorGreen_7qG2_port_7qG2_000_inline_InicializaSensores, 2
8	188	33	#line 188 "C:\Users\Lucas\Desktop\UnB\Droid\sekksi2016\tentativa2\consultor_cagadinha.nxc"
8	4587	33	#line 4587 "NXCDefs.h"
8	4588	33	#pragma macro 6
8	4588	33		setin __constVal15, __SetSensorColorGreen_7qG2_port_7qG2_000_inline_InicializaSensores, 0
8	4588	37		setin __constVal128, __SetSensorColorGreen_7qG2_port_7qG2_000_inline_InicializaSensores, 1
8	4588	41		mov __ResetSensorPort, __SetSensorColorGreen_7qG2_port_7qG2_000_inline_InicializaSensores
8	4588	43		subcall __ResetSensorSubroutine, ____ResetSensorSubroutine_return
8	5490	45	#line 5490 "NXCDefs.h"
8	4587	45	#line 4587 "NXCDefs.h"
8	188	45	#line 188 "C:\Users\Lucas\Desktop\UnB\Droid\sekksi2016\tentativa2\consultor_cagadinha.nxc"
8	189	45	#line 189 "C:\Users\Lucas\Desktop\UnB\Droid\sekksi2016\tentativa2\consultor_cagadinha.nxc"
8	190	45		set __SetSensorLowspeed_7qG2_port_7qG2_000_inline_InicializaSensores, 3
8	189	48	#line 189 "C:\Users\Lucas\Desktop\UnB\Droid\sekksi2016\tentativa2\consultor_cagadinha.nxc"
8	189	48	#line 189 "C:\Users\Lucas\Desktop\UnB\Droid\sekksi2016\tentativa2\consultor_cagadinha.nxc"
8	190	48		mov __SetSensorLowspeed_7qG2_bIsPowered_7qG2_000_inline_InicializaSensores, __constVal1
8	4523	50	#line 4523 "NXCDefs.h"
8	4524	50		mov __SetSensorType_7qG2_port_7qG2_000_inline_SetSensorLowspeed_inline_InicializaSensores, __SetSensorLowspeed_7qG2_port_7qG2_000_inline_InicializaSensores
8	4523	52	#line 4523 "NXCDefs.h"
8	4523	52	#line 4523 "NXCDefs.h"
8	4524	52		mov __DU0SetSensorLowspeed_inline_InicializaSensores, __SetSensorLowspeed_7qG2_bIsPowered_7qG2_000_inline_InicializaSensores
8	4523	54	#line 4523 "NXCDefs.h"
8	4524	54		tst 5, __D0SetSensorLowspeed_inline_InicializaSensores, __DU0SetSensorLowspeed_inline_InicializaSensores
8	4523	57	#line 4523 "NXCDefs.h"
8	4524	57		brtst 4, __004__ASM_Label_36, __D0SetSensorLowspeed_inline_InicializaSensores
8	4523	60	#line 4523 "NXCDefs.h"
8	4524	60		set __DU0SetSensorLowspeed_inline_InicializaSensores, 11
8	4523	63	#line 4523 "NXCDefs.h"
8	4523	63	#line 4523 "NXCDefs.h"
8	4524	63		jmp __004__ASM_Label_37
8	4523	65	#line 4523 "NXCDefs.h"
8	4524	65		set __DU0SetSensorLowspeed_inline_InicializaSensores, 10
8	4523	68	#line 4523 "NXCDefs.h"
8	4523	68	#line 4523 "NXCDefs.h"
8	4524	68		mov __SetSensorType_7qG2_type_7qG2_000_inline_SetSensorLowspeed_inline_InicializaSensores, __DU0SetSensorLowspeed_inline_InicializaSensores
8	4428	70	#line 4428 "NXCDefs.h"
8	4429	70		setin __SetSensorType_7qG2_type_7qG2_000_inline_SetSensorLowspeed_inline_InicializaSensores, __SetSensorType_7qG2_port_7qG2_000_inline_SetSensorLowspeed_inline_InicializaSensores, 0
8	4428	74	#line 4428 "NXCDefs.h"
8	4523	74	#line 4523 "NXCDefs.h"
8	4524	74	#line 4524 "NXCDefs.h"
8	4525	74		mov __SetSensorMode_7qG2_port_7qG2_000_inline_SetSensorLowspeed_inline_InicializaSensores, __SetSensorLowspeed_7qG2_port_7qG2_000_inline_InicializaSensores
8	4524	76	#line 4524 "NXCDefs.h"
8	4524	76	#line 4524 "NXCDefs.h"
8	4525	76		set __SetSensorMode_7qG2_mode_7qG2_000_inline_SetSensorLowspeed_inline_InicializaSensores, 0
8	4524	79	#line 4524 "NXCDefs.h"
8	4441	79	#line 4441 "NXCDefs.h"
8	4442	79		setin __SetSensorMode_7qG2_mode_7qG2_000_inline_SetSensorLowspeed_inline_InicializaSensores, __SetSensorMode_7qG2_port_7qG2_000_inline_SetSensorLowspeed_inline_InicializaSensores, 1
8	4441	83	#line 4441 "NXCDefs.h"
8	4524	83	#line 4524 "NXCDefs.h"
8	4525	83	#line 4525 "NXCDefs.h"
8	4525	83	#line 4525 "NXCDefs.h"
8	4459	83	#line 4459 "NXCDefs.h"
8	4460	83	#pragma macro 4
8	4460	83		mov __ResetSensorPort, __SetSensorLowspeed_7qG2_port_7qG2_000_inline_InicializaSensores
8	4460	85		subcall __ResetSensorSubroutine, ____ResetSensorSubroutine_return
8	5580	87	#line 5580 "NXCDefs.h"
8	4459	87	#line 4459 "NXCDefs.h"
8	4525	87	#line 4525 "NXCDefs.h"
8	189	87	#line 189 "C:\Users\Lucas\Desktop\UnB\Droid\sekksi2016\tentativa2\consultor_cagadinha.nxc"
8	192	87	#line 192 "C:\Users\Lucas\Desktop\UnB\Droid\sekksi2016\tentativa2\consultor_cagadinha.nxc"
8	193	87		subret __InicializaSensores_return
9	194	0	#line 194 "C:\Users\Lucas\Desktop\UnB\Droid\sekksi2016\tentativa2\consultor_cagadinha.nxc"
9	195	0		subcall RecebeBoneco, __RecebeBoneco_return
9	194	2	#line 194 "C:\Users\Lucas\Desktop\UnB\Droid\sekksi2016\tentativa2\consultor_cagadinha.nxc"
9	195	2		mov bonecoAlvo, __D0RecebeBoneco
9	194	4	#line 194 "C:\Users\Lucas\Desktop\UnB\Droid\sekksi2016\tentativa2\consultor_cagadinha.nxc"
9	194	4	#line 194 "C:\Users\Lucas\Desktop\UnB\Droid\sekksi2016\tentativa2\consultor_cagadinha.nxc"
9	197	4	#line 197 "C:\Users\Lucas\Desktop\UnB\Droid\sekksi2016\tentativa2\consultor_cagadinha.nxc"
9	198	4		mov __signed_stack_001BonecoAlvo, __D0RecebeBoneco
9	197	6	#line 197 "C:\Users\Lucas\Desktop\UnB\Droid\sekksi2016\tentativa2\consultor_cagadinha.nxc"
9	198	6	#line 198 "C:\Users\Lucas\Desktop\UnB\Droid\sekksi2016\tentativa2\consultor_cagadinha.nxc"
9	199	6		set __D0BonecoAlvo, 2
9	198	9	#line 198 "C:\Users\Lucas\Desktop\UnB\Droid\sekksi2016\tentativa2\consultor_cagadinha.nxc"
9	199	9		cmp 4, __D0BonecoAlvo, __signed_stack_001BonecoAlvo, __D0BonecoAlvo
9	199	13	#line 199 "C:\Users\Lucas\Desktop\UnB\Droid\sekksi2016\tentativa2\consultor_cagadinha.nxc"
9	200	13		brtst 4, __ASM_Label_593, __D0BonecoAlvo
9	199	16	#line 199 "C:\Users\Lucas\Desktop\UnB\Droid\sekksi2016\tentativa2\consultor_cagadinha.nxc"
9	200	16		subcall BipPreto, __BipPreto_return
9	199	18	#line 199 "C:\Users\Lucas\Desktop\UnB\Droid\sekksi2016\tentativa2\consultor_cagadinha.nxc"
9	200	18	#line 200 "C:\Users\Lucas\Desktop\UnB\Droid\sekksi2016\tentativa2\consultor_cagadinha.nxc"
9	201	18		set bonecoNaoAlvo, 1
9	200	21	#line 200 "C:\Users\Lucas\Desktop\UnB\Droid\sekksi2016\tentativa2\consultor_cagadinha.nxc"
9	200	21	#line 200 "C:\Users\Lucas\Desktop\UnB\Droid\sekksi2016\tentativa2\consultor_cagadinha.nxc"
9	202	21	#line 202 "C:\Users\Lucas\Desktop\UnB\Droid\sekksi2016\tentativa2\consultor_cagadinha.nxc"
9	203	21		jmp __ASM_Label_596
9	202	23	#line 202 "C:\Users\Lucas\Desktop\UnB\Droid\sekksi2016\tentativa2\consultor_cagadinha.nxc"
9	203	23		mov __signed_stack_001BonecoAlvo, bonecoAlvo
9	202	25	#line 202 "C:\Users\Lucas\Desktop\UnB\Droid\sekksi2016\tentativa2\consultor_cagadinha.nxc"
9	203	25	#line 203 "C:\Users\Lucas\Desktop\UnB\Droid\sekksi2016\tentativa2\consultor_cagadinha.nxc"
9	204	25		set __D0BonecoAlvo, 1
9	203	28	#line 203 "C:\Users\Lucas\Desktop\UnB\Droid\sekksi2016\tentativa2\consultor_cagadinha.nxc"
9	204	28		cmp 4, __D0BonecoAlvo, __signed_stack_001BonecoAlvo, __D0BonecoAlvo
9	204	32	#line 204 "C:\Users\Lucas\Desktop\UnB\Droid\sekksi2016\tentativa2\consultor_cagadinha.nxc"
9	205	32		brtst 4, __ASM_Label_599, __D0BonecoAlvo
9	204	35	#line 204 "C:\Users\Lucas\Desktop\UnB\Droid\sekksi2016\tentativa2\consultor_cagadinha.nxc"
9	205	35		subcall BipBranco, __BipBranco_return
9	204	37	#line 204 "C:\Users\Lucas\Desktop\UnB\Droid\sekksi2016\tentativa2\consultor_cagadinha.nxc"
9	205	37	#line 205 "C:\Users\Lucas\Desktop\UnB\Droid\sekksi2016\tentativa2\consultor_cagadinha.nxc"
9	206	37		set bonecoNaoAlvo, 2
9	205	40	#line 205 "C:\Users\Lucas\Desktop\UnB\Droid\sekksi2016\tentativa2\consultor_cagadinha.nxc"
9	205	40	#line 205 "C:\Users\Lucas\Desktop\UnB\Droid\sekksi2016\tentativa2\consultor_cagadinha.nxc"
9	209	40	#line 209 "C:\Users\Lucas\Desktop\UnB\Droid\sekksi2016\tentativa2\consultor_cagadinha.nxc"
9	209	40	#line 209 "C:\Users\Lucas\Desktop\UnB\Droid\sekksi2016\tentativa2\consultor_cagadinha.nxc"
9	209	40	#line 209 "C:\Users\Lucas\Desktop\UnB\Droid\sekksi2016\tentativa2\consultor_cagadinha.nxc"
9	210	40		subret __BonecoAlvo_return
10	215	0	#line 215 "C:\Users\Lucas\Desktop\UnB\Droid\sekksi2016\tentativa2\consultor_cagadinha.nxc"
10	216	0		set __lerSensor_7qG2_sensor_7qG2_000, 0
10	215	3	#line 215 "C:\Users\Lucas\Desktop\UnB\Droid\sekksi2016\tentativa2\consultor_cagadinha.nxc"
10	215	3	#line 215 "C:\Users\Lucas\Desktop\UnB\Droid\sekksi2016\tentativa2\consultor_cagadinha.nxc"
10	216	3		subcall lerSensor, __lerSensor_return
10	215	5	#line 215 "C:\Users\Lucas\Desktop\UnB\Droid\sekksi2016\tentativa2\consultor_cagadinha.nxc"
10	216	5		mov __TemBoneco_7qG2_rgb_dir_7qG2_000, __D0lerSensor
10	215	7	#line 215 "C:\Users\Lucas\Desktop\UnB\Droid\sekksi2016\tentativa2\consultor_cagadinha.nxc"
10	215	7	#line 215 "C:\Users\Lucas\Desktop\UnB\Droid\sekksi2016\tentativa2\consultor_cagadinha.nxc"
10	216	7	#line 216 "C:\Users\Lucas\Desktop\UnB\Droid\sekksi2016\tentativa2\consultor_cagadinha.nxc"
10	217	7		set __lerSensor_7qG2_sensor_7qG2_000, 1
10	216	10	#line 216 "C:\Users\Lucas\Desktop\UnB\Droid\sekksi2016\tentativa2\consultor_cagadinha.nxc"
10	216	10	#line 216 "C:\Users\Lucas\Desktop\UnB\Droid\sekksi2016\tentativa2\consultor_cagadinha.nxc"
10	217	10		subcall lerSensor, __lerSensor_return
10	216	12	#line 216 "C:\Users\Lucas\Desktop\UnB\Droid\sekksi2016\tentativa2\consultor_cagadinha.nxc"
10	217	12		mov __TemBoneco_7qG2_rgb_esq_7qG2_000, __D0lerSensor
10	216	14	#line 216 "C:\Users\Lucas\Desktop\UnB\Droid\sekksi2016\tentativa2\consultor_cagadinha.nxc"
10	216	14	#line 216 "C:\Users\Lucas\Desktop\UnB\Droid\sekksi2016\tentativa2\consultor_cagadinha.nxc"
10	217	14	#line 217 "C:\Users\Lucas\Desktop\UnB\Droid\sekksi2016\tentativa2\consultor_cagadinha.nxc"
10	218	14		set __lerSensor_7qG2_sensor_7qG2_000, 2
10	217	17	#line 217 "C:\Users\Lucas\Desktop\UnB\Droid\sekksi2016\tentativa2\consultor_cagadinha.nxc"
10	217	17	#line 217 "C:\Users\Lucas\Desktop\UnB\Droid\sekksi2016\tentativa2\consultor_cagadinha.nxc"
10	218	17		subcall lerSensor, __lerSensor_return
10	217	19	#line 217 "C:\Users\Lucas\Desktop\UnB\Droid\sekksi2016\tentativa2\consultor_cagadinha.nxc"
10	218	19		mov __TemBoneco_7qG2_rgb_meio_7qG2_000, __D0lerSensor
10	217	21	#line 217 "C:\Users\Lucas\Desktop\UnB\Droid\sekksi2016\tentativa2\consultor_cagadinha.nxc"
10	217	21	#line 217 "C:\Users\Lucas\Desktop\UnB\Droid\sekksi2016\tentativa2\consultor_cagadinha.nxc"
10	222	21	#line 222 "C:\Users\Lucas\Desktop\UnB\Droid\sekksi2016\tentativa2\consultor_cagadinha.nxc"
10	223	21		mov __signed_stack_001TemBoneco, __TemBoneco_7qG2_rgb_dir_7qG2_000
10	222	23	#line 222 "C:\Users\Lucas\Desktop\UnB\Droid\sekksi2016\tentativa2\consultor_cagadinha.nxc"
10	222	23	#line 222 "C:\Users\Lucas\Desktop\UnB\Droid\sekksi2016\tentativa2\consultor_cagadinha.nxc"
10	223	23		mov __D0TemBoneco, CorBaseDirMax
10	222	25	#line 222 "C:\Users\Lucas\Desktop\UnB\Droid\sekksi2016\tentativa2\consultor_cagadinha.nxc"
10	223	25		cmp 0, __D0TemBoneco, __signed_stack_001TemBoneco, __D0TemBoneco
10	222	29	#line 222 "C:\Users\Lucas\Desktop\UnB\Droid\sekksi2016\tentativa2\consultor_cagadinha.nxc"
10	223	29		brtst 4, __ASM_Label_617, __D0TemBoneco
10	222	32	#line 222 "C:\Users\Lucas\Desktop\UnB\Droid\sekksi2016\tentativa2\consultor_cagadinha.nxc"
10	223	32		mov __signed_stack_001TemBoneco, __TemBoneco_7qG2_rgb_dir_7qG2_000
10	222	34	#line 222 "C:\Users\Lucas\Desktop\UnB\Droid\sekksi2016\tentativa2\consultor_cagadinha.nxc"
10	222	34	#line 222 "C:\Users\Lucas\Desktop\UnB\Droid\sekksi2016\tentativa2\consultor_cagadinha.nxc"
10	223	34		mov __D0TemBoneco, CorBaseDirMin
10	222	36	#line 222 "C:\Users\Lucas\Desktop\UnB\Droid\sekksi2016\tentativa2\consultor_cagadinha.nxc"
10	223	36		cmp 1, __D0TemBoneco, __signed_stack_001TemBoneco, __D0TemBoneco
10	222	40	#line 222 "C:\Users\Lucas\Desktop\UnB\Droid\sekksi2016\tentativa2\consultor_cagadinha.nxc"
10	223	40		brtst 4, __ASM_Label_615, __D0TemBoneco
10	222	43	#line 222 "C:\Users\Lucas\Desktop\UnB\Droid\sekksi2016\tentativa2\consultor_cagadinha.nxc"
10	223	43		mov __signed_stack_001TemBoneco, __TemBoneco_7qG2_rgb_esq_7qG2_000
10	222	45	#line 222 "C:\Users\Lucas\Desktop\UnB\Droid\sekksi2016\tentativa2\consultor_cagadinha.nxc"
10	222	45	#line 222 "C:\Users\Lucas\Desktop\UnB\Droid\sekksi2016\tentativa2\consultor_cagadinha.nxc"
10	223	45		mov __D0TemBoneco, CorBaseEsqMax
10	222	47	#line 222 "C:\Users\Lucas\Desktop\UnB\Droid\sekksi2016\tentativa2\consultor_cagadinha.nxc"
10	223	47		cmp 0, __D0TemBoneco, __signed_stack_001TemBoneco, __D0TemBoneco
10	222	51	#line 222 "C:\Users\Lucas\Desktop\UnB\Droid\sekksi2016\tentativa2\consultor_cagadinha.nxc"
10	223	51		brtst 4, __ASM_Label_623, __D0TemBoneco
10	222	54	#line 222 "C:\Users\Lucas\Desktop\UnB\Droid\sekksi2016\tentativa2\consultor_cagadinha.nxc"
10	223	54		mov __signed_stack_001TemBoneco, __TemBoneco_7qG2_rgb_esq_7qG2_000
10	222	56	#line 222 "C:\Users\Lucas\Desktop\UnB\Droid\sekksi2016\tentativa2\consultor_cagadinha.nxc"
10	222	56	#line 222 "C:\Users\Lucas\Desktop\UnB\Droid\sekksi2016\tentativa2\consultor_cagadinha.nxc"
10	223	56		mov __D0TemBoneco, CorBaseEsqMin
10	222	58	#line 222 "C:\Users\Lucas\Desktop\UnB\Droid\sekksi2016\tentativa2\consultor_cagadinha.nxc"
10	223	58		cmp 1, __D0TemBoneco, __signed_stack_001TemBoneco, __D0TemBoneco
10	222	62	#line 222 "C:\Users\Lucas\Desktop\UnB\Droid\sekksi2016\tentativa2\consultor_cagadinha.nxc"
10	223	62		brtst 4, __ASM_Label_615, __D0TemBoneco
10	222	65	#line 222 "C:\Users\Lucas\Desktop\UnB\Droid\sekksi2016\tentativa2\consultor_cagadinha.nxc"
10	223	65		mov __signed_stack_001TemBoneco, __TemBoneco_7qG2_rgb_meio_7qG2_000
10	222	67	#line 222 "C:\Users\Lucas\Desktop\UnB\Droid\sekksi2016\tentativa2\consultor_cagadinha.nxc"
10	222	67	#line 222 "C:\Users\Lucas\Desktop\UnB\Droid\sekksi2016\tentativa2\consultor_cagadinha.nxc"
10	223	67		mov __D0TemBoneco, CorBaseMeioMax
10	222	69	#line 222 "C:\Users\Lucas\Desktop\UnB\Droid\sekksi2016\tentativa2\consultor_cagadinha.nxc"
10	223	69		cmp 0, __D0TemBoneco, __signed_stack_001TemBoneco, __D0TemBoneco
10	222	73	#line 222 "C:\Users\Lucas\Desktop\UnB\Droid\sekksi2016\tentativa2\consultor_cagadinha.nxc"
10	223	73		brtst 4, __ASM_Label_629, __D0TemBoneco
10	222	76	#line 222 "C:\Users\Lucas\Desktop\UnB\Droid\sekksi2016\tentativa2\consultor_cagadinha.nxc"
10	223	76		mov __signed_stack_001TemBoneco, __TemBoneco_7qG2_rgb_meio_7qG2_000
10	222	78	#line 222 "C:\Users\Lucas\Desktop\UnB\Droid\sekksi2016\tentativa2\consultor_cagadinha.nxc"
10	222	78	#line 222 "C:\Users\Lucas\Desktop\UnB\Droid\sekksi2016\tentativa2\consultor_cagadinha.nxc"
10	223	78		mov __D0TemBoneco, CorBaseMeioMin
10	222	80	#line 222 "C:\Users\Lucas\Desktop\UnB\Droid\sekksi2016\tentativa2\consultor_cagadinha.nxc"
10	223	80		cmp 1, __D0TemBoneco, __signed_stack_001TemBoneco, __D0TemBoneco
10	223	84	#line 223 "C:\Users\Lucas\Desktop\UnB\Droid\sekksi2016\tentativa2\consultor_cagadinha.nxc"
10	224	84		brtst 4, __ASM_Label_634, __D0TemBoneco
10	223	87	#line 223 "C:\Users\Lucas\Desktop\UnB\Droid\sekksi2016\tentativa2\consultor_cagadinha.nxc"
10	224	87		set __D0TemBoneco, 0
10	223	90	#line 223 "C:\Users\Lucas\Desktop\UnB\Droid\sekksi2016\tentativa2\consultor_cagadinha.nxc"
10	224	90		subret __TemBoneco_return
10	223	92	#line 223 "C:\Users\Lucas\Desktop\UnB\Droid\sekksi2016\tentativa2\consultor_cagadinha.nxc"
10	224	92	#line 224 "C:\Users\Lucas\Desktop\UnB\Droid\sekksi2016\tentativa2\consultor_cagadinha.nxc"
10	224	92	#line 224 "C:\Users\Lucas\Desktop\UnB\Droid\sekksi2016\tentativa2\consultor_cagadinha.nxc"
10	225	92		set __D0TemBoneco, 1
10	224	95	#line 224 "C:\Users\Lucas\Desktop\UnB\Droid\sekksi2016\tentativa2\consultor_cagadinha.nxc"
10	225	95		subret __TemBoneco_return
10	224	97	#line 224 "C:\Users\Lucas\Desktop\UnB\Droid\sekksi2016\tentativa2\consultor_cagadinha.nxc"
10	227	97	#line 227 "C:\Users\Lucas\Desktop\UnB\Droid\sekksi2016\tentativa2\consultor_cagadinha.nxc"
10	228	97		subret __TemBoneco_return
11	241	0	#line 241 "C:\Users\Lucas\Desktop\UnB\Droid\sekksi2016\tentativa2\consultor_cagadinha.nxc"
11	241	0	#line 241 "C:\Users\Lucas\Desktop\UnB\Droid\sekksi2016\tentativa2\consultor_cagadinha.nxc"
11	259	0	#line 259 "C:\Users\Lucas\Desktop\UnB\Droid\sekksi2016\tentativa2\consultor_cagadinha.nxc"
11	260	0		set __D0RecebeBoneco, 2
11	259	3	#line 259 "C:\Users\Lucas\Desktop\UnB\Droid\sekksi2016\tentativa2\consultor_cagadinha.nxc"
11	260	3		subret __RecebeBoneco_return
11	259	5	#line 259 "C:\Users\Lucas\Desktop\UnB\Droid\sekksi2016\tentativa2\consultor_cagadinha.nxc"
11	263	5	#line 263 "C:\Users\Lucas\Desktop\UnB\Droid\sekksi2016\tentativa2\consultor_cagadinha.nxc"
11	264	5		subret __RecebeBoneco_return
12	276	0	#line 276 "C:\Users\Lucas\Desktop\UnB\Droid\sekksi2016\tentativa2\consultor_cagadinha.nxc"
12	277	0		arrinit __lerSensor_7qG2_leitura_7qG2_000, __constVal0, __constVal11
12	278	4	#line 278 "C:\Users\Lucas\Desktop\UnB\Droid\sekksi2016\tentativa2\consultor_cagadinha.nxc"
12	279	4		set __lerSensor_7qG2_i_7qG2_000, 0
12	278	7	#line 278 "C:\Users\Lucas\Desktop\UnB\Droid\sekksi2016\tentativa2\consultor_cagadinha.nxc"
12	278	7	#line 278 "C:\Users\Lucas\Desktop\UnB\Droid\sekksi2016\tentativa2\consultor_cagadinha.nxc"
12	279	7		mov __signed_stack_001lerSensor, __lerSensor_7qG2_i_7qG2_000
12	278	9	#line 278 "C:\Users\Lucas\Desktop\UnB\Droid\sekksi2016\tentativa2\consultor_cagadinha.nxc"
12	278	9	#line 278 "C:\Users\Lucas\Desktop\UnB\Droid\sekksi2016\tentativa2\consultor_cagadinha.nxc"
12	279	9		set __D0lerSensor, 11
12	278	12	#line 278 "C:\Users\Lucas\Desktop\UnB\Droid\sekksi2016\tentativa2\consultor_cagadinha.nxc"
12	279	12		cmp 0, __D0lerSensor, __signed_stack_001lerSensor, __D0lerSensor
12	278	16	#line 278 "C:\Users\Lucas\Desktop\UnB\Droid\sekksi2016\tentativa2\consultor_cagadinha.nxc"
12	279	16		brtst 4, __ASM_Label_672, __D0lerSensor
12	278	19	#line 278 "C:\Users\Lucas\Desktop\UnB\Droid\sekksi2016\tentativa2\consultor_cagadinha.nxc"
12	279	19		jmp __ASM_Label_673
12	278	21	#line 278 "C:\Users\Lucas\Desktop\UnB\Droid\sekksi2016\tentativa2\consultor_cagadinha.nxc"
12	279	21		add __lerSensor_7qG2_i_7qG2_000, __lerSensor_7qG2_i_7qG2_000, __constVal1
12	279	25	#line 279 "C:\Users\Lucas\Desktop\UnB\Droid\sekksi2016\tentativa2\consultor_cagadinha.nxc"
12	280	25		jmp __ASM_Label_671
12	279	27	#line 279 "C:\Users\Lucas\Desktop\UnB\Droid\sekksi2016\tentativa2\consultor_cagadinha.nxc"
12	280	27		getin __lerSensor_7qG2_aux_7qG2_000, __lerSensor_7qG2_sensor_7qG2_000, 2
12	279	31	#line 279 "C:\Users\Lucas\Desktop\UnB\Droid\sekksi2016\tentativa2\consultor_cagadinha.nxc"
12	279	31	#line 279 "C:\Users\Lucas\Desktop\UnB\Droid\sekksi2016\tentativa2\consultor_cagadinha.nxc"
12	281	31	#line 281 "C:\Users\Lucas\Desktop\UnB\Droid\sekksi2016\tentativa2\consultor_cagadinha.nxc"
12	282	31		set __lerSensor_7qG2_j_7qG2_000, 0
12	281	34	#line 281 "C:\Users\Lucas\Desktop\UnB\Droid\sekksi2016\tentativa2\consultor_cagadinha.nxc"
12	281	34	#line 281 "C:\Users\Lucas\Desktop\UnB\Droid\sekksi2016\tentativa2\consultor_cagadinha.nxc"
12	282	34	#line 282 "C:\Users\Lucas\Desktop\UnB\Droid\sekksi2016\tentativa2\consultor_cagadinha.nxc"
12	283	34		mov __signed_stack_001lerSensor, __lerSensor_7qG2_aux_7qG2_000
12	282	36	#line 282 "C:\Users\Lucas\Desktop\UnB\Droid\sekksi2016\tentativa2\consultor_cagadinha.nxc"
12	282	36	#line 282 "C:\Users\Lucas\Desktop\UnB\Droid\sekksi2016\tentativa2\consultor_cagadinha.nxc"
12	283	36		mov __signed_stack_002lerSensor, __lerSensor_7qG2_j_7qG2_000
12	282	38	#line 282 "C:\Users\Lucas\Desktop\UnB\Droid\sekksi2016\tentativa2\consultor_cagadinha.nxc"
12	282	38	#line 282 "C:\Users\Lucas\Desktop\UnB\Droid\sekksi2016\tentativa2\consultor_cagadinha.nxc"
12	283	38		index __D0lerSensor, __lerSensor_7qG2_leitura_7qG2_000, __signed_stack_002lerSensor
12	282	42	#line 282 "C:\Users\Lucas\Desktop\UnB\Droid\sekksi2016\tentativa2\consultor_cagadinha.nxc"
12	282	42	#line 282 "C:\Users\Lucas\Desktop\UnB\Droid\sekksi2016\tentativa2\consultor_cagadinha.nxc"
12	283	42		cmp 0, __D0lerSensor, __signed_stack_001lerSensor, __D0lerSensor
12	282	46	#line 282 "C:\Users\Lucas\Desktop\UnB\Droid\sekksi2016\tentativa2\consultor_cagadinha.nxc"
12	283	46		brtst 4, __ASM_Label_686, __D0lerSensor
12	282	49	#line 282 "C:\Users\Lucas\Desktop\UnB\Droid\sekksi2016\tentativa2\consultor_cagadinha.nxc"
12	283	49		mov __signed_stack_001lerSensor, __lerSensor_7qG2_j_7qG2_000
12	282	51	#line 282 "C:\Users\Lucas\Desktop\UnB\Droid\sekksi2016\tentativa2\consultor_cagadinha.nxc"
12	283	51	#line 283 "C:\Users\Lucas\Desktop\UnB\Droid\sekksi2016\tentativa2\consultor_cagadinha.nxc"
12	284	51		mov __D0lerSensor, __lerSensor_7qG2_i_7qG2_000
12	283	53	#line 283 "C:\Users\Lucas\Desktop\UnB\Droid\sekksi2016\tentativa2\consultor_cagadinha.nxc"
12	284	53		cmp 0, __D0lerSensor, __signed_stack_001lerSensor, __D0lerSensor
12	284	57	#line 284 "C:\Users\Lucas\Desktop\UnB\Droid\sekksi2016\tentativa2\consultor_cagadinha.nxc"
12	285	57		brtst 4, __ASM_Label_684, __D0lerSensor
12	284	60	#line 284 "C:\Users\Lucas\Desktop\UnB\Droid\sekksi2016\tentativa2\consultor_cagadinha.nxc"
12	285	60		add __lerSensor_7qG2_j_7qG2_000, __lerSensor_7qG2_j_7qG2_000, __constVal1
12	284	64	#line 284 "C:\Users\Lucas\Desktop\UnB\Droid\sekksi2016\tentativa2\consultor_cagadinha.nxc"
12	287	64	#line 287 "C:\Users\Lucas\Desktop\UnB\Droid\sekksi2016\tentativa2\consultor_cagadinha.nxc"
12	288	64		jmp __ASM_Label_683
12	287	66	#line 287 "C:\Users\Lucas\Desktop\UnB\Droid\sekksi2016\tentativa2\consultor_cagadinha.nxc"
12	287	66	#line 287 "C:\Users\Lucas\Desktop\UnB\Droid\sekksi2016\tentativa2\consultor_cagadinha.nxc"
12	288	66		mov __signed_stack_001lerSensor, __lerSensor_7qG2_j_7qG2_000
12	287	68	#line 287 "C:\Users\Lucas\Desktop\UnB\Droid\sekksi2016\tentativa2\consultor_cagadinha.nxc"
12	287	68	#line 287 "C:\Users\Lucas\Desktop\UnB\Droid\sekksi2016\tentativa2\consultor_cagadinha.nxc"
12	288	68		mov __D0lerSensor, __lerSensor_7qG2_i_7qG2_000
12	287	70	#line 287 "C:\Users\Lucas\Desktop\UnB\Droid\sekksi2016\tentativa2\consultor_cagadinha.nxc"
12	288	70		cmp 0, __D0lerSensor, __signed_stack_001lerSensor, __D0lerSensor
12	288	74	#line 288 "C:\Users\Lucas\Desktop\UnB\Droid\sekksi2016\tentativa2\consultor_cagadinha.nxc"
12	289	74		brtst 4, __ASM_Label_691, __D0lerSensor
12	288	77	#line 288 "C:\Users\Lucas\Desktop\UnB\Droid\sekksi2016\tentativa2\consultor_cagadinha.nxc"
12	289	77		mov __lerSensor_7qG2_k_7qG2_000, __lerSensor_7qG2_i_7qG2_000
12	288	79	#line 288 "C:\Users\Lucas\Desktop\UnB\Droid\sekksi2016\tentativa2\consultor_cagadinha.nxc"
12	288	79	#line 288 "C:\Users\Lucas\Desktop\UnB\Droid\sekksi2016\tentativa2\consultor_cagadinha.nxc"
12	289	79		mov __signed_stack_001lerSensor, __lerSensor_7qG2_k_7qG2_000
12	288	81	#line 288 "C:\Users\Lucas\Desktop\UnB\Droid\sekksi2016\tentativa2\consultor_cagadinha.nxc"
12	288	81	#line 288 "C:\Users\Lucas\Desktop\UnB\Droid\sekksi2016\tentativa2\consultor_cagadinha.nxc"
12	289	81		mov __D0lerSensor, __lerSensor_7qG2_j_7qG2_000
12	288	83	#line 288 "C:\Users\Lucas\Desktop\UnB\Droid\sekksi2016\tentativa2\consultor_cagadinha.nxc"
12	289	83		cmp 1, __D0lerSensor, __signed_stack_001lerSensor, __D0lerSensor
12	288	87	#line 288 "C:\Users\Lucas\Desktop\UnB\Droid\sekksi2016\tentativa2\consultor_cagadinha.nxc"
12	289	87		brtst 4, __ASM_Label_693, __D0lerSensor
12	288	90	#line 288 "C:\Users\Lucas\Desktop\UnB\Droid\sekksi2016\tentativa2\consultor_cagadinha.nxc"
12	289	90		jmp __ASM_Label_694
12	288	92	#line 288 "C:\Users\Lucas\Desktop\UnB\Droid\sekksi2016\tentativa2\consultor_cagadinha.nxc"
12	289	92		sub __lerSensor_7qG2_k_7qG2_000, __lerSensor_7qG2_k_7qG2_000, __constVal1
12	289	96	#line 289 "C:\Users\Lucas\Desktop\UnB\Droid\sekksi2016\tentativa2\consultor_cagadinha.nxc"
12	290	96		jmp __ASM_Label_692
12	289	98	#line 289 "C:\Users\Lucas\Desktop\UnB\Droid\sekksi2016\tentativa2\consultor_cagadinha.nxc"
12	290	98		mov __signed_stack_001lerSensor, __lerSensor_7qG2_k_7qG2_000
12	289	100	#line 289 "C:\Users\Lucas\Desktop\UnB\Droid\sekksi2016\tentativa2\consultor_cagadinha.nxc"
12	289	100	#line 289 "C:\Users\Lucas\Desktop\UnB\Droid\sekksi2016\tentativa2\consultor_cagadinha.nxc"
12	290	100		mov __signed_stack_002lerSensor, __lerSensor_7qG2_k_7qG2_000
12	289	102	#line 289 "C:\Users\Lucas\Desktop\UnB\Droid\sekksi2016\tentativa2\consultor_cagadinha.nxc"
12	289	102	#line 289 "C:\Users\Lucas\Desktop\UnB\Droid\sekksi2016\tentativa2\consultor_cagadinha.nxc"
12	290	102		set __D0lerSensor, 1
12	289	105	#line 289 "C:\Users\Lucas\Desktop\UnB\Droid\sekksi2016\tentativa2\consultor_cagadinha.nxc"
12	290	105		sub __signed_stack_002lerSensor, __signed_stack_002lerSensor, __D0lerSensor
12	289	109	#line 289 "C:\Users\Lucas\Desktop\UnB\Droid\sekksi2016\tentativa2\consultor_cagadinha.nxc"
12	289	109	#line 289 "C:\Users\Lucas\Desktop\UnB\Droid\sekksi2016\tentativa2\consultor_cagadinha.nxc"
12	290	109		index __D0lerSensor, __lerSensor_7qG2_leitura_7qG2_000, __signed_stack_002lerSensor
12	289	113	#line 289 "C:\Users\Lucas\Desktop\UnB\Droid\sekksi2016\tentativa2\consultor_cagadinha.nxc"
12	289	113	#line 289 "C:\Users\Lucas\Desktop\UnB\Droid\sekksi2016\tentativa2\consultor_cagadinha.nxc"
12	290	113		replace __lerSensor_7qG2_leitura_7qG2_000, __lerSensor_7qG2_leitura_7qG2_000, __signed_stack_001lerSensor, __D0lerSensor
12	289	118	#line 289 "C:\Users\Lucas\Desktop\UnB\Droid\sekksi2016\tentativa2\consultor_cagadinha.nxc"
12	291	118	#line 291 "C:\Users\Lucas\Desktop\UnB\Droid\sekksi2016\tentativa2\consultor_cagadinha.nxc"
12	292	118		jmp __ASM_Label_695
12	291	120	#line 291 "C:\Users\Lucas\Desktop\UnB\Droid\sekksi2016\tentativa2\consultor_cagadinha.nxc"
12	291	120	#line 291 "C:\Users\Lucas\Desktop\UnB\Droid\sekksi2016\tentativa2\consultor_cagadinha.nxc"
12	292	120		mov __signed_stack_001lerSensor, __lerSensor_7qG2_j_7qG2_000
12	291	122	#line 291 "C:\Users\Lucas\Desktop\UnB\Droid\sekksi2016\tentativa2\consultor_cagadinha.nxc"
12	291	122	#line 291 "C:\Users\Lucas\Desktop\UnB\Droid\sekksi2016\tentativa2\consultor_cagadinha.nxc"
12	292	122		mov __D0lerSensor, __lerSensor_7qG2_aux_7qG2_000
12	291	124	#line 291 "C:\Users\Lucas\Desktop\UnB\Droid\sekksi2016\tentativa2\consultor_cagadinha.nxc"
12	292	124		replace __lerSensor_7qG2_leitura_7qG2_000, __lerSensor_7qG2_leitura_7qG2_000, __signed_stack_001lerSensor, __D0lerSensor
12	291	129	#line 291 "C:\Users\Lucas\Desktop\UnB\Droid\sekksi2016\tentativa2\consultor_cagadinha.nxc"
12	294	129	#line 294 "C:\Users\Lucas\Desktop\UnB\Droid\sekksi2016\tentativa2\consultor_cagadinha.nxc"
12	295	129		jmp __ASM_Label_710
12	294	131	#line 294 "C:\Users\Lucas\Desktop\UnB\Droid\sekksi2016\tentativa2\consultor_cagadinha.nxc"
12	295	131		mov __signed_stack_001lerSensor, __lerSensor_7qG2_i_7qG2_000
12	294	133	#line 294 "C:\Users\Lucas\Desktop\UnB\Droid\sekksi2016\tentativa2\consultor_cagadinha.nxc"
12	294	133	#line 294 "C:\Users\Lucas\Desktop\UnB\Droid\sekksi2016\tentativa2\consultor_cagadinha.nxc"
12	295	133		mov __D0lerSensor, __lerSensor_7qG2_aux_7qG2_000
12	294	135	#line 294 "C:\Users\Lucas\Desktop\UnB\Droid\sekksi2016\tentativa2\consultor_cagadinha.nxc"
12	295	135		replace __lerSensor_7qG2_leitura_7qG2_000, __lerSensor_7qG2_leitura_7qG2_000, __signed_stack_001lerSensor, __D0lerSensor
12	294	140	#line 294 "C:\Users\Lucas\Desktop\UnB\Droid\sekksi2016\tentativa2\consultor_cagadinha.nxc"
12	298	140	#line 298 "C:\Users\Lucas\Desktop\UnB\Droid\sekksi2016\tentativa2\consultor_cagadinha.nxc"
12	298	140	#line 298 "C:\Users\Lucas\Desktop\UnB\Droid\sekksi2016\tentativa2\consultor_cagadinha.nxc"
12	299	140		jmp __ASM_Label_674
12	298	142	#line 298 "C:\Users\Lucas\Desktop\UnB\Droid\sekksi2016\tentativa2\consultor_cagadinha.nxc"
12	298	142	#line 298 "C:\Users\Lucas\Desktop\UnB\Droid\sekksi2016\tentativa2\consultor_cagadinha.nxc"
12	299	142		set __signed_stack_001lerSensor, 5
12	298	145	#line 298 "C:\Users\Lucas\Desktop\UnB\Droid\sekksi2016\tentativa2\consultor_cagadinha.nxc"
12	298	145	#line 298 "C:\Users\Lucas\Desktop\UnB\Droid\sekksi2016\tentativa2\consultor_cagadinha.nxc"
12	299	145		index __D0lerSensor, __lerSensor_7qG2_leitura_7qG2_000, __signed_stack_001lerSensor
12	298	149	#line 298 "C:\Users\Lucas\Desktop\UnB\Droid\sekksi2016\tentativa2\consultor_cagadinha.nxc"
12	298	149	#line 298 "C:\Users\Lucas\Desktop\UnB\Droid\sekksi2016\tentativa2\consultor_cagadinha.nxc"
12	299	149		subret __lerSensor_return
12	298	151	#line 298 "C:\Users\Lucas\Desktop\UnB\Droid\sekksi2016\tentativa2\consultor_cagadinha.nxc"
12	301	151	#line 301 "C:\Users\Lucas\Desktop\UnB\Droid\sekksi2016\tentativa2\consultor_cagadinha.nxc"
12	302	151		subret __lerSensor_return
13	305	0	#line 305 "C:\Users\Lucas\Desktop\UnB\Droid\sekksi2016\tentativa2\consultor_cagadinha.nxc"
13	306	0		mov __D0PegaBoneco, __constValNeg30
13	305	2	#line 305 "C:\Users\Lucas\Desktop\UnB\Droid\sekksi2016\tentativa2\consultor_cagadinha.nxc"
13	306	2	#pragma macro 7
13	306	2		setout __constVal0, 2, __D0PegaBoneco, 1, __constVal3, 8, __constVal0, 6, __constVal32, 7, __constVal0, 5, __constVal0, 10, __constVal96, 11, __constVal32, 12, __constVal32, 0, __constVal63
13	6236	25	#line 6236 "C:\Users\Lucas\Desktop\UnB\Droid\sekksi2016\tentativa2\consultor_cagadinha.nxc"
13	305	25	#line 305 "C:\Users\Lucas\Desktop\UnB\Droid\sekksi2016\tentativa2\consultor_cagadinha.nxc"
13	306	25	#line 306 "C:\Users\Lucas\Desktop\UnB\Droid\sekksi2016\tentativa2\consultor_cagadinha.nxc"
13	307	25		getout __PegaBoneco_7qG2_tc_7qG2_000, __constVal0, 4
13	306	29	#line 306 "C:\Users\Lucas\Desktop\UnB\Droid\sekksi2016\tentativa2\consultor_cagadinha.nxc"
13	306	29	#line 306 "C:\Users\Lucas\Desktop\UnB\Droid\sekksi2016\tentativa2\consultor_cagadinha.nxc"
13	310	29	#line 310 "C:\Users\Lucas\Desktop\UnB\Droid\sekksi2016\tentativa2\consultor_cagadinha.nxc"
13	311	29		set __Wait_7qG2_ms_7qG2_000_inline_PegaBoneco, 200
13	310	32	#line 310 "C:\Users\Lucas\Desktop\UnB\Droid\sekksi2016\tentativa2\consultor_cagadinha.nxc"
13	8869	32	#line 8869 "NXCDefs.h"
13	8870	32		wait2 NA, __Wait_7qG2_ms_7qG2_000_inline_PegaBoneco
13	8869	35	#line 8869 "NXCDefs.h"
13	310	35	#line 310 "C:\Users\Lucas\Desktop\UnB\Droid\sekksi2016\tentativa2\consultor_cagadinha.nxc"
13	311	35	#line 311 "C:\Users\Lucas\Desktop\UnB\Droid\sekksi2016\tentativa2\consultor_cagadinha.nxc"
13	312	35		mov __PegaBoneco_7qG2_old_tc_7qG2_000, __PegaBoneco_7qG2_tc_7qG2_000
13	311	37	#line 311 "C:\Users\Lucas\Desktop\UnB\Droid\sekksi2016\tentativa2\consultor_cagadinha.nxc"
13	311	37	#line 311 "C:\Users\Lucas\Desktop\UnB\Droid\sekksi2016\tentativa2\consultor_cagadinha.nxc"
13	312	37	#line 312 "C:\Users\Lucas\Desktop\UnB\Droid\sekksi2016\tentativa2\consultor_cagadinha.nxc"
13	313	37		getout __PegaBoneco_7qG2_tc_7qG2_000, __constVal0, 4
13	312	41	#line 312 "C:\Users\Lucas\Desktop\UnB\Droid\sekksi2016\tentativa2\consultor_cagadinha.nxc"
13	312	41	#line 312 "C:\Users\Lucas\Desktop\UnB\Droid\sekksi2016\tentativa2\consultor_cagadinha.nxc"
13	313	41	#line 313 "C:\Users\Lucas\Desktop\UnB\Droid\sekksi2016\tentativa2\consultor_cagadinha.nxc"
13	314	41		mov __signed_stack_001PegaBoneco, __PegaBoneco_7qG2_tc_7qG2_000
13	313	43	#line 313 "C:\Users\Lucas\Desktop\UnB\Droid\sekksi2016\tentativa2\consultor_cagadinha.nxc"
13	314	43	#line 314 "C:\Users\Lucas\Desktop\UnB\Droid\sekksi2016\tentativa2\consultor_cagadinha.nxc"
13	315	43		mov __D0PegaBoneco, __constValNeg153
13	314	45	#line 314 "C:\Users\Lucas\Desktop\UnB\Droid\sekksi2016\tentativa2\consultor_cagadinha.nxc"
13	315	45		cmp 0, __D0PegaBoneco, __signed_stack_001PegaBoneco, __D0PegaBoneco
13	315	49	#line 315 "C:\Users\Lucas\Desktop\UnB\Droid\sekksi2016\tentativa2\consultor_cagadinha.nxc"
13	316	49		brtst 4, __ASM_Label_735, __D0PegaBoneco
13	315	52	#line 315 "C:\Users\Lucas\Desktop\UnB\Droid\sekksi2016\tentativa2\consultor_cagadinha.nxc"
13	316	52		set __D0PegaBoneco, 0
13	315	55	#line 315 "C:\Users\Lucas\Desktop\UnB\Droid\sekksi2016\tentativa2\consultor_cagadinha.nxc"
13	316	55	#pragma macro 7
13	316	55		setout __constVal0, 2, __D0PegaBoneco, 1, __constVal3, 8, __constVal0, 6, __constVal32, 7, __constVal0, 5, __constVal0, 10, __constVal96, 11, __constVal32, 12, __constVal32, 0, __constVal63
13	6289	78	#line 6289 "C:\Users\Lucas\Desktop\UnB\Droid\sekksi2016\tentativa2\consultor_cagadinha.nxc"
13	315	78	#line 315 "C:\Users\Lucas\Desktop\UnB\Droid\sekksi2016\tentativa2\consultor_cagadinha.nxc"
13	317	78	#line 317 "C:\Users\Lucas\Desktop\UnB\Droid\sekksi2016\tentativa2\consultor_cagadinha.nxc"
13	318	78		subcall VoltaGarra, __VoltaGarra_return
13	317	81	#line 317 "C:\Users\Lucas\Desktop\UnB\Droid\sekksi2016\tentativa2\consultor_cagadinha.nxc"
13	318	81	#line 318 "C:\Users\Lucas\Desktop\UnB\Droid\sekksi2016\tentativa2\consultor_cagadinha.nxc"
13	319	81		set __D0PegaBoneco, 0
13	318	84	#line 318 "C:\Users\Lucas\Desktop\UnB\Droid\sekksi2016\tentativa2\consultor_cagadinha.nxc"
13	319	84		subret __PegaBoneco_return
13	318	86	#line 318 "C:\Users\Lucas\Desktop\UnB\Droid\sekksi2016\tentativa2\consultor_cagadinha.nxc"
13	320	86	#line 320 "C:\Users\Lucas\Desktop\UnB\Droid\sekksi2016\tentativa2\consultor_cagadinha.nxc"
13	320	86	#line 320 "C:\Users\Lucas\Desktop\UnB\Droid\sekksi2016\tentativa2\consultor_cagadinha.nxc"
13	321	86		mov __signed_stack_001PegaBoneco, __PegaBoneco_7qG2_tc_7qG2_000
13	320	88	#line 320 "C:\Users\Lucas\Desktop\UnB\Droid\sekksi2016\tentativa2\consultor_cagadinha.nxc"
13	320	88	#line 320 "C:\Users\Lucas\Desktop\UnB\Droid\sekksi2016\tentativa2\consultor_cagadinha.nxc"
13	321	88		mov __D0PegaBoneco, __PegaBoneco_7qG2_old_tc_7qG2_000
13	320	90	#line 320 "C:\Users\Lucas\Desktop\UnB\Droid\sekksi2016\tentativa2\consultor_cagadinha.nxc"
13	321	90		cmp 5, __D0PegaBoneco, __signed_stack_001PegaBoneco, __D0PegaBoneco
13	320	94	#line 320 "C:\Users\Lucas\Desktop\UnB\Droid\sekksi2016\tentativa2\consultor_cagadinha.nxc"
13	321	94		brtst 4, __ASM_Label_726, __D0PegaBoneco
13	320	97	#line 320 "C:\Users\Lucas\Desktop\UnB\Droid\sekksi2016\tentativa2\consultor_cagadinha.nxc"
13	321	97		jmp __ASM_Label_725
13	320	99	#line 320 "C:\Users\Lucas\Desktop\UnB\Droid\sekksi2016\tentativa2\consultor_cagadinha.nxc"
13	320	99	#line 320 "C:\Users\Lucas\Desktop\UnB\Droid\sekksi2016\tentativa2\consultor_cagadinha.nxc"
13	322	99	#line 322 "C:\Users\Lucas\Desktop\UnB\Droid\sekksi2016\tentativa2\consultor_cagadinha.nxc"
13	323	99		set __D0PegaBoneco, 0
13	322	102	#line 322 "C:\Users\Lucas\Desktop\UnB\Droid\sekksi2016\tentativa2\consultor_cagadinha.nxc"
13	323	102	#pragma macro 7
13	323	102		setout __constVal0, 2, __D0PegaBoneco, 1, __constVal3, 8, __constVal0, 6, __constVal32, 7, __constVal0, 5, __constVal0, 10, __constVal96, 11, __constVal32, 12, __constVal32, 0, __constVal63
13	6323	125	#line 6323 "C:\Users\Lucas\Desktop\UnB\Droid\sekksi2016\tentativa2\consultor_cagadinha.nxc"
13	322	125	#line 322 "C:\Users\Lucas\Desktop\UnB\Droid\sekksi2016\tentativa2\consultor_cagadinha.nxc"
13	324	125	#line 324 "C:\Users\Lucas\Desktop\UnB\Droid\sekksi2016\tentativa2\consultor_cagadinha.nxc"
13	325	125		set __D0PegaBoneco, 1
13	324	128	#line 324 "C:\Users\Lucas\Desktop\UnB\Droid\sekksi2016\tentativa2\consultor_cagadinha.nxc"
13	325	128		subret __PegaBoneco_return
13	324	130	#line 324 "C:\Users\Lucas\Desktop\UnB\Droid\sekksi2016\tentativa2\consultor_cagadinha.nxc"
13	327	130	#line 327 "C:\Users\Lucas\Desktop\UnB\Droid\sekksi2016\tentativa2\consultor_cagadinha.nxc"
13	328	130		subret __PegaBoneco_return
14	331	0	#line 331 "C:\Users\Lucas\Desktop\UnB\Droid\sekksi2016\tentativa2\consultor_cagadinha.nxc"
14	332	0		set __signed_stack_001VoltaGarra, 0
14	331	3	#line 331 "C:\Users\Lucas\Desktop\UnB\Droid\sekksi2016\tentativa2\consultor_cagadinha.nxc"
14	331	3	#line 331 "C:\Users\Lucas\Desktop\UnB\Droid\sekksi2016\tentativa2\consultor_cagadinha.nxc"
14	331	3	#line 331 "C:\Users\Lucas\Desktop\UnB\Droid\sekksi2016\tentativa2\consultor_cagadinha.nxc"
14	332	3		sub __D0VoltaGarra, __signed_stack_001VoltaGarra, __constValNeg30
14	331	7	#line 331 "C:\Users\Lucas\Desktop\UnB\Droid\sekksi2016\tentativa2\consultor_cagadinha.nxc"
14	332	7	#pragma macro 7
14	332	7		setout __constVal0, 2, __D0VoltaGarra, 1, __constVal3, 8, __constVal0, 6, __constVal32, 7, __constVal0, 5, __constVal0, 10, __constVal96, 11, __constVal32, 12, __constVal32, 0, __constVal63
14	6356	30	#line 6356 "C:\Users\Lucas\Desktop\UnB\Droid\sekksi2016\tentativa2\consultor_cagadinha.nxc"
14	331	30	#line 331 "C:\Users\Lucas\Desktop\UnB\Droid\sekksi2016\tentativa2\consultor_cagadinha.nxc"
14	332	30	#line 332 "C:\Users\Lucas\Desktop\UnB\Droid\sekksi2016\tentativa2\consultor_cagadinha.nxc"
14	333	30		getout __VoltaGarra_7qG2_tc_7qG2_000, __constVal0, 4
14	332	34	#line 332 "C:\Users\Lucas\Desktop\UnB\Droid\sekksi2016\tentativa2\consultor_cagadinha.nxc"
14	332	34	#line 332 "C:\Users\Lucas\Desktop\UnB\Droid\sekksi2016\tentativa2\consultor_cagadinha.nxc"
14	335	34	#line 335 "C:\Users\Lucas\Desktop\UnB\Droid\sekksi2016\tentativa2\consultor_cagadinha.nxc"
14	336	34		set __Wait_7qG2_ms_7qG2_000_inline_VoltaGarra, 200
14	335	37	#line 335 "C:\Users\Lucas\Desktop\UnB\Droid\sekksi2016\tentativa2\consultor_cagadinha.nxc"
14	8869	37	#line 8869 "NXCDefs.h"
14	8870	37		wait2 NA, __Wait_7qG2_ms_7qG2_000_inline_VoltaGarra
14	8869	40	#line 8869 "NXCDefs.h"
14	335	40	#line 335 "C:\Users\Lucas\Desktop\UnB\Droid\sekksi2016\tentativa2\consultor_cagadinha.nxc"
14	336	40	#line 336 "C:\Users\Lucas\Desktop\UnB\Droid\sekksi2016\tentativa2\consultor_cagadinha.nxc"
14	337	40		mov __VoltaGarra_7qG2_old_tc_7qG2_000, __VoltaGarra_7qG2_tc_7qG2_000
14	336	42	#line 336 "C:\Users\Lucas\Desktop\UnB\Droid\sekksi2016\tentativa2\consultor_cagadinha.nxc"
14	336	42	#line 336 "C:\Users\Lucas\Desktop\UnB\Droid\sekksi2016\tentativa2\consultor_cagadinha.nxc"
14	337	42	#line 337 "C:\Users\Lucas\Desktop\UnB\Droid\sekksi2016\tentativa2\consultor_cagadinha.nxc"
14	338	42		getout __VoltaGarra_7qG2_tc_7qG2_000, __constVal0, 4
14	337	46	#line 337 "C:\Users\Lucas\Desktop\UnB\Droid\sekksi2016\tentativa2\consultor_cagadinha.nxc"
14	337	46	#line 337 "C:\Users\Lucas\Desktop\UnB\Droid\sekksi2016\tentativa2\consultor_cagadinha.nxc"
14	338	46	#line 338 "C:\Users\Lucas\Desktop\UnB\Droid\sekksi2016\tentativa2\consultor_cagadinha.nxc"
14	339	46		mov __signed_stack_001VoltaGarra, __VoltaGarra_7qG2_tc_7qG2_000
14	338	48	#line 338 "C:\Users\Lucas\Desktop\UnB\Droid\sekksi2016\tentativa2\consultor_cagadinha.nxc"
14	338	48	#line 338 "C:\Users\Lucas\Desktop\UnB\Droid\sekksi2016\tentativa2\consultor_cagadinha.nxc"
14	339	48		mov __D0VoltaGarra, __VoltaGarra_7qG2_old_tc_7qG2_000
14	338	50	#line 338 "C:\Users\Lucas\Desktop\UnB\Droid\sekksi2016\tentativa2\consultor_cagadinha.nxc"
14	339	50		cmp 5, __D0VoltaGarra, __signed_stack_001VoltaGarra, __D0VoltaGarra
14	338	54	#line 338 "C:\Users\Lucas\Desktop\UnB\Droid\sekksi2016\tentativa2\consultor_cagadinha.nxc"
14	339	54		brtst 4, __ASM_Label_753, __D0VoltaGarra
14	338	57	#line 338 "C:\Users\Lucas\Desktop\UnB\Droid\sekksi2016\tentativa2\consultor_cagadinha.nxc"
14	339	57		jmp __ASM_Label_752
14	338	59	#line 338 "C:\Users\Lucas\Desktop\UnB\Droid\sekksi2016\tentativa2\consultor_cagadinha.nxc"
14	338	59	#line 338 "C:\Users\Lucas\Desktop\UnB\Droid\sekksi2016\tentativa2\consultor_cagadinha.nxc"
14	340	59	#line 340 "C:\Users\Lucas\Desktop\UnB\Droid\sekksi2016\tentativa2\consultor_cagadinha.nxc"
14	341	59		set __D0VoltaGarra, 0
14	340	62	#line 340 "C:\Users\Lucas\Desktop\UnB\Droid\sekksi2016\tentativa2\consultor_cagadinha.nxc"
14	341	62	#pragma macro 7
14	341	62		setout __constVal0, 2, __D0VoltaGarra, 1, __constVal3, 8, __constVal0, 6, __constVal32, 7, __constVal0, 5, __constVal0, 10, __constVal96, 11, __constVal32, 12, __constVal32, 0, __constVal63
14	6414	85	#line 6414 "C:\Users\Lucas\Desktop\UnB\Droid\sekksi2016\tentativa2\consultor_cagadinha.nxc"
14	340	85	#line 340 "C:\Users\Lucas\Desktop\UnB\Droid\sekksi2016\tentativa2\consultor_cagadinha.nxc"
14	343	85	#line 343 "C:\Users\Lucas\Desktop\UnB\Droid\sekksi2016\tentativa2\consultor_cagadinha.nxc"
14	344	85		subret __VoltaGarra_return
15	347	0	#line 347 "C:\Users\Lucas\Desktop\UnB\Droid\sekksi2016\tentativa2\consultor_cagadinha.nxc"
15	348	0		set __lerSensor_7qG2_sensor_7qG2_000, 2
15	347	3	#line 347 "C:\Users\Lucas\Desktop\UnB\Droid\sekksi2016\tentativa2\consultor_cagadinha.nxc"
15	347	3	#line 347 "C:\Users\Lucas\Desktop\UnB\Droid\sekksi2016\tentativa2\consultor_cagadinha.nxc"
15	348	3		subcall lerSensor, __lerSensor_return
15	347	5	#line 347 "C:\Users\Lucas\Desktop\UnB\Droid\sekksi2016\tentativa2\consultor_cagadinha.nxc"
15	348	5		mov __CorBoneco_7qG2_leitura_7qG2_000, __D0lerSensor
15	347	7	#line 347 "C:\Users\Lucas\Desktop\UnB\Droid\sekksi2016\tentativa2\consultor_cagadinha.nxc"
15	347	7	#line 347 "C:\Users\Lucas\Desktop\UnB\Droid\sekksi2016\tentativa2\consultor_cagadinha.nxc"
15	349	7	#line 349 "C:\Users\Lucas\Desktop\UnB\Droid\sekksi2016\tentativa2\consultor_cagadinha.nxc"
15	350	7		mov __signed_stack_001CorBoneco, __D0lerSensor
15	349	9	#line 349 "C:\Users\Lucas\Desktop\UnB\Droid\sekksi2016\tentativa2\consultor_cagadinha.nxc"
15	349	9	#line 349 "C:\Users\Lucas\Desktop\UnB\Droid\sekksi2016\tentativa2\consultor_cagadinha.nxc"
15	350	9		set __D0CorBoneco, 600
15	349	12	#line 349 "C:\Users\Lucas\Desktop\UnB\Droid\sekksi2016\tentativa2\consultor_cagadinha.nxc"
15	350	12		cmp 0, __D0CorBoneco, __signed_stack_001CorBoneco, __D0CorBoneco
15	349	16	#line 349 "C:\Users\Lucas\Desktop\UnB\Droid\sekksi2016\tentativa2\consultor_cagadinha.nxc"
15	350	16		brtst 4, __ASM_Label_769, __D0CorBoneco
15	349	19	#line 349 "C:\Users\Lucas\Desktop\UnB\Droid\sekksi2016\tentativa2\consultor_cagadinha.nxc"
15	350	19		mov __signed_stack_001CorBoneco, __CorBoneco_7qG2_leitura_7qG2_000
15	349	21	#line 349 "C:\Users\Lucas\Desktop\UnB\Droid\sekksi2016\tentativa2\consultor_cagadinha.nxc"
15	349	21	#line 349 "C:\Users\Lucas\Desktop\UnB\Droid\sekksi2016\tentativa2\consultor_cagadinha.nxc"
15	350	21		set __D0CorBoneco, 250
15	349	24	#line 349 "C:\Users\Lucas\Desktop\UnB\Droid\sekksi2016\tentativa2\consultor_cagadinha.nxc"
15	350	24		cmp 1, __D0CorBoneco, __signed_stack_001CorBoneco, __D0CorBoneco
15	351	28	#line 351 "C:\Users\Lucas\Desktop\UnB\Droid\sekksi2016\tentativa2\consultor_cagadinha.nxc"
15	352	28		brtst 4, __ASM_Label_774, __D0CorBoneco
15	351	31	#line 351 "C:\Users\Lucas\Desktop\UnB\Droid\sekksi2016\tentativa2\consultor_cagadinha.nxc"
15	352	31		set __D0CorBoneco, 1
15	351	34	#line 351 "C:\Users\Lucas\Desktop\UnB\Droid\sekksi2016\tentativa2\consultor_cagadinha.nxc"
15	352	34		subret __CorBoneco_return
15	351	36	#line 351 "C:\Users\Lucas\Desktop\UnB\Droid\sekksi2016\tentativa2\consultor_cagadinha.nxc"
15	353	36	#line 353 "C:\Users\Lucas\Desktop\UnB\Droid\sekksi2016\tentativa2\consultor_cagadinha.nxc"
15	353	36	#line 353 "C:\Users\Lucas\Desktop\UnB\Droid\sekksi2016\tentativa2\consultor_cagadinha.nxc"
15	354	36		mov __signed_stack_001CorBoneco, __CorBoneco_7qG2_leitura_7qG2_000
15	353	38	#line 353 "C:\Users\Lucas\Desktop\UnB\Droid\sekksi2016\tentativa2\consultor_cagadinha.nxc"
15	353	38	#line 353 "C:\Users\Lucas\Desktop\UnB\Droid\sekksi2016\tentativa2\consultor_cagadinha.nxc"
15	354	38		set __D0CorBoneco, 250
15	353	41	#line 353 "C:\Users\Lucas\Desktop\UnB\Droid\sekksi2016\tentativa2\consultor_cagadinha.nxc"
15	354	41		cmp 0, __D0CorBoneco, __signed_stack_001CorBoneco, __D0CorBoneco
15	353	45	#line 353 "C:\Users\Lucas\Desktop\UnB\Droid\sekksi2016\tentativa2\consultor_cagadinha.nxc"
15	354	45		brtst 4, __ASM_Label_778, __D0CorBoneco
15	353	48	#line 353 "C:\Users\Lucas\Desktop\UnB\Droid\sekksi2016\tentativa2\consultor_cagadinha.nxc"
15	354	48		mov __signed_stack_001CorBoneco, __CorBoneco_7qG2_leitura_7qG2_000
15	353	50	#line 353 "C:\Users\Lucas\Desktop\UnB\Droid\sekksi2016\tentativa2\consultor_cagadinha.nxc"
15	353	50	#line 353 "C:\Users\Lucas\Desktop\UnB\Droid\sekksi2016\tentativa2\consultor_cagadinha.nxc"
15	354	50		set __D0CorBoneco, 10
15	353	53	#line 353 "C:\Users\Lucas\Desktop\UnB\Droid\sekksi2016\tentativa2\consultor_cagadinha.nxc"
15	354	53		cmp 1, __D0CorBoneco, __signed_stack_001CorBoneco, __D0CorBoneco
15	354	57	#line 354 "C:\Users\Lucas\Desktop\UnB\Droid\sekksi2016\tentativa2\consultor_cagadinha.nxc"
15	355	57		brtst 4, __ASM_Label_783, __D0CorBoneco
15	354	60	#line 354 "C:\Users\Lucas\Desktop\UnB\Droid\sekksi2016\tentativa2\consultor_cagadinha.nxc"
15	355	60		set __D0CorBoneco, 2
15	354	63	#line 354 "C:\Users\Lucas\Desktop\UnB\Droid\sekksi2016\tentativa2\consultor_cagadinha.nxc"
15	355	63		subret __CorBoneco_return
15	354	65	#line 354 "C:\Users\Lucas\Desktop\UnB\Droid\sekksi2016\tentativa2\consultor_cagadinha.nxc"
15	355	65	#line 355 "C:\Users\Lucas\Desktop\UnB\Droid\sekksi2016\tentativa2\consultor_cagadinha.nxc"
15	355	65	#line 355 "C:\Users\Lucas\Desktop\UnB\Droid\sekksi2016\tentativa2\consultor_cagadinha.nxc"
15	356	65		mov __signed_stack_001CorBoneco, __CorBoneco_7qG2_leitura_7qG2_000
15	355	67	#line 355 "C:\Users\Lucas\Desktop\UnB\Droid\sekksi2016\tentativa2\consultor_cagadinha.nxc"
15	355	67	#line 355 "C:\Users\Lucas\Desktop\UnB\Droid\sekksi2016\tentativa2\consultor_cagadinha.nxc"
15	356	67		set __D0CorBoneco, 168
15	355	70	#line 355 "C:\Users\Lucas\Desktop\UnB\Droid\sekksi2016\tentativa2\consultor_cagadinha.nxc"
15	356	70		cmp 0, __D0CorBoneco, __signed_stack_001CorBoneco, __D0CorBoneco
15	355	74	#line 355 "C:\Users\Lucas\Desktop\UnB\Droid\sekksi2016\tentativa2\consultor_cagadinha.nxc"
15	356	74		brtst 4, __ASM_Label_787, __D0CorBoneco
15	355	77	#line 355 "C:\Users\Lucas\Desktop\UnB\Droid\sekksi2016\tentativa2\consultor_cagadinha.nxc"
15	356	77		mov __signed_stack_001CorBoneco, __CorBoneco_7qG2_leitura_7qG2_000
15	355	79	#line 355 "C:\Users\Lucas\Desktop\UnB\Droid\sekksi2016\tentativa2\consultor_cagadinha.nxc"
15	355	79	#line 355 "C:\Users\Lucas\Desktop\UnB\Droid\sekksi2016\tentativa2\consultor_cagadinha.nxc"
15	356	79		set __D0CorBoneco, 78
15	355	82	#line 355 "C:\Users\Lucas\Desktop\UnB\Droid\sekksi2016\tentativa2\consultor_cagadinha.nxc"
15	356	82		cmp 1, __D0CorBoneco, __signed_stack_001CorBoneco, __D0CorBoneco
15	356	86	#line 356 "C:\Users\Lucas\Desktop\UnB\Droid\sekksi2016\tentativa2\consultor_cagadinha.nxc"
15	357	86		brtst 4, __ASM_Label_792, __D0CorBoneco
15	356	89	#line 356 "C:\Users\Lucas\Desktop\UnB\Droid\sekksi2016\tentativa2\consultor_cagadinha.nxc"
15	357	89		set __D0CorBoneco, 3
15	356	92	#line 356 "C:\Users\Lucas\Desktop\UnB\Droid\sekksi2016\tentativa2\consultor_cagadinha.nxc"
15	357	92		subret __CorBoneco_return
15	356	94	#line 356 "C:\Users\Lucas\Desktop\UnB\Droid\sekksi2016\tentativa2\consultor_cagadinha.nxc"
15	359	94	#line 359 "C:\Users\Lucas\Desktop\UnB\Droid\sekksi2016\tentativa2\consultor_cagadinha.nxc"
15	359	94	#line 359 "C:\Users\Lucas\Desktop\UnB\Droid\sekksi2016\tentativa2\consultor_cagadinha.nxc"
15	360	94		subret __CorBoneco_return
16	360	0	#line 360 "C:\Users\Lucas\Desktop\UnB\Droid\sekksi2016\tentativa2\consultor_cagadinha.nxc"
16	361	0		getout __signed_stack_001Pega, __constVal0, 4
16	360	4	#line 360 "C:\Users\Lucas\Desktop\UnB\Droid\sekksi2016\tentativa2\consultor_cagadinha.nxc"
16	361	4	#line 361 "C:\Users\Lucas\Desktop\UnB\Droid\sekksi2016\tentativa2\consultor_cagadinha.nxc"
16	362	4		set __D0Pega, 0
16	361	7	#line 361 "C:\Users\Lucas\Desktop\UnB\Droid\sekksi2016\tentativa2\consultor_cagadinha.nxc"
16	362	7		cmp 5, __D0Pega, __signed_stack_001Pega, __D0Pega
16	362	11	#line 362 "C:\Users\Lucas\Desktop\UnB\Droid\sekksi2016\tentativa2\consultor_cagadinha.nxc"
16	363	11		brtst 4, __ASM_Label_796, __D0Pega
16	362	14	#line 362 "C:\Users\Lucas\Desktop\UnB\Droid\sekksi2016\tentativa2\consultor_cagadinha.nxc"
16	363	14	#pragma macro 7
16	363	14		setout __constVal0, 0, __constVal8
16	6570	19	#line 6570 "C:\Users\Lucas\Desktop\UnB\Droid\sekksi2016\tentativa2\consultor_cagadinha.nxc"
16	362	19	#line 362 "C:\Users\Lucas\Desktop\UnB\Droid\sekksi2016\tentativa2\consultor_cagadinha.nxc"
16	364	19	#line 364 "C:\Users\Lucas\Desktop\UnB\Droid\sekksi2016\tentativa2\consultor_cagadinha.nxc"
16	365	19		jmp __ASM_Label_795
16	364	21	#line 364 "C:\Users\Lucas\Desktop\UnB\Droid\sekksi2016\tentativa2\consultor_cagadinha.nxc"
16	364	21	#line 364 "C:\Users\Lucas\Desktop\UnB\Droid\sekksi2016\tentativa2\consultor_cagadinha.nxc"
16	365	21		mov __D0Pega, __constValNeg70
16	364	23	#line 364 "C:\Users\Lucas\Desktop\UnB\Droid\sekksi2016\tentativa2\consultor_cagadinha.nxc"
16	365	23	#pragma macro 7
16	365	23		setout __constVal0, 2, __D0Pega, 1, __constVal3, 8, __constVal0, 6, __constVal32, 7, __constVal0, 5, __constVal0, 10, __constVal96, 11, __constVal32, 12, __constVal32, 0, __constVal63
16	6579	46	#line 6579 "C:\Users\Lucas\Desktop\UnB\Droid\sekksi2016\tentativa2\consultor_cagadinha.nxc"
16	364	46	#line 364 "C:\Users\Lucas\Desktop\UnB\Droid\sekksi2016\tentativa2\consultor_cagadinha.nxc"
16	365	46	#line 365 "C:\Users\Lucas\Desktop\UnB\Droid\sekksi2016\tentativa2\consultor_cagadinha.nxc"
16	366	46		getout __signed_stack_001Pega, __constVal0, 4
16	365	50	#line 365 "C:\Users\Lucas\Desktop\UnB\Droid\sekksi2016\tentativa2\consultor_cagadinha.nxc"
16	365	50	#line 365 "C:\Users\Lucas\Desktop\UnB\Droid\sekksi2016\tentativa2\consultor_cagadinha.nxc"
16	366	50		mov __D0Pega, __constValNeg110
16	365	52	#line 365 "C:\Users\Lucas\Desktop\UnB\Droid\sekksi2016\tentativa2\consultor_cagadinha.nxc"
16	366	52		cmp 1, __D0Pega, __signed_stack_001Pega, __D0Pega
16	365	56	#line 365 "C:\Users\Lucas\Desktop\UnB\Droid\sekksi2016\tentativa2\consultor_cagadinha.nxc"
16	366	56		brtst 4, __ASM_Label_802, __D0Pega
16	365	59	#line 365 "C:\Users\Lucas\Desktop\UnB\Droid\sekksi2016\tentativa2\consultor_cagadinha.nxc"
16	365	59	#line 365 "C:\Users\Lucas\Desktop\UnB\Droid\sekksi2016\tentativa2\consultor_cagadinha.nxc"
16	366	59		jmp __ASM_Label_801
16	365	61	#line 365 "C:\Users\Lucas\Desktop\UnB\Droid\sekksi2016\tentativa2\consultor_cagadinha.nxc"
16	366	61	#line 366 "C:\Users\Lucas\Desktop\UnB\Droid\sekksi2016\tentativa2\consultor_cagadinha.nxc"
16	367	61	#pragma macro 7
16	367	61		setout __constVal0, 2, __constVal0, 1, __constVal3, 8, __constVal0, 6, __constVal32, 7, __constVal0, 5, __constVal0, 10, __constVal96, 11, __constVal32, 12, __constVal32, 0, __constVal63
16	6602	84	#line 6602 "C:\Users\Lucas\Desktop\UnB\Droid\sekksi2016\tentativa2\consultor_cagadinha.nxc"
16	366	84	#line 366 "C:\Users\Lucas\Desktop\UnB\Droid\sekksi2016\tentativa2\consultor_cagadinha.nxc"
16	367	84	#line 367 "C:\Users\Lucas\Desktop\UnB\Droid\sekksi2016\tentativa2\consultor_cagadinha.nxc"
16	368	84		set __Wait_7qG2_ms_7qG2_000_inline_Pega, 200
16	367	87	#line 367 "C:\Users\Lucas\Desktop\UnB\Droid\sekksi2016\tentativa2\consultor_cagadinha.nxc"
16	8869	87	#line 8869 "NXCDefs.h"
16	8870	87		wait2 NA, __Wait_7qG2_ms_7qG2_000_inline_Pega
16	8869	90	#line 8869 "NXCDefs.h"
16	367	90	#line 367 "C:\Users\Lucas\Desktop\UnB\Droid\sekksi2016\tentativa2\consultor_cagadinha.nxc"
16	368	90	#line 368 "C:\Users\Lucas\Desktop\UnB\Droid\sekksi2016\tentativa2\consultor_cagadinha.nxc"
16	369	90		subcall VoltaGarra, __VoltaGarra_return
16	368	93	#line 368 "C:\Users\Lucas\Desktop\UnB\Droid\sekksi2016\tentativa2\consultor_cagadinha.nxc"
16	371	93	#line 371 "C:\Users\Lucas\Desktop\UnB\Droid\sekksi2016\tentativa2\consultor_cagadinha.nxc"
16	372	93		subret __Pega_return
17	373	0	#line 373 "C:\Users\Lucas\Desktop\UnB\Droid\sekksi2016\tentativa2\consultor_cagadinha.nxc"
17	374	0	#pragma macro 14
17	374	0		acquire __RemoteMutex
17	374	1		mov __SRSTmpBuf, __DCMessageWritePacket
17	374	3		replace __SRSTmpBuf, __SRSTmpBuf, __constVal2, __constVal1
17	374	8		replace __SRSTmpBuf, __SRSTmpBuf, __constVal3, __constVal5
17	374	13		mov __SRSTmpLongVal, __constVal1
17	374	15		flatten __SRSFlattenBuf, __SRSTmpLongVal
17	374	18		arrbuild __SRSSendBuf, __SRSTmpBuf, __SRSFlattenBuf
17	374	23		acquire __CBTWMutex
17	374	24		mov __CBTWArgs.Connection, __constVal0
17	374	26		mov __CBTWArgs.Buffer, __SRSSendBuf
17	374	28		syscall 29, __CBTWArgs
17	374	31		release __CBTWMutex
17	374	32		release __RemoteMutex
17	6625	33	#line 6625 "C:\Users\Lucas\Desktop\UnB\Droid\sekksi2016\tentativa2\consultor_cagadinha.nxc"
17	373	33	#line 373 "C:\Users\Lucas\Desktop\UnB\Droid\sekksi2016\tentativa2\consultor_cagadinha.nxc"
17	373	33	#line 373 "C:\Users\Lucas\Desktop\UnB\Droid\sekksi2016\tentativa2\consultor_cagadinha.nxc"
17	376	33	#line 376 "C:\Users\Lucas\Desktop\UnB\Droid\sekksi2016\tentativa2\consultor_cagadinha.nxc"
17	377	33		subret __MandarParar_return
18	378	0	#line 378 "C:\Users\Lucas\Desktop\UnB\Droid\sekksi2016\tentativa2\consultor_cagadinha.nxc"
18	379	0	#pragma macro 14
18	379	0		acquire __RemoteMutex
18	379	1		mov __SRSTmpBuf, __DCMessageWritePacket
18	379	3		replace __SRSTmpBuf, __SRSTmpBuf, __constVal2, __constVal1
18	379	8		replace __SRSTmpBuf, __SRSTmpBuf, __constVal3, __constVal5
18	379	13		mov __SRSTmpLongVal, __constVal2
18	379	15		flatten __SRSFlattenBuf, __SRSTmpLongVal
18	379	18		arrbuild __SRSSendBuf, __SRSTmpBuf, __SRSFlattenBuf
18	379	23		acquire __CBTWMutex
18	379	24		mov __CBTWArgs.Connection, __constVal0
18	379	26		mov __CBTWArgs.Buffer, __SRSSendBuf
18	379	28		syscall 29, __CBTWArgs
18	379	31		release __CBTWMutex
18	379	32		release __RemoteMutex
18	6634	33	#line 6634 "C:\Users\Lucas\Desktop\UnB\Droid\sekksi2016\tentativa2\consultor_cagadinha.nxc"
18	378	33	#line 378 "C:\Users\Lucas\Desktop\UnB\Droid\sekksi2016\tentativa2\consultor_cagadinha.nxc"
18	378	33	#line 378 "C:\Users\Lucas\Desktop\UnB\Droid\sekksi2016\tentativa2\consultor_cagadinha.nxc"
18	381	33	#line 381 "C:\Users\Lucas\Desktop\UnB\Droid\sekksi2016\tentativa2\consultor_cagadinha.nxc"
18	382	33		subret __MandarSeguir_return
19	383	0	#line 383 "C:\Users\Lucas\Desktop\UnB\Droid\sekksi2016\tentativa2\consultor_cagadinha.nxc"
19	384	0		set __PlaySound_7qG2_aCode_7qG2_000, 3
19	383	3	#line 383 "C:\Users\Lucas\Desktop\UnB\Droid\sekksi2016\tentativa2\consultor_cagadinha.nxc"
19	383	3	#line 383 "C:\Users\Lucas\Desktop\UnB\Droid\sekksi2016\tentativa2\consultor_cagadinha.nxc"
19	384	3		subcall PlaySound, __PlaySound_return
19	383	6	#line 383 "C:\Users\Lucas\Desktop\UnB\Droid\sekksi2016\tentativa2\consultor_cagadinha.nxc"
19	384	6	#line 384 "C:\Users\Lucas\Desktop\UnB\Droid\sekksi2016\tentativa2\consultor_cagadinha.nxc"
19	385	6		set __PlaySound_7qG2_aCode_7qG2_000, 2
19	384	9	#line 384 "C:\Users\Lucas\Desktop\UnB\Droid\sekksi2016\tentativa2\consultor_cagadinha.nxc"
19	384	9	#line 384 "C:\Users\Lucas\Desktop\UnB\Droid\sekksi2016\tentativa2\consultor_cagadinha.nxc"
19	385	9		subcall PlaySound, __PlaySound_return
19	384	12	#line 384 "C:\Users\Lucas\Desktop\UnB\Droid\sekksi2016\tentativa2\consultor_cagadinha.nxc"
19	387	12	#line 387 "C:\Users\Lucas\Desktop\UnB\Droid\sekksi2016\tentativa2\consultor_cagadinha.nxc"
19	388	12		subret __BipBranco_return
20	390	0	#line 390 "C:\Users\Lucas\Desktop\UnB\Droid\sekksi2016\tentativa2\consultor_cagadinha.nxc"
20	391	0		set __PlaySound_7qG2_aCode_7qG2_000, 2
20	390	3	#line 390 "C:\Users\Lucas\Desktop\UnB\Droid\sekksi2016\tentativa2\consultor_cagadinha.nxc"
20	390	3	#line 390 "C:\Users\Lucas\Desktop\UnB\Droid\sekksi2016\tentativa2\consultor_cagadinha.nxc"
20	391	3		subcall PlaySound, __PlaySound_return
20	390	6	#line 390 "C:\Users\Lucas\Desktop\UnB\Droid\sekksi2016\tentativa2\consultor_cagadinha.nxc"
20	391	6	#line 391 "C:\Users\Lucas\Desktop\UnB\Droid\sekksi2016\tentativa2\consultor_cagadinha.nxc"
20	392	6		set __PlaySound_7qG2_aCode_7qG2_000, 3
20	391	9	#line 391 "C:\Users\Lucas\Desktop\UnB\Droid\sekksi2016\tentativa2\consultor_cagadinha.nxc"
20	391	9	#line 391 "C:\Users\Lucas\Desktop\UnB\Droid\sekksi2016\tentativa2\consultor_cagadinha.nxc"
20	392	9		subcall PlaySound, __PlaySound_return
20	391	12	#line 391 "C:\Users\Lucas\Desktop\UnB\Droid\sekksi2016\tentativa2\consultor_cagadinha.nxc"
20	394	12	#line 394 "C:\Users\Lucas\Desktop\UnB\Droid\sekksi2016\tentativa2\consultor_cagadinha.nxc"
20	395	12		subret __BipPreto_return
21	398	0	#line 398 "C:\Users\Lucas\Desktop\UnB\Droid\sekksi2016\tentativa2\consultor_cagadinha.nxc"
21	399	0		subcall MandarParar, __MandarParar_return
21	398	2	#line 398 "C:\Users\Lucas\Desktop\UnB\Droid\sekksi2016\tentativa2\consultor_cagadinha.nxc"
21	401	2	#line 401 "C:\Users\Lucas\Desktop\UnB\Droid\sekksi2016\tentativa2\consultor_cagadinha.nxc"
21	402	2		subcall PegaBoneco, __PegaBoneco_return
21	401	4	#line 401 "C:\Users\Lucas\Desktop\UnB\Droid\sekksi2016\tentativa2\consultor_cagadinha.nxc"
21	402	4		mov __D0BonecoNaFrente, __D0PegaBoneco
21	402	6	#line 402 "C:\Users\Lucas\Desktop\UnB\Droid\sekksi2016\tentativa2\consultor_cagadinha.nxc"
21	403	6		tst 5, __D0BonecoNaFrente, __D0BonecoNaFrente
21	402	9	#line 402 "C:\Users\Lucas\Desktop\UnB\Droid\sekksi2016\tentativa2\consultor_cagadinha.nxc"
21	403	9		brtst 4, __ASM_Label_819, __D0BonecoNaFrente
21	402	12	#line 402 "C:\Users\Lucas\Desktop\UnB\Droid\sekksi2016\tentativa2\consultor_cagadinha.nxc"
21	403	12		subcall CorBoneco, __CorBoneco_return
21	402	14	#line 402 "C:\Users\Lucas\Desktop\UnB\Droid\sekksi2016\tentativa2\consultor_cagadinha.nxc"
21	403	14		mov __BonecoNaFrente_7qG2_cor_7qG2_000, __D0CorBoneco
21	402	16	#line 402 "C:\Users\Lucas\Desktop\UnB\Droid\sekksi2016\tentativa2\consultor_cagadinha.nxc"
21	402	16	#line 402 "C:\Users\Lucas\Desktop\UnB\Droid\sekksi2016\tentativa2\consultor_cagadinha.nxc"
21	405	16	#line 405 "C:\Users\Lucas\Desktop\UnB\Droid\sekksi2016\tentativa2\consultor_cagadinha.nxc"
21	406	16		mov __signed_stack_001BonecoNaFrente, __D0CorBoneco
21	405	18	#line 405 "C:\Users\Lucas\Desktop\UnB\Droid\sekksi2016\tentativa2\consultor_cagadinha.nxc"
21	406	18	#line 406 "C:\Users\Lucas\Desktop\UnB\Droid\sekksi2016\tentativa2\consultor_cagadinha.nxc"
21	407	18		mov __D0BonecoNaFrente, bonecoAlvo
21	406	20	#line 406 "C:\Users\Lucas\Desktop\UnB\Droid\sekksi2016\tentativa2\consultor_cagadinha.nxc"
21	407	20		cmp 4, __D0BonecoNaFrente, __signed_stack_001BonecoNaFrente, __D0BonecoNaFrente
21	407	24	#line 407 "C:\Users\Lucas\Desktop\UnB\Droid\sekksi2016\tentativa2\consultor_cagadinha.nxc"
21	408	24		brtst 4, __ASM_Label_824, __D0BonecoNaFrente
21	407	27	#line 407 "C:\Users\Lucas\Desktop\UnB\Droid\sekksi2016\tentativa2\consultor_cagadinha.nxc"
21	408	27		mov __signed_stack_001BonecoNaFrente, BonecosCapturados
21	407	29	#line 407 "C:\Users\Lucas\Desktop\UnB\Droid\sekksi2016\tentativa2\consultor_cagadinha.nxc"
21	408	29	#line 408 "C:\Users\Lucas\Desktop\UnB\Droid\sekksi2016\tentativa2\consultor_cagadinha.nxc"
21	409	29		set __D0BonecoNaFrente, 3
21	408	32	#line 408 "C:\Users\Lucas\Desktop\UnB\Droid\sekksi2016\tentativa2\consultor_cagadinha.nxc"
21	409	32		cmp 4, __D0BonecoNaFrente, __signed_stack_001BonecoNaFrente, __D0BonecoNaFrente
21	409	36	#line 409 "C:\Users\Lucas\Desktop\UnB\Droid\sekksi2016\tentativa2\consultor_cagadinha.nxc"
21	410	36		brtst 4, __ASM_Label_827, __D0BonecoNaFrente
21	409	39	#line 409 "C:\Users\Lucas\Desktop\UnB\Droid\sekksi2016\tentativa2\consultor_cagadinha.nxc"
21	410	39		subcall LevantaBoneco, __LevantaBoneco_return
21	409	41	#line 409 "C:\Users\Lucas\Desktop\UnB\Droid\sekksi2016\tentativa2\consultor_cagadinha.nxc"
21	410	41	#line 410 "C:\Users\Lucas\Desktop\UnB\Droid\sekksi2016\tentativa2\consultor_cagadinha.nxc"
21	411	41		set __nbip_7qG2_n_7qG2_000, 4
21	410	44	#line 410 "C:\Users\Lucas\Desktop\UnB\Droid\sekksi2016\tentativa2\consultor_cagadinha.nxc"
21	410	44	#line 410 "C:\Users\Lucas\Desktop\UnB\Droid\sekksi2016\tentativa2\consultor_cagadinha.nxc"
21	411	44		subcall nbip, __nbip_return
21	410	47	#line 410 "C:\Users\Lucas\Desktop\UnB\Droid\sekksi2016\tentativa2\consultor_cagadinha.nxc"
21	411	47	#line 411 "C:\Users\Lucas\Desktop\UnB\Droid\sekksi2016\tentativa2\consultor_cagadinha.nxc"
21	412	47		subcall MandaTeste, __MandaTeste_return
21	411	49	#line 411 "C:\Users\Lucas\Desktop\UnB\Droid\sekksi2016\tentativa2\consultor_cagadinha.nxc"
21	412	49	#line 412 "C:\Users\Lucas\Desktop\UnB\Droid\sekksi2016\tentativa2\consultor_cagadinha.nxc"
21	413	49		set __D0BonecoNaFrente, 1
21	412	52	#line 412 "C:\Users\Lucas\Desktop\UnB\Droid\sekksi2016\tentativa2\consultor_cagadinha.nxc"
21	413	52		tst 5, __D0BonecoNaFrente, __D0BonecoNaFrente
21	412	55	#line 412 "C:\Users\Lucas\Desktop\UnB\Droid\sekksi2016\tentativa2\consultor_cagadinha.nxc"
21	413	55		brtst 4, __ASM_Label_831, __D0BonecoNaFrente
21	414	58	#line 414 "C:\Users\Lucas\Desktop\UnB\Droid\sekksi2016\tentativa2\consultor_cagadinha.nxc"
21	415	58		jmp __ASM_Label_830
21	414	60	#line 414 "C:\Users\Lucas\Desktop\UnB\Droid\sekksi2016\tentativa2\consultor_cagadinha.nxc"
21	416	60	#line 416 "C:\Users\Lucas\Desktop\UnB\Droid\sekksi2016\tentativa2\consultor_cagadinha.nxc"
21	417	60		jmp __ASM_Label_834
21	416	62	#line 416 "C:\Users\Lucas\Desktop\UnB\Droid\sekksi2016\tentativa2\consultor_cagadinha.nxc"
21	417	62		subcall Pega, __Pega_return
21	416	64	#line 416 "C:\Users\Lucas\Desktop\UnB\Droid\sekksi2016\tentativa2\consultor_cagadinha.nxc"
21	417	64	#line 417 "C:\Users\Lucas\Desktop\UnB\Droid\sekksi2016\tentativa2\consultor_cagadinha.nxc"
21	418	64		subcall MandarSeguir, __MandarSeguir_return
21	417	66	#line 417 "C:\Users\Lucas\Desktop\UnB\Droid\sekksi2016\tentativa2\consultor_cagadinha.nxc"
21	418	66	#line 418 "C:\Users\Lucas\Desktop\UnB\Droid\sekksi2016\tentativa2\consultor_cagadinha.nxc"
21	419	66		add BonecosCapturados, BonecosCapturados, __constVal1
21	418	70	#line 418 "C:\Users\Lucas\Desktop\UnB\Droid\sekksi2016\tentativa2\consultor_cagadinha.nxc"
21	419	70	#line 419 "C:\Users\Lucas\Desktop\UnB\Droid\sekksi2016\tentativa2\consultor_cagadinha.nxc"
21	420	70		mov __nbip_7qG2_n_7qG2_000, BonecosCapturados
21	419	72	#line 419 "C:\Users\Lucas\Desktop\UnB\Droid\sekksi2016\tentativa2\consultor_cagadinha.nxc"
21	419	72	#line 419 "C:\Users\Lucas\Desktop\UnB\Droid\sekksi2016\tentativa2\consultor_cagadinha.nxc"
21	420	72		subcall nbip, __nbip_return
21	419	75	#line 419 "C:\Users\Lucas\Desktop\UnB\Droid\sekksi2016\tentativa2\consultor_cagadinha.nxc"
21	422	75	#line 422 "C:\Users\Lucas\Desktop\UnB\Droid\sekksi2016\tentativa2\consultor_cagadinha.nxc"
21	422	75	#line 422 "C:\Users\Lucas\Desktop\UnB\Droid\sekksi2016\tentativa2\consultor_cagadinha.nxc"
21	423	75		jmp __ASM_Label_837
21	422	77	#line 422 "C:\Users\Lucas\Desktop\UnB\Droid\sekksi2016\tentativa2\consultor_cagadinha.nxc"
21	423	77		mov __signed_stack_001BonecoNaFrente, __BonecoNaFrente_7qG2_cor_7qG2_000
21	422	79	#line 422 "C:\Users\Lucas\Desktop\UnB\Droid\sekksi2016\tentativa2\consultor_cagadinha.nxc"
21	423	79	#line 423 "C:\Users\Lucas\Desktop\UnB\Droid\sekksi2016\tentativa2\consultor_cagadinha.nxc"
21	424	79		mov __D0BonecoNaFrente, bonecoNaoAlvo
21	423	81	#line 423 "C:\Users\Lucas\Desktop\UnB\Droid\sekksi2016\tentativa2\consultor_cagadinha.nxc"
21	424	81		cmp 4, __D0BonecoNaFrente, __signed_stack_001BonecoNaFrente, __D0BonecoNaFrente
21	426	85	#line 426 "C:\Users\Lucas\Desktop\UnB\Droid\sekksi2016\tentativa2\consultor_cagadinha.nxc"
21	427	85		brtst 4, __ASM_Label_840, __D0BonecoNaFrente
21	426	88	#line 426 "C:\Users\Lucas\Desktop\UnB\Droid\sekksi2016\tentativa2\consultor_cagadinha.nxc"
21	427	88		subcall Rejeita, __Rejeita_return
21	426	90	#line 426 "C:\Users\Lucas\Desktop\UnB\Droid\sekksi2016\tentativa2\consultor_cagadinha.nxc"
21	428	90	#line 428 "C:\Users\Lucas\Desktop\UnB\Droid\sekksi2016\tentativa2\consultor_cagadinha.nxc"
21	429	90		jmp __ASM_Label_841
21	428	92	#line 428 "C:\Users\Lucas\Desktop\UnB\Droid\sekksi2016\tentativa2\consultor_cagadinha.nxc"
21	429	92		mov __signed_stack_001BonecoNaFrente, __BonecoNaFrente_7qG2_cor_7qG2_000
21	428	94	#line 428 "C:\Users\Lucas\Desktop\UnB\Droid\sekksi2016\tentativa2\consultor_cagadinha.nxc"
21	429	94	#line 429 "C:\Users\Lucas\Desktop\UnB\Droid\sekksi2016\tentativa2\consultor_cagadinha.nxc"
21	430	94		set __D0BonecoNaFrente, 3
21	429	97	#line 429 "C:\Users\Lucas\Desktop\UnB\Droid\sekksi2016\tentativa2\consultor_cagadinha.nxc"
21	430	97		cmp 4, __D0BonecoNaFrente, __signed_stack_001BonecoNaFrente, __D0BonecoNaFrente
21	432	101	#line 432 "C:\Users\Lucas\Desktop\UnB\Droid\sekksi2016\tentativa2\consultor_cagadinha.nxc"
21	433	101		brtst 4, __ASM_Label_844, __D0BonecoNaFrente
21	432	104	#line 432 "C:\Users\Lucas\Desktop\UnB\Droid\sekksi2016\tentativa2\consultor_cagadinha.nxc"
21	433	104		subcall Rejeita, __Rejeita_return
21	432	106	#line 432 "C:\Users\Lucas\Desktop\UnB\Droid\sekksi2016\tentativa2\consultor_cagadinha.nxc"
21	437	106	#line 437 "C:\Users\Lucas\Desktop\UnB\Droid\sekksi2016\tentativa2\consultor_cagadinha.nxc"
21	438	106		jmp __ASM_Label_845
21	437	108	#line 437 "C:\Users\Lucas\Desktop\UnB\Droid\sekksi2016\tentativa2\consultor_cagadinha.nxc"
21	438	108		subcall bip, __bip_return
21	437	111	#line 437 "C:\Users\Lucas\Desktop\UnB\Droid\sekksi2016\tentativa2\consultor_cagadinha.nxc"
21	438	111	#line 438 "C:\Users\Lucas\Desktop\UnB\Droid\sekksi2016\tentativa2\consultor_cagadinha.nxc"
21	439	111		subcall bip, __bip_return
21	438	114	#line 438 "C:\Users\Lucas\Desktop\UnB\Droid\sekksi2016\tentativa2\consultor_cagadinha.nxc"
21	6921	114	#line 6921 "NXCDefs.h"
21	6922	114	#pragma macro 6
21	6922	114		mov __PointOutArgs.Location.X, __constVal200
21	6922	116		mov __PointOutArgs.Location.Y, __constVal200
21	6922	118		mov __PointOutArgs.Options, __constVal1
21	6922	120		syscall 14, __PointOutArgs
21	6831	123	#line 6831 "NXCDefs.h"
21	6921	123	#line 6921 "NXCDefs.h"
21	440	123	#line 440 "C:\Users\Lucas\Desktop\UnB\Droid\sekksi2016\tentativa2\consultor_cagadinha.nxc"
21	441	123	#line 441 "C:\Users\Lucas\Desktop\UnB\Droid\sekksi2016\tentativa2\consultor_cagadinha.nxc"
21	442	123		set __signed_stack_001BonecoNaFrente, 0
21	441	126	#line 441 "C:\Users\Lucas\Desktop\UnB\Droid\sekksi2016\tentativa2\consultor_cagadinha.nxc"
21	441	126	#line 441 "C:\Users\Lucas\Desktop\UnB\Droid\sekksi2016\tentativa2\consultor_cagadinha.nxc"
21	442	126		set __signed_stack_002BonecoNaFrente, 56
21	441	129	#line 441 "C:\Users\Lucas\Desktop\UnB\Droid\sekksi2016\tentativa2\consultor_cagadinha.nxc"
21	441	129	#line 441 "C:\Users\Lucas\Desktop\UnB\Droid\sekksi2016\tentativa2\consultor_cagadinha.nxc"
21	442	129		mov __D0BonecoNaFrente, __BonecoNaFrente_7qG2_cor_7qG2_000
21	441	131	#line 441 "C:\Users\Lucas\Desktop\UnB\Droid\sekksi2016\tentativa2\consultor_cagadinha.nxc"
21	442	131		acquire __TextOutMutex
21	441	132	#line 441 "C:\Users\Lucas\Desktop\UnB\Droid\sekksi2016\tentativa2\consultor_cagadinha.nxc"
21	442	132		mov __TextOutArgs.Location.X, __signed_stack_001BonecoNaFrente
21	441	135	#line 441 "C:\Users\Lucas\Desktop\UnB\Droid\sekksi2016\tentativa2\consultor_cagadinha.nxc"
21	442	135		mov __TextOutArgs.Location.Y, __signed_stack_002BonecoNaFrente
21	441	138	#line 441 "C:\Users\Lucas\Desktop\UnB\Droid\sekksi2016\tentativa2\consultor_cagadinha.nxc"
21	442	138		set __TextOutArgs.Options, 0
21	441	141	#line 441 "C:\Users\Lucas\Desktop\UnB\Droid\sekksi2016\tentativa2\consultor_cagadinha.nxc"
21	442	141		numtostr __TextOutArgs.Text, __D0BonecoNaFrente
21	441	144	#line 441 "C:\Users\Lucas\Desktop\UnB\Droid\sekksi2016\tentativa2\consultor_cagadinha.nxc"
21	442	144		syscall 13, __TextOutArgs
21	441	147	#line 441 "C:\Users\Lucas\Desktop\UnB\Droid\sekksi2016\tentativa2\consultor_cagadinha.nxc"
21	442	147		mov __D0BonecoNaFrente, __TextOutArgs.Result
21	441	150	#line 441 "C:\Users\Lucas\Desktop\UnB\Droid\sekksi2016\tentativa2\consultor_cagadinha.nxc"
21	442	150		release __TextOutMutex
21	441	151	#line 441 "C:\Users\Lucas\Desktop\UnB\Droid\sekksi2016\tentativa2\consultor_cagadinha.nxc"
21	445	151	#line 445 "C:\Users\Lucas\Desktop\UnB\Droid\sekksi2016\tentativa2\consultor_cagadinha.nxc"
21	446	151		subcall VoltaGarra, __VoltaGarra_return
21	445	154	#line 445 "C:\Users\Lucas\Desktop\UnB\Droid\sekksi2016\tentativa2\consultor_cagadinha.nxc"
21	446	154	#line 446 "C:\Users\Lucas\Desktop\UnB\Droid\sekksi2016\tentativa2\consultor_cagadinha.nxc"
21	447	154		subcall MandarSeguir, __MandarSeguir_return
21	446	156	#line 446 "C:\Users\Lucas\Desktop\UnB\Droid\sekksi2016\tentativa2\consultor_cagadinha.nxc"
21	447	156	#line 447 "C:\Users\Lucas\Desktop\UnB\Droid\sekksi2016\tentativa2\consultor_cagadinha.nxc"
21	448	156		set __Wait_7qG2_ms_7qG2_000_inline_BonecoNaFrente, 400
21	447	159	#line 447 "C:\Users\Lucas\Desktop\UnB\Droid\sekksi2016\tentativa2\consultor_cagadinha.nxc"
21	8869	159	#line 8869 "NXCDefs.h"
21	8870	159		wait2 NA, __Wait_7qG2_ms_7qG2_000_inline_BonecoNaFrente
21	8869	162	#line 8869 "NXCDefs.h"
21	447	162	#line 447 "C:\Users\Lucas\Desktop\UnB\Droid\sekksi2016\tentativa2\consultor_cagadinha.nxc"
21	450	162	#line 450 "C:\Users\Lucas\Desktop\UnB\Droid\sekksi2016\tentativa2\consultor_cagadinha.nxc"
21	450	162	#line 450 "C:\Users\Lucas\Desktop\UnB\Droid\sekksi2016\tentativa2\consultor_cagadinha.nxc"
21	450	162	#line 450 "C:\Users\Lucas\Desktop\UnB\Droid\sekksi2016\tentativa2\consultor_cagadinha.nxc"
21	452	162	#line 452 "C:\Users\Lucas\Desktop\UnB\Droid\sekksi2016\tentativa2\consultor_cagadinha.nxc"
21	453	162		jmp __ASM_Label_854
21	452	164	#line 452 "C:\Users\Lucas\Desktop\UnB\Droid\sekksi2016\tentativa2\consultor_cagadinha.nxc"
21	453	164		subcall VoltaGarra, __VoltaGarra_return
21	452	167	#line 452 "C:\Users\Lucas\Desktop\UnB\Droid\sekksi2016\tentativa2\consultor_cagadinha.nxc"
21	453	167	#line 453 "C:\Users\Lucas\Desktop\UnB\Droid\sekksi2016\tentativa2\consultor_cagadinha.nxc"
21	454	167		subcall MandarSeguir, __MandarSeguir_return
21	453	169	#line 453 "C:\Users\Lucas\Desktop\UnB\Droid\sekksi2016\tentativa2\consultor_cagadinha.nxc"
21	454	169	#line 454 "C:\Users\Lucas\Desktop\UnB\Droid\sekksi2016\tentativa2\consultor_cagadinha.nxc"
21	455	169		set __Wait_7qG2_ms_7qG2_000_inline_BonecoNaFrente, 400
21	454	172	#line 454 "C:\Users\Lucas\Desktop\UnB\Droid\sekksi2016\tentativa2\consultor_cagadinha.nxc"
21	8869	172	#line 8869 "NXCDefs.h"
21	8870	172		wait2 NA, __Wait_7qG2_ms_7qG2_000_inline_BonecoNaFrente
21	8869	175	#line 8869 "NXCDefs.h"
21	454	175	#line 454 "C:\Users\Lucas\Desktop\UnB\Droid\sekksi2016\tentativa2\consultor_cagadinha.nxc"
21	458	175	#line 458 "C:\Users\Lucas\Desktop\UnB\Droid\sekksi2016\tentativa2\consultor_cagadinha.nxc"
21	458	175	#line 458 "C:\Users\Lucas\Desktop\UnB\Droid\sekksi2016\tentativa2\consultor_cagadinha.nxc"
21	459	175		subret __BonecoNaFrente_return
22	460	0	#line 460 "C:\Users\Lucas\Desktop\UnB\Droid\sekksi2016\tentativa2\consultor_cagadinha.nxc"
22	461	0		subcall LevantaBoneco, __LevantaBoneco_return
22	460	2	#line 460 "C:\Users\Lucas\Desktop\UnB\Droid\sekksi2016\tentativa2\consultor_cagadinha.nxc"
22	461	2	#line 461 "C:\Users\Lucas\Desktop\UnB\Droid\sekksi2016\tentativa2\consultor_cagadinha.nxc"
22	462	2		subcall MandaRejeitar, __MandaRejeitar_return
22	461	4	#line 461 "C:\Users\Lucas\Desktop\UnB\Droid\sekksi2016\tentativa2\consultor_cagadinha.nxc"
22	462	4	#line 462 "C:\Users\Lucas\Desktop\UnB\Droid\sekksi2016\tentativa2\consultor_cagadinha.nxc"
22	463	4		subcall RecebiGirei, __RecebiGirei_return
22	462	6	#line 462 "C:\Users\Lucas\Desktop\UnB\Droid\sekksi2016\tentativa2\consultor_cagadinha.nxc"
22	462	6	#line 462 "C:\Users\Lucas\Desktop\UnB\Droid\sekksi2016\tentativa2\consultor_cagadinha.nxc"
22	463	6		not __D0Rejeita, __D0RecebiGirei
22	462	9	#line 462 "C:\Users\Lucas\Desktop\UnB\Droid\sekksi2016\tentativa2\consultor_cagadinha.nxc"
22	463	9		tst 5, __D0Rejeita, __D0Rejeita
22	462	12	#line 462 "C:\Users\Lucas\Desktop\UnB\Droid\sekksi2016\tentativa2\consultor_cagadinha.nxc"
22	463	12		brtst 4, __ASM_Label_858, __D0Rejeita
22	463	15	#line 463 "C:\Users\Lucas\Desktop\UnB\Droid\sekksi2016\tentativa2\consultor_cagadinha.nxc"
22	464	15		jmp __ASM_Label_857
22	463	17	#line 463 "C:\Users\Lucas\Desktop\UnB\Droid\sekksi2016\tentativa2\consultor_cagadinha.nxc"
22	463	17	#line 463 "C:\Users\Lucas\Desktop\UnB\Droid\sekksi2016\tentativa2\consultor_cagadinha.nxc"
22	464	17		subcall VoltaGarra, __VoltaGarra_return
22	463	20	#line 463 "C:\Users\Lucas\Desktop\UnB\Droid\sekksi2016\tentativa2\consultor_cagadinha.nxc"
22	464	20	#line 464 "C:\Users\Lucas\Desktop\UnB\Droid\sekksi2016\tentativa2\consultor_cagadinha.nxc"
22	465	20		subcall MandaDesgirar, __MandaDesgirar_return
22	464	22	#line 464 "C:\Users\Lucas\Desktop\UnB\Droid\sekksi2016\tentativa2\consultor_cagadinha.nxc"
22	465	22	#line 465 "C:\Users\Lucas\Desktop\UnB\Droid\sekksi2016\tentativa2\consultor_cagadinha.nxc"
22	466	22		subcall RecebiDesGirei, __RecebiDesGirei_return
22	465	24	#line 465 "C:\Users\Lucas\Desktop\UnB\Droid\sekksi2016\tentativa2\consultor_cagadinha.nxc"
22	465	24	#line 465 "C:\Users\Lucas\Desktop\UnB\Droid\sekksi2016\tentativa2\consultor_cagadinha.nxc"
22	466	24		not __D0Rejeita, __D0RecebiDesGirei
22	465	27	#line 465 "C:\Users\Lucas\Desktop\UnB\Droid\sekksi2016\tentativa2\consultor_cagadinha.nxc"
22	466	27		tst 5, __D0Rejeita, __D0Rejeita
22	465	30	#line 465 "C:\Users\Lucas\Desktop\UnB\Droid\sekksi2016\tentativa2\consultor_cagadinha.nxc"
22	466	30		brtst 4, __ASM_Label_862, __D0Rejeita
22	468	33	#line 468 "C:\Users\Lucas\Desktop\UnB\Droid\sekksi2016\tentativa2\consultor_cagadinha.nxc"
22	469	33		jmp __ASM_Label_861
22	468	35	#line 468 "C:\Users\Lucas\Desktop\UnB\Droid\sekksi2016\tentativa2\consultor_cagadinha.nxc"
22	468	35	#line 468 "C:\Users\Lucas\Desktop\UnB\Droid\sekksi2016\tentativa2\consultor_cagadinha.nxc"
22	469	35		subret __Rejeita_return
23	471	0	#line 471 "C:\Users\Lucas\Desktop\UnB\Droid\sekksi2016\tentativa2\consultor_cagadinha.nxc"
23	472	0	#pragma macro 9
23	472	0		acquire __MRMutex
23	472	1		mov __MRArgs.QueueID, __constVal2
23	472	3		mov __MRArgs.Remove, __constVal1
23	472	5		set __RRNTmpVal, 0
23	472	8		syscall 27, __MRArgs
23	472	11		unflatten __RRNTmpVal, __RRNErr, __MRArgs.Message, __RRNTmpVal
23	472	16		mov __RecebiGirei_7qG2_aux_7qG2_000, __RRNTmpVal
23	472	18		mov __D0RecebiGirei, __MRArgs.Result
23	472	21		release __MRMutex
23	6971	22	#line 6971 "C:\Users\Lucas\Desktop\UnB\Droid\sekksi2016\tentativa2\consultor_cagadinha.nxc"
23	471	22	#line 471 "C:\Users\Lucas\Desktop\UnB\Droid\sekksi2016\tentativa2\consultor_cagadinha.nxc"
23	471	22	#line 471 "C:\Users\Lucas\Desktop\UnB\Droid\sekksi2016\tentativa2\consultor_cagadinha.nxc"
23	472	22	#line 472 "C:\Users\Lucas\Desktop\UnB\Droid\sekksi2016\tentativa2\consultor_cagadinha.nxc"
23	473	22		mov __signed_stack_001RecebiGirei, __RecebiGirei_7qG2_aux_7qG2_000
23	472	24	#line 472 "C:\Users\Lucas\Desktop\UnB\Droid\sekksi2016\tentativa2\consultor_cagadinha.nxc"
23	473	24	#line 473 "C:\Users\Lucas\Desktop\UnB\Droid\sekksi2016\tentativa2\consultor_cagadinha.nxc"
23	474	24		set __D0RecebiGirei, 3
23	473	27	#line 473 "C:\Users\Lucas\Desktop\UnB\Droid\sekksi2016\tentativa2\consultor_cagadinha.nxc"
23	474	27		cmp 4, __D0RecebiGirei, __signed_stack_001RecebiGirei, __D0RecebiGirei
23	473	31	#line 473 "C:\Users\Lucas\Desktop\UnB\Droid\sekksi2016\tentativa2\consultor_cagadinha.nxc"
23	474	31		brtst 4, __ASM_Label_867, __D0RecebiGirei
23	473	34	#line 473 "C:\Users\Lucas\Desktop\UnB\Droid\sekksi2016\tentativa2\consultor_cagadinha.nxc"
23	474	34		set __D0RecebiGirei, 1
23	473	37	#line 473 "C:\Users\Lucas\Desktop\UnB\Droid\sekksi2016\tentativa2\consultor_cagadinha.nxc"
23	474	37		subret __RecebiGirei_return
23	473	39	#line 473 "C:\Users\Lucas\Desktop\UnB\Droid\sekksi2016\tentativa2\consultor_cagadinha.nxc"
23	474	39	#line 474 "C:\Users\Lucas\Desktop\UnB\Droid\sekksi2016\tentativa2\consultor_cagadinha.nxc"
23	474	39	#line 474 "C:\Users\Lucas\Desktop\UnB\Droid\sekksi2016\tentativa2\consultor_cagadinha.nxc"
23	475	39		set __D0RecebiGirei, 0
23	474	42	#line 474 "C:\Users\Lucas\Desktop\UnB\Droid\sekksi2016\tentativa2\consultor_cagadinha.nxc"
23	475	42		subret __RecebiGirei_return
23	474	44	#line 474 "C:\Users\Lucas\Desktop\UnB\Droid\sekksi2016\tentativa2\consultor_cagadinha.nxc"
23	477	44	#line 477 "C:\Users\Lucas\Desktop\UnB\Droid\sekksi2016\tentativa2\consultor_cagadinha.nxc"
23	478	44		subret __RecebiGirei_return
24	480	0	#line 480 "C:\Users\Lucas\Desktop\UnB\Droid\sekksi2016\tentativa2\consultor_cagadinha.nxc"
24	481	0	#pragma macro 9
24	481	0		acquire __MRMutex
24	481	1		mov __MRArgs.QueueID, __constVal2
24	481	3		mov __MRArgs.Remove, __constVal1
24	481	5		set __RRNTmpVal, 0
24	481	8		syscall 27, __MRArgs
24	481	11		unflatten __RRNTmpVal, __RRNErr, __MRArgs.Message, __RRNTmpVal
24	481	16		mov __RecebiDesGirei_7qG2_aux_7qG2_000, __RRNTmpVal
24	481	18		mov __D0RecebiDesGirei, __MRArgs.Result
24	481	21		release __MRMutex
24	7010	22	#line 7010 "C:\Users\Lucas\Desktop\UnB\Droid\sekksi2016\tentativa2\consultor_cagadinha.nxc"
24	480	22	#line 480 "C:\Users\Lucas\Desktop\UnB\Droid\sekksi2016\tentativa2\consultor_cagadinha.nxc"
24	480	22	#line 480 "C:\Users\Lucas\Desktop\UnB\Droid\sekksi2016\tentativa2\consultor_cagadinha.nxc"
24	481	22	#line 481 "C:\Users\Lucas\Desktop\UnB\Droid\sekksi2016\tentativa2\consultor_cagadinha.nxc"
24	482	22		mov __signed_stack_001RecebiDesGirei, __RecebiDesGirei_7qG2_aux_7qG2_000
24	481	24	#line 481 "C:\Users\Lucas\Desktop\UnB\Droid\sekksi2016\tentativa2\consultor_cagadinha.nxc"
24	482	24	#line 482 "C:\Users\Lucas\Desktop\UnB\Droid\sekksi2016\tentativa2\consultor_cagadinha.nxc"
24	483	24		set __D0RecebiDesGirei, 6
24	482	27	#line 482 "C:\Users\Lucas\Desktop\UnB\Droid\sekksi2016\tentativa2\consultor_cagadinha.nxc"
24	483	27		cmp 4, __D0RecebiDesGirei, __signed_stack_001RecebiDesGirei, __D0RecebiDesGirei
24	482	31	#line 482 "C:\Users\Lucas\Desktop\UnB\Droid\sekksi2016\tentativa2\consultor_cagadinha.nxc"
24	483	31		brtst 4, __ASM_Label_874, __D0RecebiDesGirei
24	482	34	#line 482 "C:\Users\Lucas\Desktop\UnB\Droid\sekksi2016\tentativa2\consultor_cagadinha.nxc"
24	483	34		set __D0RecebiDesGirei, 1
24	482	37	#line 482 "C:\Users\Lucas\Desktop\UnB\Droid\sekksi2016\tentativa2\consultor_cagadinha.nxc"
24	483	37		subret __RecebiDesGirei_return
24	482	39	#line 482 "C:\Users\Lucas\Desktop\UnB\Droid\sekksi2016\tentativa2\consultor_cagadinha.nxc"
24	483	39	#line 483 "C:\Users\Lucas\Desktop\UnB\Droid\sekksi2016\tentativa2\consultor_cagadinha.nxc"
24	483	39	#line 483 "C:\Users\Lucas\Desktop\UnB\Droid\sekksi2016\tentativa2\consultor_cagadinha.nxc"
24	484	39		set __D0RecebiDesGirei, 0
24	483	42	#line 483 "C:\Users\Lucas\Desktop\UnB\Droid\sekksi2016\tentativa2\consultor_cagadinha.nxc"
24	484	42		subret __RecebiDesGirei_return
24	483	44	#line 483 "C:\Users\Lucas\Desktop\UnB\Droid\sekksi2016\tentativa2\consultor_cagadinha.nxc"
24	486	44	#line 486 "C:\Users\Lucas\Desktop\UnB\Droid\sekksi2016\tentativa2\consultor_cagadinha.nxc"
24	487	44		subret __RecebiDesGirei_return
25	491	0	#line 491 "C:\Users\Lucas\Desktop\UnB\Droid\sekksi2016\tentativa2\consultor_cagadinha.nxc"
25	492	0	#pragma macro 14
25	492	0		acquire __RemoteMutex
25	492	1		mov __SRSTmpBuf, __DCMessageWritePacket
25	492	3		replace __SRSTmpBuf, __SRSTmpBuf, __constVal2, __constVal1
25	492	8		replace __SRSTmpBuf, __SRSTmpBuf, __constVal3, __constVal5
25	492	13		mov __SRSTmpLongVal, __constVal5
25	492	15		flatten __SRSFlattenBuf, __SRSTmpLongVal
25	492	18		arrbuild __SRSSendBuf, __SRSTmpBuf, __SRSFlattenBuf
25	492	23		acquire __CBTWMutex
25	492	24		mov __CBTWArgs.Connection, __constVal0
25	492	26		mov __CBTWArgs.Buffer, __SRSSendBuf
25	492	28		syscall 29, __CBTWArgs
25	492	31		release __CBTWMutex
25	492	32		release __RemoteMutex
25	7045	33	#line 7045 "C:\Users\Lucas\Desktop\UnB\Droid\sekksi2016\tentativa2\consultor_cagadinha.nxc"
25	491	33	#line 491 "C:\Users\Lucas\Desktop\UnB\Droid\sekksi2016\tentativa2\consultor_cagadinha.nxc"
25	491	33	#line 491 "C:\Users\Lucas\Desktop\UnB\Droid\sekksi2016\tentativa2\consultor_cagadinha.nxc"
25	494	33	#line 494 "C:\Users\Lucas\Desktop\UnB\Droid\sekksi2016\tentativa2\consultor_cagadinha.nxc"
25	495	33		subret __MandaRejeitar_return
26	496	0	#line 496 "C:\Users\Lucas\Desktop\UnB\Droid\sekksi2016\tentativa2\consultor_cagadinha.nxc"
26	497	0	#pragma macro 14
26	497	0		acquire __RemoteMutex
26	497	1		mov __SRSTmpBuf, __DCMessageWritePacket
26	497	3		replace __SRSTmpBuf, __SRSTmpBuf, __constVal2, __constVal1
26	497	8		replace __SRSTmpBuf, __SRSTmpBuf, __constVal3, __constVal5
26	497	13		mov __SRSTmpLongVal, __constVal4
26	497	15		flatten __SRSFlattenBuf, __SRSTmpLongVal
26	497	18		arrbuild __SRSSendBuf, __SRSTmpBuf, __SRSFlattenBuf
26	497	23		acquire __CBTWMutex
26	497	24		mov __CBTWArgs.Connection, __constVal0
26	497	26		mov __CBTWArgs.Buffer, __SRSSendBuf
26	497	28		syscall 29, __CBTWArgs
26	497	31		release __CBTWMutex
26	497	32		release __RemoteMutex
26	7054	33	#line 7054 "C:\Users\Lucas\Desktop\UnB\Droid\sekksi2016\tentativa2\consultor_cagadinha.nxc"
26	496	33	#line 496 "C:\Users\Lucas\Desktop\UnB\Droid\sekksi2016\tentativa2\consultor_cagadinha.nxc"
26	496	33	#line 496 "C:\Users\Lucas\Desktop\UnB\Droid\sekksi2016\tentativa2\consultor_cagadinha.nxc"
26	499	33	#line 499 "C:\Users\Lucas\Desktop\UnB\Droid\sekksi2016\tentativa2\consultor_cagadinha.nxc"
26	500	33		subret __MandaDesgirar_return
27	503	0	#line 503 "C:\Users\Lucas\Desktop\UnB\Droid\sekksi2016\tentativa2\consultor_cagadinha.nxc"
27	504	0	#pragma macro 26
27	504	0		acquire __RLSBmutex3
27	504	1		mov __RLSReadBuf3, __RLSBbufLSWrite1
27	504	3		set __RLSBytesCount3, 1
27	504	6		wait2 NA, __constVal15
27	504	9		subcall __ReadLSBytes3, ____ReadLSBytes3_return
27	504	12		index __D0MandaUs, __RLSReadBuf3, 65535
27	504	16		release __RLSBmutex3
27	7067	17	#line 7067 "C:\Users\Lucas\Desktop\UnB\Droid\sekksi2016\tentativa2\consultor_cagadinha.nxc"
27	503	17	#line 503 "C:\Users\Lucas\Desktop\UnB\Droid\sekksi2016\tentativa2\consultor_cagadinha.nxc"
27	504	17		mov __MandaUs_7qG2_aux_7qG2_000, __D0MandaUs
27	503	19	#line 503 "C:\Users\Lucas\Desktop\UnB\Droid\sekksi2016\tentativa2\consultor_cagadinha.nxc"
27	503	19	#line 503 "C:\Users\Lucas\Desktop\UnB\Droid\sekksi2016\tentativa2\consultor_cagadinha.nxc"
27	505	19	#line 505 "C:\Users\Lucas\Desktop\UnB\Droid\sekksi2016\tentativa2\consultor_cagadinha.nxc"
27	506	19	#pragma macro 14
27	506	19		acquire __RemoteMutex
27	506	20		mov __SRSTmpBuf, __DCMessageWritePacket
27	506	22		replace __SRSTmpBuf, __SRSTmpBuf, __constVal2, __constVal3
27	506	27		replace __SRSTmpBuf, __SRSTmpBuf, __constVal3, __constVal5
27	506	32		mov __SRSTmpLongVal, __MandaUs_7qG2_aux_7qG2_000
27	506	34		flatten __SRSFlattenBuf, __SRSTmpLongVal
27	506	37		arrbuild __SRSSendBuf, __SRSTmpBuf, __SRSFlattenBuf
27	506	42		acquire __CBTWMutex
27	506	43		mov __CBTWArgs.Connection, __constVal0
27	506	45		mov __CBTWArgs.Buffer, __SRSSendBuf
27	506	47		syscall 29, __CBTWArgs
27	506	50		mov __D0MandaUs, __CBTWArgs.Result
27	506	53		release __CBTWMutex
27	506	54		release __RemoteMutex
27	7075	55	#line 7075 "C:\Users\Lucas\Desktop\UnB\Droid\sekksi2016\tentativa2\consultor_cagadinha.nxc"
27	505	55	#line 505 "C:\Users\Lucas\Desktop\UnB\Droid\sekksi2016\tentativa2\consultor_cagadinha.nxc"
27	505	55	#line 505 "C:\Users\Lucas\Desktop\UnB\Droid\sekksi2016\tentativa2\consultor_cagadinha.nxc"
27	508	55	#line 508 "C:\Users\Lucas\Desktop\UnB\Droid\sekksi2016\tentativa2\consultor_cagadinha.nxc"
27	509	55		subret __MandaUs_return
28	510	0	#line 510 "C:\Users\Lucas\Desktop\UnB\Droid\sekksi2016\tentativa2\consultor_cagadinha.nxc"
28	511	0	#pragma macro 14
28	511	0		acquire __RemoteMutex
28	511	1		mov __SRSTmpBuf, __DCMessageWritePacket
28	511	3		replace __SRSTmpBuf, __SRSTmpBuf, __constVal2, __constVal1
28	511	8		replace __SRSTmpBuf, __SRSTmpBuf, __constVal3, __constVal5
28	511	13		mov __SRSTmpLongVal, __constValNeg1
28	511	15		flatten __SRSFlattenBuf, __SRSTmpLongVal
28	511	18		arrbuild __SRSSendBuf, __SRSTmpBuf, __SRSFlattenBuf
28	511	23		acquire __CBTWMutex
28	511	24		mov __CBTWArgs.Connection, __constVal0
28	511	26		mov __CBTWArgs.Buffer, __SRSSendBuf
28	511	28		syscall 29, __CBTWArgs
28	511	31		release __CBTWMutex
28	511	32		release __RemoteMutex
28	7084	33	#line 7084 "C:\Users\Lucas\Desktop\UnB\Droid\sekksi2016\tentativa2\consultor_cagadinha.nxc"
28	510	33	#line 510 "C:\Users\Lucas\Desktop\UnB\Droid\sekksi2016\tentativa2\consultor_cagadinha.nxc"
28	510	33	#line 510 "C:\Users\Lucas\Desktop\UnB\Droid\sekksi2016\tentativa2\consultor_cagadinha.nxc"
28	513	33	#line 513 "C:\Users\Lucas\Desktop\UnB\Droid\sekksi2016\tentativa2\consultor_cagadinha.nxc"
28	514	33		subret __MandaTeste_return
29	515	0	#line 515 "C:\Users\Lucas\Desktop\UnB\Droid\sekksi2016\tentativa2\consultor_cagadinha.nxc"
29	516	0		mov __D0LevantaBoneco, __constValNeg70
29	515	2	#line 515 "C:\Users\Lucas\Desktop\UnB\Droid\sekksi2016\tentativa2\consultor_cagadinha.nxc"
29	516	2	#pragma macro 7
29	516	2		setout __constVal0, 2, __D0LevantaBoneco, 1, __constVal3, 8, __constVal0, 6, __constVal32, 7, __constVal0, 5, __constVal0, 10, __constVal96, 11, __constVal32, 12, __constVal32, 0, __constVal63
29	7095	25	#line 7095 "C:\Users\Lucas\Desktop\UnB\Droid\sekksi2016\tentativa2\consultor_cagadinha.nxc"
29	515	25	#line 515 "C:\Users\Lucas\Desktop\UnB\Droid\sekksi2016\tentativa2\consultor_cagadinha.nxc"
29	516	25	#line 516 "C:\Users\Lucas\Desktop\UnB\Droid\sekksi2016\tentativa2\consultor_cagadinha.nxc"
29	517	25		getout __signed_stack_001LevantaBoneco, __constVal0, 4
29	516	29	#line 516 "C:\Users\Lucas\Desktop\UnB\Droid\sekksi2016\tentativa2\consultor_cagadinha.nxc"
29	516	29	#line 516 "C:\Users\Lucas\Desktop\UnB\Droid\sekksi2016\tentativa2\consultor_cagadinha.nxc"
29	517	29		mov __D0LevantaBoneco, __constValNeg50
29	516	31	#line 516 "C:\Users\Lucas\Desktop\UnB\Droid\sekksi2016\tentativa2\consultor_cagadinha.nxc"
29	517	31		cmp 1, __D0LevantaBoneco, __signed_stack_001LevantaBoneco, __D0LevantaBoneco
29	516	35	#line 516 "C:\Users\Lucas\Desktop\UnB\Droid\sekksi2016\tentativa2\consultor_cagadinha.nxc"
29	517	35		brtst 4, __ASM_Label_884, __D0LevantaBoneco
29	517	38	#line 517 "C:\Users\Lucas\Desktop\UnB\Droid\sekksi2016\tentativa2\consultor_cagadinha.nxc"
29	518	38		jmp __ASM_Label_883
29	517	40	#line 517 "C:\Users\Lucas\Desktop\UnB\Droid\sekksi2016\tentativa2\consultor_cagadinha.nxc"
29	517	40	#line 517 "C:\Users\Lucas\Desktop\UnB\Droid\sekksi2016\tentativa2\consultor_cagadinha.nxc"
29	518	40	#pragma macro 7
29	518	40		setout __constVal0, 2, __constVal0, 1, __constVal3, 8, __constVal0, 6, __constVal32, 7, __constVal0, 5, __constVal0, 10, __constVal96, 11, __constVal32, 12, __constVal32, 0, __constVal63
29	7117	63	#line 7117 "C:\Users\Lucas\Desktop\UnB\Droid\sekksi2016\tentativa2\consultor_cagadinha.nxc"
29	517	63	#line 517 "C:\Users\Lucas\Desktop\UnB\Droid\sekksi2016\tentativa2\consultor_cagadinha.nxc"
29	520	63	#line 520 "C:\Users\Lucas\Desktop\UnB\Droid\sekksi2016\tentativa2\consultor_cagadinha.nxc"
29	521	63		subret __LevantaBoneco_return
30	526	0	#line 526 "C:\Users\Lucas\Desktop\UnB\Droid\sekksi2016\tentativa2\consultor_cagadinha.nxc"
30	527	0		set __lerSensor_7qG2_sensor_7qG2_000, 0
30	526	3	#line 526 "C:\Users\Lucas\Desktop\UnB\Droid\sekksi2016\tentativa2\consultor_cagadinha.nxc"
30	526	3	#line 526 "C:\Users\Lucas\Desktop\UnB\Droid\sekksi2016\tentativa2\consultor_cagadinha.nxc"
30	527	3		subcall lerSensor, __lerSensor_return
30	526	5	#line 526 "C:\Users\Lucas\Desktop\UnB\Droid\sekksi2016\tentativa2\consultor_cagadinha.nxc"
30	527	5		mov __CalibraFaixaBase_7qG2_rgb_dir_7qG2_000, __D0lerSensor
30	526	7	#line 526 "C:\Users\Lucas\Desktop\UnB\Droid\sekksi2016\tentativa2\consultor_cagadinha.nxc"
30	526	7	#line 526 "C:\Users\Lucas\Desktop\UnB\Droid\sekksi2016\tentativa2\consultor_cagadinha.nxc"
30	527	7	#line 527 "C:\Users\Lucas\Desktop\UnB\Droid\sekksi2016\tentativa2\consultor_cagadinha.nxc"
30	528	7		set __lerSensor_7qG2_sensor_7qG2_000, 1
30	527	10	#line 527 "C:\Users\Lucas\Desktop\UnB\Droid\sekksi2016\tentativa2\consultor_cagadinha.nxc"
30	527	10	#line 527 "C:\Users\Lucas\Desktop\UnB\Droid\sekksi2016\tentativa2\consultor_cagadinha.nxc"
30	528	10		subcall lerSensor, __lerSensor_return
30	527	12	#line 527 "C:\Users\Lucas\Desktop\UnB\Droid\sekksi2016\tentativa2\consultor_cagadinha.nxc"
30	528	12		mov __CalibraFaixaBase_7qG2_rgb_esq_7qG2_000, __D0lerSensor
30	527	14	#line 527 "C:\Users\Lucas\Desktop\UnB\Droid\sekksi2016\tentativa2\consultor_cagadinha.nxc"
30	527	14	#line 527 "C:\Users\Lucas\Desktop\UnB\Droid\sekksi2016\tentativa2\consultor_cagadinha.nxc"
30	528	14	#line 528 "C:\Users\Lucas\Desktop\UnB\Droid\sekksi2016\tentativa2\consultor_cagadinha.nxc"
30	529	14		set __lerSensor_7qG2_sensor_7qG2_000, 2
30	528	17	#line 528 "C:\Users\Lucas\Desktop\UnB\Droid\sekksi2016\tentativa2\consultor_cagadinha.nxc"
30	528	17	#line 528 "C:\Users\Lucas\Desktop\UnB\Droid\sekksi2016\tentativa2\consultor_cagadinha.nxc"
30	529	17		subcall lerSensor, __lerSensor_return
30	528	19	#line 528 "C:\Users\Lucas\Desktop\UnB\Droid\sekksi2016\tentativa2\consultor_cagadinha.nxc"
30	529	19		mov __CalibraFaixaBase_7qG2_rgb_meio_7qG2_000, __D0lerSensor
30	528	21	#line 528 "C:\Users\Lucas\Desktop\UnB\Droid\sekksi2016\tentativa2\consultor_cagadinha.nxc"
30	528	21	#line 528 "C:\Users\Lucas\Desktop\UnB\Droid\sekksi2016\tentativa2\consultor_cagadinha.nxc"
30	530	21	#line 530 "C:\Users\Lucas\Desktop\UnB\Droid\sekksi2016\tentativa2\consultor_cagadinha.nxc"
30	531	21		mov __signed_stack_001CalibraFaixaBase, __CalibraFaixaBase_7qG2_rgb_dir_7qG2_000
30	530	23	#line 530 "C:\Users\Lucas\Desktop\UnB\Droid\sekksi2016\tentativa2\consultor_cagadinha.nxc"
30	530	23	#line 530 "C:\Users\Lucas\Desktop\UnB\Droid\sekksi2016\tentativa2\consultor_cagadinha.nxc"
30	531	23		set __D0CalibraFaixaBase, 97
30	530	26	#line 530 "C:\Users\Lucas\Desktop\UnB\Droid\sekksi2016\tentativa2\consultor_cagadinha.nxc"
30	531	26		add CorBaseDirMax, __signed_stack_001CalibraFaixaBase, __D0CalibraFaixaBase
30	530	30	#line 530 "C:\Users\Lucas\Desktop\UnB\Droid\sekksi2016\tentativa2\consultor_cagadinha.nxc"
30	530	30	#line 530 "C:\Users\Lucas\Desktop\UnB\Droid\sekksi2016\tentativa2\consultor_cagadinha.nxc"
30	531	30	#line 531 "C:\Users\Lucas\Desktop\UnB\Droid\sekksi2016\tentativa2\consultor_cagadinha.nxc"
30	532	30		mov __signed_stack_001CalibraFaixaBase, __CalibraFaixaBase_7qG2_rgb_dir_7qG2_000
30	531	32	#line 531 "C:\Users\Lucas\Desktop\UnB\Droid\sekksi2016\tentativa2\consultor_cagadinha.nxc"
30	531	32	#line 531 "C:\Users\Lucas\Desktop\UnB\Droid\sekksi2016\tentativa2\consultor_cagadinha.nxc"
30	532	32		set __D0CalibraFaixaBase, 97
30	531	35	#line 531 "C:\Users\Lucas\Desktop\UnB\Droid\sekksi2016\tentativa2\consultor_cagadinha.nxc"
30	532	35		sub CorBaseDirMin, __signed_stack_001CalibraFaixaBase, __D0CalibraFaixaBase
30	531	39	#line 531 "C:\Users\Lucas\Desktop\UnB\Droid\sekksi2016\tentativa2\consultor_cagadinha.nxc"
30	531	39	#line 531 "C:\Users\Lucas\Desktop\UnB\Droid\sekksi2016\tentativa2\consultor_cagadinha.nxc"
30	532	39	#line 532 "C:\Users\Lucas\Desktop\UnB\Droid\sekksi2016\tentativa2\consultor_cagadinha.nxc"
30	533	39		mov __signed_stack_001CalibraFaixaBase, __CalibraFaixaBase_7qG2_rgb_esq_7qG2_000
30	532	41	#line 532 "C:\Users\Lucas\Desktop\UnB\Droid\sekksi2016\tentativa2\consultor_cagadinha.nxc"
30	532	41	#line 532 "C:\Users\Lucas\Desktop\UnB\Droid\sekksi2016\tentativa2\consultor_cagadinha.nxc"
30	533	41		set __D0CalibraFaixaBase, 97
30	532	44	#line 532 "C:\Users\Lucas\Desktop\UnB\Droid\sekksi2016\tentativa2\consultor_cagadinha.nxc"
30	533	44		add CorBaseEsqMax, __signed_stack_001CalibraFaixaBase, __D0CalibraFaixaBase
30	532	48	#line 532 "C:\Users\Lucas\Desktop\UnB\Droid\sekksi2016\tentativa2\consultor_cagadinha.nxc"
30	532	48	#line 532 "C:\Users\Lucas\Desktop\UnB\Droid\sekksi2016\tentativa2\consultor_cagadinha.nxc"
30	533	48	#line 533 "C:\Users\Lucas\Desktop\UnB\Droid\sekksi2016\tentativa2\consultor_cagadinha.nxc"
30	534	48		mov __signed_stack_001CalibraFaixaBase, __CalibraFaixaBase_7qG2_rgb_esq_7qG2_000
30	533	50	#line 533 "C:\Users\Lucas\Desktop\UnB\Droid\sekksi2016\tentativa2\consultor_cagadinha.nxc"
30	533	50	#line 533 "C:\Users\Lucas\Desktop\UnB\Droid\sekksi2016\tentativa2\consultor_cagadinha.nxc"
30	534	50		set __D0CalibraFaixaBase, 97
30	533	53	#line 533 "C:\Users\Lucas\Desktop\UnB\Droid\sekksi2016\tentativa2\consultor_cagadinha.nxc"
30	534	53		sub CorBaseEsqMin, __signed_stack_001CalibraFaixaBase, __D0CalibraFaixaBase
30	533	57	#line 533 "C:\Users\Lucas\Desktop\UnB\Droid\sekksi2016\tentativa2\consultor_cagadinha.nxc"
30	533	57	#line 533 "C:\Users\Lucas\Desktop\UnB\Droid\sekksi2016\tentativa2\consultor_cagadinha.nxc"
30	534	57	#line 534 "C:\Users\Lucas\Desktop\UnB\Droid\sekksi2016\tentativa2\consultor_cagadinha.nxc"
30	535	57		mov __signed_stack_001CalibraFaixaBase, __CalibraFaixaBase_7qG2_rgb_meio_7qG2_000
30	534	59	#line 534 "C:\Users\Lucas\Desktop\UnB\Droid\sekksi2016\tentativa2\consultor_cagadinha.nxc"
30	534	59	#line 534 "C:\Users\Lucas\Desktop\UnB\Droid\sekksi2016\tentativa2\consultor_cagadinha.nxc"
30	535	59		set __D0CalibraFaixaBase, 247
30	534	62	#line 534 "C:\Users\Lucas\Desktop\UnB\Droid\sekksi2016\tentativa2\consultor_cagadinha.nxc"
30	535	62		add CorBaseMeioMax, __signed_stack_001CalibraFaixaBase, __D0CalibraFaixaBase
30	534	66	#line 534 "C:\Users\Lucas\Desktop\UnB\Droid\sekksi2016\tentativa2\consultor_cagadinha.nxc"
30	534	66	#line 534 "C:\Users\Lucas\Desktop\UnB\Droid\sekksi2016\tentativa2\consultor_cagadinha.nxc"
30	535	66	#line 535 "C:\Users\Lucas\Desktop\UnB\Droid\sekksi2016\tentativa2\consultor_cagadinha.nxc"
30	536	66		mov __signed_stack_001CalibraFaixaBase, __CalibraFaixaBase_7qG2_rgb_meio_7qG2_000
30	535	68	#line 535 "C:\Users\Lucas\Desktop\UnB\Droid\sekksi2016\tentativa2\consultor_cagadinha.nxc"
30	535	68	#line 535 "C:\Users\Lucas\Desktop\UnB\Droid\sekksi2016\tentativa2\consultor_cagadinha.nxc"
30	536	68		set __D0CalibraFaixaBase, 247
30	535	71	#line 535 "C:\Users\Lucas\Desktop\UnB\Droid\sekksi2016\tentativa2\consultor_cagadinha.nxc"
30	536	71		sub CorBaseMeioMin, __signed_stack_001CalibraFaixaBase, __D0CalibraFaixaBase
30	535	75	#line 535 "C:\Users\Lucas\Desktop\UnB\Droid\sekksi2016\tentativa2\consultor_cagadinha.nxc"
30	535	75	#line 535 "C:\Users\Lucas\Desktop\UnB\Droid\sekksi2016\tentativa2\consultor_cagadinha.nxc"
30	537	75	#line 537 "C:\Users\Lucas\Desktop\UnB\Droid\sekksi2016\tentativa2\consultor_cagadinha.nxc"
30	538	75		set __nbip_7qG2_n_7qG2_000, 2
30	537	78	#line 537 "C:\Users\Lucas\Desktop\UnB\Droid\sekksi2016\tentativa2\consultor_cagadinha.nxc"
30	537	78	#line 537 "C:\Users\Lucas\Desktop\UnB\Droid\sekksi2016\tentativa2\consultor_cagadinha.nxc"
30	538	78		subcall nbip, __nbip_return
30	537	81	#line 537 "C:\Users\Lucas\Desktop\UnB\Droid\sekksi2016\tentativa2\consultor_cagadinha.nxc"
30	542	81	#line 542 "C:\Users\Lucas\Desktop\UnB\Droid\sekksi2016\tentativa2\consultor_cagadinha.nxc"
30	543	81		subret __CalibraFaixaBase_return
31	543	0	#line 543 "C:\Users\Lucas\Desktop\UnB\Droid\sekksi2016\tentativa2\consultor_cagadinha.nxc"
31	544	0		subret ____initialize_global_data_return
#CLUMPS
Clump	Name	Offset	File
0	main	0	C:\Users\Lucas\Desktop\UnB\Droid\sekksi2016\tentativa2\consultor_cagadinha.nxc
1	__ResetSensorSubroutine	8	NXTDefs.h
2	__ReadLSBytes3	21	NXTDefs.h
3	PlaySound	111	NXCDefs.h
4	bip	545	C:\Users\Lucas\Desktop\UnB\Droid\sekksi2016\tentativa2\consultor_cagadinha.nxc
5	nbip	553	C:\Users\Lucas\Desktop\UnB\Droid\sekksi2016\tentativa2\consultor_cagadinha.nxc
6	consultor	582	C:\Users\Lucas\Desktop\UnB\Droid\sekksi2016\tentativa2\consultor_cagadinha.nxc
7	init	651	C:\Users\Lucas\Desktop\UnB\Droid\sekksi2016\tentativa2\consultor_cagadinha.nxc
8	InicializaSensores	667	C:\Users\Lucas\Desktop\UnB\Droid\sekksi2016\tentativa2\consultor_cagadinha.nxc
9	BonecoAlvo	756	C:\Users\Lucas\Desktop\UnB\Droid\sekksi2016\tentativa2\consultor_cagadinha.nxc
10	TemBoneco	798	C:\Users\Lucas\Desktop\UnB\Droid\sekksi2016\tentativa2\consultor_cagadinha.nxc
11	RecebeBoneco	897	C:\Users\Lucas\Desktop\UnB\Droid\sekksi2016\tentativa2\consultor_cagadinha.nxc
12	lerSensor	904	C:\Users\Lucas\Desktop\UnB\Droid\sekksi2016\tentativa2\consultor_cagadinha.nxc
13	PegaBoneco	1057	C:\Users\Lucas\Desktop\UnB\Droid\sekksi2016\tentativa2\consultor_cagadinha.nxc
14	VoltaGarra	1189	C:\Users\Lucas\Desktop\UnB\Droid\sekksi2016\tentativa2\consultor_cagadinha.nxc
15	CorBoneco	1276	C:\Users\Lucas\Desktop\UnB\Droid\sekksi2016\tentativa2\consultor_cagadinha.nxc
16	Pega	1372	C:\Users\Lucas\Desktop\UnB\Droid\sekksi2016\tentativa2\consultor_cagadinha.nxc
17	MandarParar	1467	C:\Users\Lucas\Desktop\UnB\Droid\sekksi2016\tentativa2\consultor_cagadinha.nxc
18	MandarSeguir	1502	C:\Users\Lucas\Desktop\UnB\Droid\sekksi2016\tentativa2\consultor_cagadinha.nxc
19	BipBranco	1537	C:\Users\Lucas\Desktop\UnB\Droid\sekksi2016\tentativa2\consultor_cagadinha.nxc
20	BipPreto	1551	C:\Users\Lucas\Desktop\UnB\Droid\sekksi2016\tentativa2\consultor_cagadinha.nxc
21	BonecoNaFrente	1565	C:\Users\Lucas\Desktop\UnB\Droid\sekksi2016\tentativa2\consultor_cagadinha.nxc
22	Rejeita	1742	C:\Users\Lucas\Desktop\UnB\Droid\sekksi2016\tentativa2\consultor_cagadinha.nxc
23	RecebiGirei	1779	C:\Users\Lucas\Desktop\UnB\Droid\sekksi2016\tentativa2\consultor_cagadinha.nxc
24	RecebiDesGirei	1825	C:\Users\Lucas\Desktop\UnB\Droid\sekksi2016\tentativa2\consultor_cagadinha.nxc
25	MandaRejeitar	1871	C:\Users\Lucas\Desktop\UnB\Droid\sekksi2016\tentativa2\consultor_cagadinha.nxc
26	MandaDesgirar	1906	C:\Users\Lucas\Desktop\UnB\Droid\sekksi2016\tentativa2\consultor_cagadinha.nxc
27	MandaUs	1941	C:\Users\Lucas\Desktop\UnB\Droid\sekksi2016\tentativa2\consultor_cagadinha.nxc
28	MandaTeste	1998	C:\Users\Lucas\Desktop\UnB\Droid\sekksi2016\tentativa2\consultor_cagadinha.nxc
29	LevantaBoneco	2033	C:\Users\Lucas\Desktop\UnB\Droid\sekksi2016\tentativa2\consultor_cagadinha.nxc
30	CalibraFaixaBase	2098	C:\Users\Lucas\Desktop\UnB\Droid\sekksi2016\tentativa2\consultor_cagadinha.nxc
31	__initialize_global_data	2181	C:\Users\Lucas\Desktop\UnB\Droid\sekksi2016\tentativa2\consultor_cagadinha.nxc
