#SYMBOLS
Index	Identifier	Type	Flag	Data	Size	RefCount
0	__D0VoltaGarra	6	1	0	4	8
1	__D0SetSensorLowspeed_inline_InicializaSensores	6	1	4	4	2
2	__DU0SetSensorLowspeed_inline_InicializaSensores	5	1	8	4	5
3	__D0returnUS	6	1	12	4	12
4	__D0TemBoneco	6	1	16	4	25
5	__D0VoltaAoNormal	6	1	20	4	10
6	__signed_stack_001lerSensor	6	1	24	4	18
7	__signed_stack_002lerSensor	6	1	28	4	6
8	__signed_stack_001MandaContinuar	6	1	32	4	2
9	__signed_stack_001BonecoAlvo	6	1	36	4	4
10	__signed_stack_001consultor	6	1	40	4	6
11	__signed_stack_001CorBoneco	6	1	44	4	12
12	__D0CorBoneco	6	1	48	4	28
13	__D0lerSensor	6	1	52	4	32
14	__D0MandaContinuar	6	1	56	4	6
15	__SPTArgsMutex	9	0	60	4	14
16	__D0BonecoAlvo	6	1	64	4	8
17	__D0consultor	6	1	68	4	28
18	__D0PlaySound	6	1	72	4	69
19	__D0RecebeBoneco	6	1	76	4	17
20	__D0Rejeitar	6	1	80	4	12
21	__D0MandaPara	6	1	84	4	6
22	__D0Pega	6	1	88	4	10
23	__D0PegaBoneco	6	1	92	4	17
24	__Wait_7qG2_ms_7qG2_000_inline_BipBranco	5	1	96	4	2
25	__Wait_7qG2_ms_7qG2_000_inline_BipPreto	5	1	100	4	2
26	__Wait_7qG2_ms_7qG2_000_inline_PegaBoneco	5	1	104	4	2
27	__signed_stack_001VoltaAoNormal	6	1	108	4	4
28	__signed_stack_001VoltaGarra	6	1	112	4	2
29	__Wait_7qG2_ms_7qG2_000_inline_returnUS	5	1	116	4	2
30	__Wait_7qG2_ms_7qG2_000_inline_Rejeitar	5	1	120	4	4
31	__Wait_7qG2_ms_7qG2_000_inline_Pega	5	1	124	4	2
32	__Wait_7qG2_ms_7qG2_000_inline_VoltaAoNormal	5	1	128	4	4
33	__Wait_7qG2_ms_7qG2_000_inline_VoltaGarra	5	1	132	4	2
34	__Wait_7qG2_ms_7qG2_000_inline_RecebeBoneco	5	1	136	4	4
35	__Wait_7qG2_ms_7qG2_000_inline_MandaPara	5	1	140	4	2
36	__signed_stack_001PlaySound	6	1	144	4	44
37	__signed_stack_002PlaySound	6	1	148	4	14
38	__signed_stack_003PlaySound	6	1	152	4	14
39	__signed_stack_001MandaPara	6	1	156	4	2
40	__signed_stack_001Pega	6	1	160	4	4
41	__signed_stack_001PegaBoneco	6	1	164	4	4
42	__signed_stack_002returnUS	6	1	168	4	2
43	__signed_stack_001TemBoneco	6	1	172	4	12
44	__signed_stack_002TemBoneco	6	1	176	4	4
45	__signed_stack_001RecebeBoneco	6	1	180	4	6
46	__signed_stack_001Rejeitar	6	1	184	4	4
47	__signed_stack_001returnUS	6	1	188	4	4
48	__CLSWMutex3	9	0	192	4	2
49	__CBTWMutex	9	0	196	4	12
50	__SRSTmpLongVal	6	1	200	4	12
51	__RemoteMutex	9	0	204	4	12
52	__CLSCSMutex3	9	0	208	4	2
53	__MRMutex	9	0	212	4	10
54	__RLSBmutex3	9	0	216	4	2
55	__TextOutMutex	9	0	220	4	6
56	__CLSRMutex3	9	0	224	4	2
57	__RRNTmpVal	6	1	228	4	20
58	bonecoNaoAlvo	4	1	232	2	1
59	__lerSensor_7qG2_sensor_7qG2_000	4	1	234	2	4
60	__constVal500	4	0	236	2	1
61	bonecoAlvo	4	1	238	2	4
62	__VoltaGarra_7qG2_tc_7qG2_000	4	1	240	2	4
63	__lerSensor_7qG2_j_7qG2_000	4	1	242	2	8
64	__TemBoneco_7qG2_rgb_dir_7qG2_000	4	1	244	2	4
65	__TemBoneco_7qG2_rgb_esq_7qG2_000	4	1	246	2	4
66	__PlaySound_7qG2_aCode_7qG2_000	4	1	248	2	11
67	__lerSensor_7qG2_k_7qG2_000	4	1	250	2	6
68	__PegaBoneco_7qG2_tc_7qG2_000	4	1	252	2	5
69	__lerSensor_7qG2_aux_7qG2_000	4	1	254	2	4
70	__PlaySound_7qG2_i_7qG2_001	4	1	256	2	15
71	__lerSensor_7qG2_i_7qG2_000	4	1	258	2	8
72	__PegaBoneco_7qG2_old_tc_7qG2_000	4	1	260	2	2
73	__constVal150	4	0	262	2	1
74	__VoltaGarra_7qG2_old_tc_7qG2_000	4	1	264	2	2
75	__Rejeitar_7qG2_passei_7qG2_000	4	1	266	2	5
76	__VoltaAoNormal_7qG2_tc_7qG2_000	4	1	268	2	4
77	__VoltaAoNormal_7qG2_tc1_7qG2_000	4	1	270	2	2
78	__returnUS_7qG2_valor_7qG2_000	4	1	272	2	4
79	__MandaContinuar_7qG2_passei_7qG2_000	4	1	274	2	3
80	__consultor_7qG2_cor_7qG2_000	4	1	276	2	4
81	__RecebeBoneco_7qG2_sinInicial_7qG2_000	4	1	278	2	5
82	__constVal200	4	0	280	2	1
83	__constVal128	4	0	282	2	3
84	__MandaPara_7qG2_passei_7qG2_000	4	1	284	2	3
85	__CorBoneco_7qG2_leitura_7qG2_000	4	1	286	2	7
86	__VoltaGarra_return	1	1	288	1	4
87	__RecebeBoneco_return	1	1	289	1	5
88	__BonecoAlvo_return	1	1	290	1	3
89	__TemBoneco_return	1	1	291	1	5
90	__Rejeitar_return	1	1	292	1	3
91	__lerSensor_return	1	1	293	1	6
92	__constValNeg1	2	0	294	1	2
93	__MandaContinuar_return	1	1	295	1	3
94	__PegaBoneco_return	1	1	296	1	5
95	__MandaPara_return	1	1	297	1	3
96	__Pega_return	1	1	298	1	3
97	__CorBoneco_return	1	1	299	1	6
98	__bip_return	1	1	300	1	5
99	__constValNeg70	2	0	301	1	1
100	__constVal1	2	0	302	1	22
101	__VoltaAoNormal_return	1	1	303	1	3
102	__constValNeg40	2	0	304	1	1
103	__OnRev_Tmp	2	1	305	1	2
104	__constValNeg77	2	0	306	1	1
105	__constVal32	2	0	307	1	24
106	__constVal0	2	1	308	1	53
107	__constVal63	2	0	309	1	8
108	__constVal6	2	0	310	1	1
109	__constValNeg30	2	0	311	1	1
110	__constVal96	2	0	312	1	8
111	__constVal50	2	0	313	1	1
112	__constValNeg2	2	0	314	1	1
113	__constValNeg118	2	0	315	1	1
114	__constVal3	2	0	316	1	15
115	__RLSBResult3	2	1	317	1	7
116	____ReadLSBytes3_return	1	1	318	1	3
117	__RLSBIterations3	1	1	319	1	4
118	__RLSBytesCount3	1	1	320	1	7
119	____ResetSensorSubroutine_return	1	1	321	1	6
120	__PlaySound_return	1	1	322	1	7
121	__constVal2	2	0	323	1	11
122	__LSWriteOptions3	1	1	324	1	1
123	__constVal11	2	0	325	1	1
124	__constVal15	2	0	326	1	3
125	__constVal14	2	0	327	1	2
126	__constVal7	2	0	328	1	1
127	__constVal100	2	0	329	1	2
128	__RRNErr	1	1	330	1	5
129	__constVal8	2	0	331	1	3
130	__PFTmp	1	1	332	1	1
131	____initialize_global_data_return	1	1	333	1	3
132	__SetSensorType_7qG2_type_7qG2_000_inline_SetSensorLowspeed_inline_InicializaSensores	1	1	334	1	2
133	__ResetSensorPort	1	1	335	1	6
134	__SetSensorType_7qG2_port_7qG2_000_inline_SetSensorLowspeed_inline_InicializaSensores	1	1	336	1	2
135	__BipPreto_return	1	1	337	1	3
136	__SetSensorLowspeed_7qG2_bIsPowered_7qG2_000_inline_InicializaSensores	1	1	338	1	2
137	__returnUS_return	1	1	339	1	5
138	__SetSensorMode_7qG2_mode_7qG2_000_inline_SetSensorLowspeed_inline_InicializaSensores	1	1	340	1	2
139	__ResetSensorTmp	1	1	341	1	2
140	__SetSensorMode_7qG2_port_7qG2_000_inline_SetSensorLowspeed_inline_InicializaSensores	1	1	342	1	2
141	__BipBranco_return	1	1	343	1	3
142	__SetSensorLowspeed_7qG2_port_7qG2_000_inline_InicializaSensores	1	1	344	1	4
143	__SetSensorColorRed_7qG2_port_7qG2_000_inline_InicializaSensores	1	1	345	1	8
144	__InicializaSensores_return	1	1	346	1	3
145	__consultor_return	1	1	347	1	3
146	__SetSensorColorGreen_7qG2_port_7qG2_000_inline_InicializaSensores	1	1	348	1	4
147	__constVal5	2	0	349	1	7
148	__CLSCSArgs3	8	0	3	4	4
149	__CLSCSArgs3.Result	2	1	352	1	4
150	__CLSCSArgs3.Port	1	1	353	1	4
151	__CLSCSArgs3.BytesReady	1	1	354	1	4
152	__SPTArgs	8	0	5	8	42
153	__SPTArgs.Result	2	1	356	1	42
154	__SPTArgs.Frequency	3	1	358	2	42
155	__SPTArgs.Duration	3	1	360	2	42
156	__SPTArgs.Loop	1	1	362	1	42
157	__SPTArgs.Volume	1	1	363	1	42
158	__CBTWArgs	8	0	3	8	24
159	__CBTWArgs.Result	2	1	364	1	24
160	__CBTWArgs.Connection	1	1	365	1	24
161	__CBTWArgs.Buffer	7	0	366	4	24
162	__CBTWArgs.Buffer.Buffer_type	1	0	0	1	0
163	__CLSRArgs3	8	0	4	12	5
164	__CLSRArgs3.Result	2	1	368	1	5
165	__CLSRArgs3.Port	1	1	369	1	5
166	__CLSRArgs3.Buffer	7	0	370	4	5
167	__CLSRArgs3.Buffer.Buffer_type	1	0	0	1	0
168	__CLSRArgs3.BufferLen	1	1	372	1	5
169	__TextOutArgs	8	0	4	16	18
170	__TextOutArgs.Result	2	1	376	1	18
171	__TextOutArgs.Location	8	0	2	4	18
172	__TextOutArgs.Location.X	4	1	380	2	18
173	__TextOutArgs.Location.Y	4	1	382	2	18
174	__TextOutArgs.Text	7	0	384	4	18
175	__TextOutArgs.Text.Text_type	1	0	0	1	0
176	__TextOutArgs.Options	5	1	388	4	18
177	__CLSWArgs3	8	0	4	12	5
178	__CLSWArgs3.Result	2	1	392	1	5
179	__CLSWArgs3.Port	1	1	393	1	5
180	__CLSWArgs3.Buffer	7	0	394	4	5
181	__CLSWArgs3.Buffer.Buffer_type	1	0	0	1	0
182	__CLSWArgs3.ReturnLen	1	1	396	1	5
183	__MRArgs	8	0	4	8	25
184	__MRArgs.Result	2	1	400	1	25
185	__MRArgs.QueueID	1	1	401	1	25
186	__MRArgs.Remove	1	1	402	1	25
187	__MRArgs.Message	7	0	404	4	25
188	__MRArgs.Message.Message_type	1	0	0	1	0
189	__RLSLastGoodRead3	7	0	406	4	2
190	__RLSLastGoodRead3.__RLSLastGoodRead3_type	1	0	0	1	0
191	__RLSReadBuf3	7	0	408	4	8
192	__RLSReadBuf3.__RLSReadBuf3_type	1	0	0	1	0
193	__lerSensor_7qG2_leitura_7qG2_000	7	0	410	4	10
194	__lerSensor_7qG2_leitura_7qG2_000.__lerSensor_7qG2_leitura_7qG2_000_type	4	0	0	2	0
195	__RLSBbufLSWrite1	7	0	412	4	1
196	__RLSBbufLSWrite1.__RLSBbufLSWrite1_type	1	0	0	1	0
197	__SRSFlattenBuf	7	0	414	4	12
198	__SRSFlattenBuf.__SRSFlattenBuf_type	1	0	0	1	0
199	__DCMessageWritePacket	7	0	416	4	6
200	__DCMessageWritePacket.__DCMessageWritePacket_type	1	0	0	1	0
201	__SRSTmpBuf	7	0	418	4	36
202	__SRSTmpBuf.__SRSTmpBuf_type	1	0	0	1	0
203	__SRSSendBuf	7	0	420	4	12
204	__SRSSendBuf.__SRSSendBuf_type	1	0	0	1	0
#SOURCES
Clump	Line	PC	Source
0	132	0	#line 132 "C:\Users\luan\Documents\GitHub\Droid\sekksi2016\Consultor\Funcionando\principal_consultor.nxc"
0	133	0		subcall __initialize_global_data, ____initialize_global_data_return
0	132	2	#line 132 "C:\Users\luan\Documents\GitHub\Droid\sekksi2016\Consultor\Funcionando\principal_consultor.nxc"
0	133	2	#line 133 "C:\Users\luan\Documents\GitHub\Droid\sekksi2016\Consultor\Funcionando\principal_consultor.nxc"
0	134	2		subcall consultor, __consultor_return
0	133	5	#line 133 "C:\Users\luan\Documents\GitHub\Droid\sekksi2016\Consultor\Funcionando\principal_consultor.nxc"
0	134	5		exit -1, -1
1	5476	0		setin __constVal1, __ResetSensorPort, 5
1	5478	4		getin __ResetSensorTmp, __ResetSensorPort, 5
1	5479	8		brtst 5, __SensorStillInvalid, __ResetSensorTmp
1	5480	11		subret ____ResetSensorSubroutine_return
2	6393	0	#pragma macro 25
2	6393	0		acquire __CLSWMutex3
2	6393	1		or __CLSWArgs3.Port, __constVal3, __LSWriteOptions3
2	6393	5		mov __CLSWArgs3.ReturnLen, __RLSBytesCount3
2	6393	7		mov __CLSWArgs3.Buffer, __RLSReadBuf3
2	6393	9		syscall 21, __CLSWArgs3
2	6393	12		mov __RLSBResult3, __CLSWArgs3.Result
2	6393	14		release __CLSWMutex3
2	6393	15	#line 6393 "NXTDefs.h"
2	6394	15		brtst 5, __RLSBError3, __RLSBResult3
2	6395	18		set __RLSBIterations3, 60
2	6397	21	#pragma macro 23
2	6397	21		acquire __CLSCSMutex3
2	6397	22		set __CLSCSArgs3.Port, 3
2	6397	25		syscall 23, __CLSCSArgs3
2	6397	28		mov __RLSBytesCount3, __CLSCSArgs3.BytesReady
2	6397	30		mov __RLSBResult3, __CLSCSArgs3.Result
2	6397	32		release __CLSCSMutex3
2	6397	33	#line 6397 "NXTDefs.h"
2	6398	33		sub __RLSBIterations3, __RLSBIterations3, __constVal1
2	6399	37		brtst 2, __RLSBError3, __RLSBIterations3
2	6400	40		brtst 0, __RLSBError3, __RLSBResult3
2	6401	43		brtst 4, __RLSBReadyToRead3, __RLSBResult3
2	6403	46		wait2 NA, __constVal1
2	6404	49		jmp __RLSBDoCheckStatus3
2	6406	51		brtst 4, __RLSBReturn3, __RLSBytesCount3
2	6407	54		arrinit __RLSReadBuf3, __constVal0, __RLSBytesCount3
2	6409	58	#pragma macro 25
2	6409	58		acquire __CLSRMutex3
2	6409	59		set __CLSRArgs3.Port, 3
2	6409	62		mov __CLSRArgs3.BufferLen, __RLSBytesCount3
2	6409	64		syscall 22, __CLSRArgs3
2	6409	67		mov __RLSReadBuf3, __CLSRArgs3.Buffer
2	6409	69		mov __RLSBResult3, __CLSRArgs3.Result
2	6409	71		release __CLSRMutex3
2	6409	72	#line 6409 "NXTDefs.h"
2	6410	72		brtst 5, __RLSBError3, __RLSBResult3
2	6411	75		mov __RLSLastGoodRead3, __RLSReadBuf3
2	6412	77		jmp __RLSBDone3
2	6414	79		mov __RLSReadBuf3, __RLSLastGoodRead3
2	6416	81		arrsize __RLSBytesCount3, __RLSReadBuf3
2	6418	84		subret ____ReadLSBytes3_return
3	7127	0	#line 7127 "NXCDefs.h"
3	7128	0		mov __signed_stack_001PlaySound, __PlaySound_7qG2_aCode_7qG2_000
3	7127	2	#line 7127 "NXCDefs.h"
3	7128	2	#line 7128 "NXCDefs.h"
3	7129	2		set __D0PlaySound, 0
3	7128	5	#line 7128 "NXCDefs.h"
3	7129	5		cmp 4, __D0PlaySound, __signed_stack_001PlaySound, __D0PlaySound
3	7128	9	#line 7128 "NXCDefs.h"
3	7129	9		brtst 4, __ASM_Label_56, __D0PlaySound
3	7128	12	#line 7128 "NXCDefs.h"
3	7129	12		set __signed_stack_001PlaySound, 600
3	7128	15	#line 7128 "NXCDefs.h"
3	7128	15	#line 7128 "NXCDefs.h"
3	7129	15		set __signed_stack_002PlaySound, 200
3	7128	18	#line 7128 "NXCDefs.h"
3	7128	18	#line 7128 "NXCDefs.h"
3	7129	18		set __signed_stack_003PlaySound, 4
3	7128	21	#line 7128 "NXCDefs.h"
3	7128	21	#line 7128 "NXCDefs.h"
3	7129	21		set __D0PlaySound, 0
3	7129	24	#line 7129 "NXCDefs.h"
3	7130	24		acquire __SPTArgsMutex
3	7129	25	#line 7129 "NXCDefs.h"
3	7130	25		mov __SPTArgs.Frequency, __signed_stack_001PlaySound
3	7129	27	#line 7129 "NXCDefs.h"
3	7130	27		mov __SPTArgs.Duration, __signed_stack_002PlaySound
3	7129	29	#line 7129 "NXCDefs.h"
3	7130	29		mov __SPTArgs.Volume, __signed_stack_003PlaySound
3	7129	31	#line 7129 "NXCDefs.h"
3	7130	31		mov __SPTArgs.Loop, __D0PlaySound
3	7129	34	#line 7129 "NXCDefs.h"
3	7130	34		syscall 10, __SPTArgs
3	7129	37	#line 7129 "NXCDefs.h"
3	7130	37		mov __D0PlaySound, __SPTArgs.Result
3	7129	40	#line 7129 "NXCDefs.h"
3	7130	40		release __SPTArgsMutex
3	7129	41	#line 7129 "NXCDefs.h"
3	7129	41	#line 7129 "NXCDefs.h"
3	7130	41		jmp __ASM_Label_65
3	7129	43	#line 7129 "NXCDefs.h"
3	7130	43		mov __signed_stack_001PlaySound, __PlaySound_7qG2_aCode_7qG2_000
3	7129	45	#line 7129 "NXCDefs.h"
3	7130	45	#line 7130 "NXCDefs.h"
3	7131	45		set __D0PlaySound, 1
3	7130	48	#line 7130 "NXCDefs.h"
3	7131	48		cmp 4, __D0PlaySound, __signed_stack_001PlaySound, __D0PlaySound
3	7131	52	#line 7131 "NXCDefs.h"
3	7132	52		brtst 4, __ASM_Label_68, __D0PlaySound
3	7131	55	#line 7131 "NXCDefs.h"
3	7132	55		set __signed_stack_001PlaySound, 600
3	7131	58	#line 7131 "NXCDefs.h"
3	7131	58	#line 7131 "NXCDefs.h"
3	7132	58		set __signed_stack_002PlaySound, 150
3	7131	61	#line 7131 "NXCDefs.h"
3	7131	61	#line 7131 "NXCDefs.h"
3	7132	61		set __signed_stack_003PlaySound, 4
3	7131	64	#line 7131 "NXCDefs.h"
3	7131	64	#line 7131 "NXCDefs.h"
3	7132	64		set __D0PlaySound, 0
3	7132	67	#line 7132 "NXCDefs.h"
3	7133	67		acquire __SPTArgsMutex
3	7132	68	#line 7132 "NXCDefs.h"
3	7133	68		mov __SPTArgs.Frequency, __signed_stack_001PlaySound
3	7132	70	#line 7132 "NXCDefs.h"
3	7133	70		mov __SPTArgs.Duration, __signed_stack_002PlaySound
3	7132	72	#line 7132 "NXCDefs.h"
3	7133	72		mov __SPTArgs.Volume, __signed_stack_003PlaySound
3	7132	74	#line 7132 "NXCDefs.h"
3	7133	74		mov __SPTArgs.Loop, __D0PlaySound
3	7132	77	#line 7132 "NXCDefs.h"
3	7133	77		syscall 10, __SPTArgs
3	7132	80	#line 7132 "NXCDefs.h"
3	7133	80		mov __D0PlaySound, __SPTArgs.Result
3	7132	83	#line 7132 "NXCDefs.h"
3	7133	83		release __SPTArgsMutex
3	7132	84	#line 7132 "NXCDefs.h"
3	7132	84	#line 7132 "NXCDefs.h"
3	7133	84		wait2 NA, __constVal200
3	7132	87	#line 7132 "NXCDefs.h"
3	7132	87	#line 7132 "NXCDefs.h"
3	7133	87	#line 7133 "NXCDefs.h"
3	7134	87		set __signed_stack_001PlaySound, 600
3	7133	90	#line 7133 "NXCDefs.h"
3	7133	90	#line 7133 "NXCDefs.h"
3	7134	90		set __signed_stack_002PlaySound, 150
3	7133	93	#line 7133 "NXCDefs.h"
3	7133	93	#line 7133 "NXCDefs.h"
3	7134	93		set __signed_stack_003PlaySound, 4
3	7133	96	#line 7133 "NXCDefs.h"
3	7133	96	#line 7133 "NXCDefs.h"
3	7134	96		set __D0PlaySound, 0
3	7134	99	#line 7134 "NXCDefs.h"
3	7135	99		acquire __SPTArgsMutex
3	7134	100	#line 7134 "NXCDefs.h"
3	7135	100		mov __SPTArgs.Frequency, __signed_stack_001PlaySound
3	7134	102	#line 7134 "NXCDefs.h"
3	7135	102		mov __SPTArgs.Duration, __signed_stack_002PlaySound
3	7134	104	#line 7134 "NXCDefs.h"
3	7135	104		mov __SPTArgs.Volume, __signed_stack_003PlaySound
3	7134	106	#line 7134 "NXCDefs.h"
3	7135	106		mov __SPTArgs.Loop, __D0PlaySound
3	7134	109	#line 7134 "NXCDefs.h"
3	7135	109		syscall 10, __SPTArgs
3	7134	112	#line 7134 "NXCDefs.h"
3	7135	112		mov __D0PlaySound, __SPTArgs.Result
3	7134	115	#line 7134 "NXCDefs.h"
3	7135	115		release __SPTArgsMutex
3	7134	116	#line 7134 "NXCDefs.h"
3	7134	116	#line 7134 "NXCDefs.h"
3	7135	116		wait2 NA, __constVal150
3	7134	119	#line 7134 "NXCDefs.h"
3	7134	119	#line 7134 "NXCDefs.h"
3	7136	119	#line 7136 "NXCDefs.h"
3	7137	119		jmp __ASM_Label_85
3	7136	121	#line 7136 "NXCDefs.h"
3	7137	121		mov __signed_stack_001PlaySound, __PlaySound_7qG2_aCode_7qG2_000
3	7136	123	#line 7136 "NXCDefs.h"
3	7137	123	#line 7137 "NXCDefs.h"
3	7138	123		set __D0PlaySound, 3
3	7137	126	#line 7137 "NXCDefs.h"
3	7138	126		cmp 4, __D0PlaySound, __signed_stack_001PlaySound, __D0PlaySound
3	7137	130	#line 7137 "NXCDefs.h"
3	7138	130		brtst 4, __ASM_Label_88, __D0PlaySound
3	7137	133	#line 7137 "NXCDefs.h"
3	7138	133		set __PlaySound_7qG2_i_7qG2_001, 4
3	7137	136	#line 7137 "NXCDefs.h"
3	7137	136	#line 7137 "NXCDefs.h"
3	7138	136		mov __signed_stack_001PlaySound, __PlaySound_7qG2_i_7qG2_001
3	7137	138	#line 7137 "NXCDefs.h"
3	7137	138	#line 7137 "NXCDefs.h"
3	7138	138		set __D0PlaySound, 8
3	7137	141	#line 7137 "NXCDefs.h"
3	7138	141		cmp 0, __D0PlaySound, __signed_stack_001PlaySound, __D0PlaySound
3	7137	145	#line 7137 "NXCDefs.h"
3	7138	145		brtst 4, __ASM_Label_90, __D0PlaySound
3	7137	148	#line 7137 "NXCDefs.h"
3	7138	148		jmp __ASM_Label_91
3	7138	150	#line 7138 "NXCDefs.h"
3	7139	150		add __PlaySound_7qG2_i_7qG2_001, __PlaySound_7qG2_i_7qG2_001, __constVal1
3	7139	154	#line 7139 "NXCDefs.h"
3	7140	154		jmp __ASM_Label_89
3	7139	156	#line 7139 "NXCDefs.h"
3	7140	156		set __signed_stack_001PlaySound, 523
3	7139	159	#line 7139 "NXCDefs.h"
3	7139	159	#line 7139 "NXCDefs.h"
3	7140	159		mov __D0PlaySound, __PlaySound_7qG2_i_7qG2_001
3	7139	161	#line 7139 "NXCDefs.h"
3	7140	161		mul __signed_stack_001PlaySound, __signed_stack_001PlaySound, __D0PlaySound
3	7139	165	#line 7139 "NXCDefs.h"
3	7139	165	#line 7139 "NXCDefs.h"
3	7140	165		set __D0PlaySound, 4
3	7139	168	#line 7139 "NXCDefs.h"
3	7140	168		div __signed_stack_001PlaySound, __signed_stack_001PlaySound, __D0PlaySound
3	7139	172	#line 7139 "NXCDefs.h"
3	7139	172	#line 7139 "NXCDefs.h"
3	7140	172		set __signed_stack_002PlaySound, 100
3	7139	175	#line 7139 "NXCDefs.h"
3	7139	175	#line 7139 "NXCDefs.h"
3	7140	175		set __signed_stack_003PlaySound, 4
3	7139	178	#line 7139 "NXCDefs.h"
3	7139	178	#line 7139 "NXCDefs.h"
3	7140	178		set __D0PlaySound, 0
3	7140	181	#line 7140 "NXCDefs.h"
3	7141	181		acquire __SPTArgsMutex
3	7140	182	#line 7140 "NXCDefs.h"
3	7141	182		mov __SPTArgs.Frequency, __signed_stack_001PlaySound
3	7140	184	#line 7140 "NXCDefs.h"
3	7141	184		mov __SPTArgs.Duration, __signed_stack_002PlaySound
3	7140	186	#line 7140 "NXCDefs.h"
3	7141	186		mov __SPTArgs.Volume, __signed_stack_003PlaySound
3	7140	188	#line 7140 "NXCDefs.h"
3	7141	188		mov __SPTArgs.Loop, __D0PlaySound
3	7140	191	#line 7140 "NXCDefs.h"
3	7141	191		syscall 10, __SPTArgs
3	7140	194	#line 7140 "NXCDefs.h"
3	7141	194		mov __D0PlaySound, __SPTArgs.Result
3	7140	197	#line 7140 "NXCDefs.h"
3	7141	197		release __SPTArgsMutex
3	7140	198	#line 7140 "NXCDefs.h"
3	7140	198	#line 7140 "NXCDefs.h"
3	7141	198		wait2 NA, __constVal100
3	7140	201	#line 7140 "NXCDefs.h"
3	7140	201	#line 7140 "NXCDefs.h"
3	7142	201	#line 7142 "NXCDefs.h"
3	7143	201		jmp __ASM_Label_92
3	7142	203	#line 7142 "NXCDefs.h"
3	7142	203	#line 7142 "NXCDefs.h"
3	7143	203		jmp __ASM_Label_105
3	7142	205	#line 7142 "NXCDefs.h"
3	7143	205		mov __signed_stack_001PlaySound, __PlaySound_7qG2_aCode_7qG2_000
3	7142	207	#line 7142 "NXCDefs.h"
3	7143	207	#line 7143 "NXCDefs.h"
3	7144	207		set __D0PlaySound, 2
3	7143	210	#line 7143 "NXCDefs.h"
3	7144	210		cmp 4, __D0PlaySound, __signed_stack_001PlaySound, __D0PlaySound
3	7143	214	#line 7143 "NXCDefs.h"
3	7144	214		brtst 4, __ASM_Label_108, __D0PlaySound
3	7143	217	#line 7143 "NXCDefs.h"
3	7144	217		set __PlaySound_7qG2_i_7qG2_001, 7
3	7143	220	#line 7143 "NXCDefs.h"
3	7143	220	#line 7143 "NXCDefs.h"
3	7144	220		mov __signed_stack_001PlaySound, __PlaySound_7qG2_i_7qG2_001
3	7143	222	#line 7143 "NXCDefs.h"
3	7143	222	#line 7143 "NXCDefs.h"
3	7144	222		set __D0PlaySound, 3
3	7143	225	#line 7143 "NXCDefs.h"
3	7144	225		cmp 1, __D0PlaySound, __signed_stack_001PlaySound, __D0PlaySound
3	7143	229	#line 7143 "NXCDefs.h"
3	7144	229		brtst 4, __ASM_Label_110, __D0PlaySound
3	7143	232	#line 7143 "NXCDefs.h"
3	7144	232		jmp __ASM_Label_111
3	7144	234	#line 7144 "NXCDefs.h"
3	7145	234		sub __PlaySound_7qG2_i_7qG2_001, __PlaySound_7qG2_i_7qG2_001, __constVal1
3	7145	238	#line 7145 "NXCDefs.h"
3	7146	238		jmp __ASM_Label_109
3	7145	240	#line 7145 "NXCDefs.h"
3	7146	240		set __signed_stack_001PlaySound, 523
3	7145	243	#line 7145 "NXCDefs.h"
3	7145	243	#line 7145 "NXCDefs.h"
3	7146	243		mov __D0PlaySound, __PlaySound_7qG2_i_7qG2_001
3	7145	245	#line 7145 "NXCDefs.h"
3	7146	245		mul __signed_stack_001PlaySound, __signed_stack_001PlaySound, __D0PlaySound
3	7145	249	#line 7145 "NXCDefs.h"
3	7145	249	#line 7145 "NXCDefs.h"
3	7146	249		set __D0PlaySound, 4
3	7145	252	#line 7145 "NXCDefs.h"
3	7146	252		div __signed_stack_001PlaySound, __signed_stack_001PlaySound, __D0PlaySound
3	7145	256	#line 7145 "NXCDefs.h"
3	7145	256	#line 7145 "NXCDefs.h"
3	7146	256		set __signed_stack_002PlaySound, 100
3	7145	259	#line 7145 "NXCDefs.h"
3	7145	259	#line 7145 "NXCDefs.h"
3	7146	259		set __signed_stack_003PlaySound, 4
3	7145	262	#line 7145 "NXCDefs.h"
3	7145	262	#line 7145 "NXCDefs.h"
3	7146	262		set __D0PlaySound, 0
3	7146	265	#line 7146 "NXCDefs.h"
3	7147	265		acquire __SPTArgsMutex
3	7146	266	#line 7146 "NXCDefs.h"
3	7147	266		mov __SPTArgs.Frequency, __signed_stack_001PlaySound
3	7146	268	#line 7146 "NXCDefs.h"
3	7147	268		mov __SPTArgs.Duration, __signed_stack_002PlaySound
3	7146	270	#line 7146 "NXCDefs.h"
3	7147	270		mov __SPTArgs.Volume, __signed_stack_003PlaySound
3	7146	272	#line 7146 "NXCDefs.h"
3	7147	272		mov __SPTArgs.Loop, __D0PlaySound
3	7146	275	#line 7146 "NXCDefs.h"
3	7147	275		syscall 10, __SPTArgs
3	7146	278	#line 7146 "NXCDefs.h"
3	7147	278		mov __D0PlaySound, __SPTArgs.Result
3	7146	281	#line 7146 "NXCDefs.h"
3	7147	281		release __SPTArgsMutex
3	7146	282	#line 7146 "NXCDefs.h"
3	7146	282	#line 7146 "NXCDefs.h"
3	7147	282		wait2 NA, __constVal100
3	7146	285	#line 7146 "NXCDefs.h"
3	7146	285	#line 7146 "NXCDefs.h"
3	7148	285	#line 7148 "NXCDefs.h"
3	7149	285		jmp __ASM_Label_112
3	7148	287	#line 7148 "NXCDefs.h"
3	7148	287	#line 7148 "NXCDefs.h"
3	7149	287		jmp __ASM_Label_125
3	7148	289	#line 7148 "NXCDefs.h"
3	7149	289		mov __signed_stack_001PlaySound, __PlaySound_7qG2_aCode_7qG2_000
3	7148	291	#line 7148 "NXCDefs.h"
3	7149	291	#line 7149 "NXCDefs.h"
3	7150	291		set __D0PlaySound, 4
3	7149	294	#line 7149 "NXCDefs.h"
3	7150	294		cmp 4, __D0PlaySound, __signed_stack_001PlaySound, __D0PlaySound
3	7150	298	#line 7150 "NXCDefs.h"
3	7151	298		brtst 4, __ASM_Label_128, __D0PlaySound
3	7150	301	#line 7150 "NXCDefs.h"
3	7151	301		set __signed_stack_001PlaySound, 100
3	7150	304	#line 7150 "NXCDefs.h"
3	7150	304	#line 7150 "NXCDefs.h"
3	7151	304		set __signed_stack_002PlaySound, 500
3	7150	307	#line 7150 "NXCDefs.h"
3	7150	307	#line 7150 "NXCDefs.h"
3	7151	307		set __signed_stack_003PlaySound, 4
3	7150	310	#line 7150 "NXCDefs.h"
3	7150	310	#line 7150 "NXCDefs.h"
3	7151	310		set __D0PlaySound, 0
3	7151	313	#line 7151 "NXCDefs.h"
3	7152	313		acquire __SPTArgsMutex
3	7151	314	#line 7151 "NXCDefs.h"
3	7152	314		mov __SPTArgs.Frequency, __signed_stack_001PlaySound
3	7151	316	#line 7151 "NXCDefs.h"
3	7152	316		mov __SPTArgs.Duration, __signed_stack_002PlaySound
3	7151	318	#line 7151 "NXCDefs.h"
3	7152	318		mov __SPTArgs.Volume, __signed_stack_003PlaySound
3	7151	320	#line 7151 "NXCDefs.h"
3	7152	320		mov __SPTArgs.Loop, __D0PlaySound
3	7151	323	#line 7151 "NXCDefs.h"
3	7152	323		syscall 10, __SPTArgs
3	7151	326	#line 7151 "NXCDefs.h"
3	7152	326		mov __D0PlaySound, __SPTArgs.Result
3	7151	329	#line 7151 "NXCDefs.h"
3	7152	329		release __SPTArgsMutex
3	7151	330	#line 7151 "NXCDefs.h"
3	7151	330	#line 7151 "NXCDefs.h"
3	7152	330		wait2 NA, __constVal500
3	7151	333	#line 7151 "NXCDefs.h"
3	7151	333	#line 7151 "NXCDefs.h"
3	7153	333	#line 7153 "NXCDefs.h"
3	7154	333		jmp __ASM_Label_137
3	7153	335	#line 7153 "NXCDefs.h"
3	7154	335		mov __signed_stack_001PlaySound, __PlaySound_7qG2_aCode_7qG2_000
3	7153	337	#line 7153 "NXCDefs.h"
3	7154	337	#line 7154 "NXCDefs.h"
3	7155	337		set __D0PlaySound, 5
3	7154	340	#line 7154 "NXCDefs.h"
3	7155	340		cmp 4, __D0PlaySound, __signed_stack_001PlaySound, __D0PlaySound
3	7154	344	#line 7154 "NXCDefs.h"
3	7155	344		brtst 4, __ASM_Label_140, __D0PlaySound
3	7154	347	#line 7154 "NXCDefs.h"
3	7155	347		set __PlaySound_7qG2_i_7qG2_001, 4
3	7154	350	#line 7154 "NXCDefs.h"
3	7154	350	#line 7154 "NXCDefs.h"
3	7155	350		mov __signed_stack_001PlaySound, __PlaySound_7qG2_i_7qG2_001
3	7154	352	#line 7154 "NXCDefs.h"
3	7154	352	#line 7154 "NXCDefs.h"
3	7155	352		set __D0PlaySound, 8
3	7154	355	#line 7154 "NXCDefs.h"
3	7155	355		cmp 0, __D0PlaySound, __signed_stack_001PlaySound, __D0PlaySound
3	7154	359	#line 7154 "NXCDefs.h"
3	7155	359		brtst 4, __ASM_Label_142, __D0PlaySound
3	7154	362	#line 7154 "NXCDefs.h"
3	7155	362		jmp __ASM_Label_143
3	7155	364	#line 7155 "NXCDefs.h"
3	7156	364		add __PlaySound_7qG2_i_7qG2_001, __PlaySound_7qG2_i_7qG2_001, __constVal1
3	7156	368	#line 7156 "NXCDefs.h"
3	7157	368		jmp __ASM_Label_141
3	7156	370	#line 7156 "NXCDefs.h"
3	7157	370		set __signed_stack_001PlaySound, 523
3	7156	373	#line 7156 "NXCDefs.h"
3	7156	373	#line 7156 "NXCDefs.h"
3	7157	373		mov __D0PlaySound, __PlaySound_7qG2_i_7qG2_001
3	7156	375	#line 7156 "NXCDefs.h"
3	7157	375		mul __signed_stack_001PlaySound, __signed_stack_001PlaySound, __D0PlaySound
3	7156	379	#line 7156 "NXCDefs.h"
3	7156	379	#line 7156 "NXCDefs.h"
3	7157	379		set __D0PlaySound, 4
3	7156	382	#line 7156 "NXCDefs.h"
3	7157	382		div __signed_stack_001PlaySound, __signed_stack_001PlaySound, __D0PlaySound
3	7156	386	#line 7156 "NXCDefs.h"
3	7156	386	#line 7156 "NXCDefs.h"
3	7157	386		set __signed_stack_002PlaySound, 50
3	7156	389	#line 7156 "NXCDefs.h"
3	7156	389	#line 7156 "NXCDefs.h"
3	7157	389		set __signed_stack_003PlaySound, 4
3	7156	392	#line 7156 "NXCDefs.h"
3	7156	392	#line 7156 "NXCDefs.h"
3	7157	392		set __D0PlaySound, 0
3	7157	395	#line 7157 "NXCDefs.h"
3	7158	395		acquire __SPTArgsMutex
3	7157	396	#line 7157 "NXCDefs.h"
3	7158	396		mov __SPTArgs.Frequency, __signed_stack_001PlaySound
3	7157	398	#line 7157 "NXCDefs.h"
3	7158	398		mov __SPTArgs.Duration, __signed_stack_002PlaySound
3	7157	400	#line 7157 "NXCDefs.h"
3	7158	400		mov __SPTArgs.Volume, __signed_stack_003PlaySound
3	7157	402	#line 7157 "NXCDefs.h"
3	7158	402		mov __SPTArgs.Loop, __D0PlaySound
3	7157	405	#line 7157 "NXCDefs.h"
3	7158	405		syscall 10, __SPTArgs
3	7157	408	#line 7157 "NXCDefs.h"
3	7158	408		mov __D0PlaySound, __SPTArgs.Result
3	7157	411	#line 7157 "NXCDefs.h"
3	7158	411		release __SPTArgsMutex
3	7157	412	#line 7157 "NXCDefs.h"
3	7157	412	#line 7157 "NXCDefs.h"
3	7158	412		wait2 NA, __constVal50
3	7157	415	#line 7157 "NXCDefs.h"
3	7157	415	#line 7157 "NXCDefs.h"
3	7169	415	#line 7169 "NXCDefs.h"
3	7170	415		jmp __ASM_Label_144
3	7169	417	#line 7169 "NXCDefs.h"
3	7169	417	#line 7169 "NXCDefs.h"
3	7169	417	#line 7169 "NXCDefs.h"
3	7169	417	#line 7169 "NXCDefs.h"
3	7169	417	#line 7169 "NXCDefs.h"
3	7169	417	#line 7169 "NXCDefs.h"
3	7169	417	#line 7169 "NXCDefs.h"
3	7169	417	#line 7169 "NXCDefs.h"
3	7170	417		subret __PlaySound_return
4	139	0	#line 139 "C:\Users\luan\Documents\GitHub\Droid\sekksi2016\Consultor\Funcionando\principal_consultor.nxc"
4	140	0		set __SetSensorColorRed_7qG2_port_7qG2_000_inline_InicializaSensores, 0
4	139	3	#line 139 "C:\Users\luan\Documents\GitHub\Droid\sekksi2016\Consultor\Funcionando\principal_consultor.nxc"
4	4396	3	#line 4396 "NXCDefs.h"
4	4397	3	#pragma macro 6
4	4397	3		setin __constVal14, __SetSensorColorRed_7qG2_port_7qG2_000_inline_InicializaSensores, 0
4	4397	7		setin __constVal128, __SetSensorColorRed_7qG2_port_7qG2_000_inline_InicializaSensores, 1
4	4397	11		mov __ResetSensorPort, __SetSensorColorRed_7qG2_port_7qG2_000_inline_InicializaSensores
4	4397	13		subcall __ResetSensorSubroutine, ____ResetSensorSubroutine_return
4	4946	15	#line 4946 "NXCDefs.h"
4	4396	15	#line 4396 "NXCDefs.h"
4	140	15	#line 140 "C:\Users\luan\Documents\GitHub\Droid\sekksi2016\Consultor\Funcionando\principal_consultor.nxc"
4	140	15	#line 140 "C:\Users\luan\Documents\GitHub\Droid\sekksi2016\Consultor\Funcionando\principal_consultor.nxc"
4	141	15		set __SetSensorColorRed_7qG2_port_7qG2_000_inline_InicializaSensores, 1
4	140	18	#line 140 "C:\Users\luan\Documents\GitHub\Droid\sekksi2016\Consultor\Funcionando\principal_consultor.nxc"
4	4396	18	#line 4396 "NXCDefs.h"
4	4397	18	#pragma macro 6
4	4397	18		setin __constVal14, __SetSensorColorRed_7qG2_port_7qG2_000_inline_InicializaSensores, 0
4	4397	22		setin __constVal128, __SetSensorColorRed_7qG2_port_7qG2_000_inline_InicializaSensores, 1
4	4397	26		mov __ResetSensorPort, __SetSensorColorRed_7qG2_port_7qG2_000_inline_InicializaSensores
4	4397	28		subcall __ResetSensorSubroutine, ____ResetSensorSubroutine_return
4	4954	30	#line 4954 "NXCDefs.h"
4	4396	30	#line 4396 "NXCDefs.h"
4	141	30	#line 141 "C:\Users\luan\Documents\GitHub\Droid\sekksi2016\Consultor\Funcionando\principal_consultor.nxc"
4	141	30	#line 141 "C:\Users\luan\Documents\GitHub\Droid\sekksi2016\Consultor\Funcionando\principal_consultor.nxc"
4	142	30		set __SetSensorColorGreen_7qG2_port_7qG2_000_inline_InicializaSensores, 2
4	141	33	#line 141 "C:\Users\luan\Documents\GitHub\Droid\sekksi2016\Consultor\Funcionando\principal_consultor.nxc"
4	4406	33	#line 4406 "NXCDefs.h"
4	4407	33	#pragma macro 6
4	4407	33		setin __constVal15, __SetSensorColorGreen_7qG2_port_7qG2_000_inline_InicializaSensores, 0
4	4407	37		setin __constVal128, __SetSensorColorGreen_7qG2_port_7qG2_000_inline_InicializaSensores, 1
4	4407	41		mov __ResetSensorPort, __SetSensorColorGreen_7qG2_port_7qG2_000_inline_InicializaSensores
4	4407	43		subcall __ResetSensorSubroutine, ____ResetSensorSubroutine_return
4	4966	45	#line 4966 "NXCDefs.h"
4	4406	45	#line 4406 "NXCDefs.h"
4	142	45	#line 142 "C:\Users\luan\Documents\GitHub\Droid\sekksi2016\Consultor\Funcionando\principal_consultor.nxc"
4	142	45	#line 142 "C:\Users\luan\Documents\GitHub\Droid\sekksi2016\Consultor\Funcionando\principal_consultor.nxc"
4	143	45		set __SetSensorLowspeed_7qG2_port_7qG2_000_inline_InicializaSensores, 3
4	142	48	#line 142 "C:\Users\luan\Documents\GitHub\Droid\sekksi2016\Consultor\Funcionando\principal_consultor.nxc"
4	143	48	#line 143 "C:\Users\luan\Documents\GitHub\Droid\sekksi2016\Consultor\Funcionando\principal_consultor.nxc"
4	144	48		mov __SetSensorLowspeed_7qG2_bIsPowered_7qG2_000_inline_InicializaSensores, __constVal1
4	4342	50	#line 4342 "NXCDefs.h"
4	4343	50		mov __SetSensorType_7qG2_port_7qG2_000_inline_SetSensorLowspeed_inline_InicializaSensores, __SetSensorLowspeed_7qG2_port_7qG2_000_inline_InicializaSensores
4	4342	52	#line 4342 "NXCDefs.h"
4	4342	52	#line 4342 "NXCDefs.h"
4	4343	52		mov __DU0SetSensorLowspeed_inline_InicializaSensores, __SetSensorLowspeed_7qG2_bIsPowered_7qG2_000_inline_InicializaSensores
4	4342	55	#line 4342 "NXCDefs.h"
4	4343	55		tst 5, __D0SetSensorLowspeed_inline_InicializaSensores, __DU0SetSensorLowspeed_inline_InicializaSensores
4	4342	58	#line 4342 "NXCDefs.h"
4	4343	58		brtst 4, __004__ASM_Label_36, __D0SetSensorLowspeed_inline_InicializaSensores
4	4342	61	#line 4342 "NXCDefs.h"
4	4343	61		set __DU0SetSensorLowspeed_inline_InicializaSensores, 11
4	4342	64	#line 4342 "NXCDefs.h"
4	4342	64	#line 4342 "NXCDefs.h"
4	4343	64		jmp __004__ASM_Label_37
4	4342	66	#line 4342 "NXCDefs.h"
4	4343	66		set __DU0SetSensorLowspeed_inline_InicializaSensores, 10
4	4342	69	#line 4342 "NXCDefs.h"
4	4342	69	#line 4342 "NXCDefs.h"
4	4343	69		mov __SetSensorType_7qG2_type_7qG2_000_inline_SetSensorLowspeed_inline_InicializaSensores, __DU0SetSensorLowspeed_inline_InicializaSensores
4	4247	72	#line 4247 "NXCDefs.h"
4	4248	72		setin __SetSensorType_7qG2_type_7qG2_000_inline_SetSensorLowspeed_inline_InicializaSensores, __SetSensorType_7qG2_port_7qG2_000_inline_SetSensorLowspeed_inline_InicializaSensores, 0
4	4247	76	#line 4247 "NXCDefs.h"
4	4343	76	#line 4343 "NXCDefs.h"
4	4343	76	#line 4343 "NXCDefs.h"
4	4344	76		mov __SetSensorMode_7qG2_port_7qG2_000_inline_SetSensorLowspeed_inline_InicializaSensores, __SetSensorLowspeed_7qG2_port_7qG2_000_inline_InicializaSensores
4	4343	78	#line 4343 "NXCDefs.h"
4	4343	78	#line 4343 "NXCDefs.h"
4	4344	78		set __SetSensorMode_7qG2_mode_7qG2_000_inline_SetSensorLowspeed_inline_InicializaSensores, 0
4	4343	81	#line 4343 "NXCDefs.h"
4	4260	81	#line 4260 "NXCDefs.h"
4	4261	81		setin __SetSensorMode_7qG2_mode_7qG2_000_inline_SetSensorLowspeed_inline_InicializaSensores, __SetSensorMode_7qG2_port_7qG2_000_inline_SetSensorLowspeed_inline_InicializaSensores, 1
4	4260	85	#line 4260 "NXCDefs.h"
4	4344	85	#line 4344 "NXCDefs.h"
4	4344	85	#line 4344 "NXCDefs.h"
4	4344	85	#line 4344 "NXCDefs.h"
4	4278	85	#line 4278 "NXCDefs.h"
4	4279	85	#pragma macro 4
4	4279	85		mov __ResetSensorPort, __SetSensorLowspeed_7qG2_port_7qG2_000_inline_InicializaSensores
4	4279	87		subcall __ResetSensorSubroutine, ____ResetSensorSubroutine_return
4	5056	89	#line 5056 "NXCDefs.h"
4	4278	89	#line 4278 "NXCDefs.h"
4	4345	89	#line 4345 "NXCDefs.h"
4	143	89	#line 143 "C:\Users\luan\Documents\GitHub\Droid\sekksi2016\Consultor\Funcionando\principal_consultor.nxc"
4	145	89	#line 145 "C:\Users\luan\Documents\GitHub\Droid\sekksi2016\Consultor\Funcionando\principal_consultor.nxc"
4	146	89		subret __InicializaSensores_return
5	147	0	#line 147 "C:\Users\luan\Documents\GitHub\Droid\sekksi2016\Consultor\Funcionando\principal_consultor.nxc"
5	148	0		set __returnUS_7qG2_valor_7qG2_000, 0
5	147	3	#line 147 "C:\Users\luan\Documents\GitHub\Droid\sekksi2016\Consultor\Funcionando\principal_consultor.nxc"
5	147	3	#line 147 "C:\Users\luan\Documents\GitHub\Droid\sekksi2016\Consultor\Funcionando\principal_consultor.nxc"
5	148	3	#pragma macro 26
5	148	3		acquire __RLSBmutex3
5	148	4		mov __RLSReadBuf3, __RLSBbufLSWrite1
5	148	6		set __RLSBytesCount3, 1
5	148	9		wait2 NA, __constVal15
5	148	12		subcall __ReadLSBytes3, ____ReadLSBytes3_return
5	148	14		index __D0returnUS, __RLSReadBuf3, 65535
5	148	18		release __RLSBmutex3
5	5074	19	#line 5074 "C:\Users\luan\Documents\GitHub\Droid\sekksi2016\Consultor\Funcionando\principal_consultor.nxc"
5	147	19	#line 147 "C:\Users\luan\Documents\GitHub\Droid\sekksi2016\Consultor\Funcionando\principal_consultor.nxc"
5	148	19		mov __returnUS_7qG2_valor_7qG2_000, __D0returnUS
5	147	21	#line 147 "C:\Users\luan\Documents\GitHub\Droid\sekksi2016\Consultor\Funcionando\principal_consultor.nxc"
5	147	21	#line 147 "C:\Users\luan\Documents\GitHub\Droid\sekksi2016\Consultor\Funcionando\principal_consultor.nxc"
5	148	21	#line 148 "C:\Users\luan\Documents\GitHub\Droid\sekksi2016\Consultor\Funcionando\principal_consultor.nxc"
5	149	21		set __Wait_7qG2_ms_7qG2_000_inline_returnUS, 30
5	148	24	#line 148 "C:\Users\luan\Documents\GitHub\Droid\sekksi2016\Consultor\Funcionando\principal_consultor.nxc"
5	8551	24	#line 8551 "NXCDefs.h"
5	8552	24		wait2 NA, __Wait_7qG2_ms_7qG2_000_inline_returnUS
5	8551	27	#line 8551 "NXCDefs.h"
5	149	27	#line 149 "C:\Users\luan\Documents\GitHub\Droid\sekksi2016\Consultor\Funcionando\principal_consultor.nxc"
5	149	27	#line 149 "C:\Users\luan\Documents\GitHub\Droid\sekksi2016\Consultor\Funcionando\principal_consultor.nxc"
5	150	27		set __signed_stack_001returnUS, 0
5	149	30	#line 149 "C:\Users\luan\Documents\GitHub\Droid\sekksi2016\Consultor\Funcionando\principal_consultor.nxc"
5	149	30	#line 149 "C:\Users\luan\Documents\GitHub\Droid\sekksi2016\Consultor\Funcionando\principal_consultor.nxc"
5	150	30		set __signed_stack_002returnUS, 56
5	149	33	#line 149 "C:\Users\luan\Documents\GitHub\Droid\sekksi2016\Consultor\Funcionando\principal_consultor.nxc"
5	149	33	#line 149 "C:\Users\luan\Documents\GitHub\Droid\sekksi2016\Consultor\Funcionando\principal_consultor.nxc"
5	150	33		mov __D0returnUS, __returnUS_7qG2_valor_7qG2_000
5	151	35	#line 151 "C:\Users\luan\Documents\GitHub\Droid\sekksi2016\Consultor\Funcionando\principal_consultor.nxc"
5	152	35		acquire __TextOutMutex
5	151	36	#line 151 "C:\Users\luan\Documents\GitHub\Droid\sekksi2016\Consultor\Funcionando\principal_consultor.nxc"
5	152	36		mov __TextOutArgs.Location.X, __signed_stack_001returnUS
5	151	38	#line 151 "C:\Users\luan\Documents\GitHub\Droid\sekksi2016\Consultor\Funcionando\principal_consultor.nxc"
5	152	38		mov __TextOutArgs.Location.Y, __signed_stack_002returnUS
5	151	41	#line 151 "C:\Users\luan\Documents\GitHub\Droid\sekksi2016\Consultor\Funcionando\principal_consultor.nxc"
5	152	41		set __TextOutArgs.Options, 0
5	151	44	#line 151 "C:\Users\luan\Documents\GitHub\Droid\sekksi2016\Consultor\Funcionando\principal_consultor.nxc"
5	152	44		numtostr __TextOutArgs.Text, __D0returnUS
5	151	47	#line 151 "C:\Users\luan\Documents\GitHub\Droid\sekksi2016\Consultor\Funcionando\principal_consultor.nxc"
5	152	47		syscall 13, __TextOutArgs
5	151	50	#line 151 "C:\Users\luan\Documents\GitHub\Droid\sekksi2016\Consultor\Funcionando\principal_consultor.nxc"
5	152	50		mov __D0returnUS, __TextOutArgs.Result
5	151	53	#line 151 "C:\Users\luan\Documents\GitHub\Droid\sekksi2016\Consultor\Funcionando\principal_consultor.nxc"
5	152	53		release __TextOutMutex
5	151	54	#line 151 "C:\Users\luan\Documents\GitHub\Droid\sekksi2016\Consultor\Funcionando\principal_consultor.nxc"
5	151	54	#line 151 "C:\Users\luan\Documents\GitHub\Droid\sekksi2016\Consultor\Funcionando\principal_consultor.nxc"
5	152	54		mov __signed_stack_001returnUS, __returnUS_7qG2_valor_7qG2_000
5	151	56	#line 151 "C:\Users\luan\Documents\GitHub\Droid\sekksi2016\Consultor\Funcionando\principal_consultor.nxc"
5	151	56	#line 151 "C:\Users\luan\Documents\GitHub\Droid\sekksi2016\Consultor\Funcionando\principal_consultor.nxc"
5	152	56		set __D0returnUS, 15
5	151	59	#line 151 "C:\Users\luan\Documents\GitHub\Droid\sekksi2016\Consultor\Funcionando\principal_consultor.nxc"
5	152	59		cmp 0, __D0returnUS, __signed_stack_001returnUS, __D0returnUS
5	152	63	#line 152 "C:\Users\luan\Documents\GitHub\Droid\sekksi2016\Consultor\Funcionando\principal_consultor.nxc"
5	153	63		brtst 4, __ASM_Label_511, __D0returnUS
5	153	66	#line 153 "C:\Users\luan\Documents\GitHub\Droid\sekksi2016\Consultor\Funcionando\principal_consultor.nxc"
5	154	66		set __D0returnUS, 1
5	153	69	#line 153 "C:\Users\luan\Documents\GitHub\Droid\sekksi2016\Consultor\Funcionando\principal_consultor.nxc"
5	154	69		subret __returnUS_return
5	153	71	#line 153 "C:\Users\luan\Documents\GitHub\Droid\sekksi2016\Consultor\Funcionando\principal_consultor.nxc"
5	155	71	#line 155 "C:\Users\luan\Documents\GitHub\Droid\sekksi2016\Consultor\Funcionando\principal_consultor.nxc"
5	156	71		jmp __ASM_Label_514
5	156	73	#line 156 "C:\Users\luan\Documents\GitHub\Droid\sekksi2016\Consultor\Funcionando\principal_consultor.nxc"
5	157	73		set __D0returnUS, 0
5	156	76	#line 156 "C:\Users\luan\Documents\GitHub\Droid\sekksi2016\Consultor\Funcionando\principal_consultor.nxc"
5	157	76		subret __returnUS_return
5	156	78	#line 156 "C:\Users\luan\Documents\GitHub\Droid\sekksi2016\Consultor\Funcionando\principal_consultor.nxc"
5	156	78	#line 156 "C:\Users\luan\Documents\GitHub\Droid\sekksi2016\Consultor\Funcionando\principal_consultor.nxc"
5	158	78	#line 158 "C:\Users\luan\Documents\GitHub\Droid\sekksi2016\Consultor\Funcionando\principal_consultor.nxc"
5	159	78		subret __returnUS_return
6	159	0	#line 159 "C:\Users\luan\Documents\GitHub\Droid\sekksi2016\Consultor\Funcionando\principal_consultor.nxc"
6	160	0		set __PlaySound_7qG2_aCode_7qG2_000, 3
6	159	3	#line 159 "C:\Users\luan\Documents\GitHub\Droid\sekksi2016\Consultor\Funcionando\principal_consultor.nxc"
6	160	3	#line 160 "C:\Users\luan\Documents\GitHub\Droid\sekksi2016\Consultor\Funcionando\principal_consultor.nxc"
6	161	3		subcall PlaySound, __PlaySound_return
6	160	5	#line 160 "C:\Users\luan\Documents\GitHub\Droid\sekksi2016\Consultor\Funcionando\principal_consultor.nxc"
6	160	5	#line 160 "C:\Users\luan\Documents\GitHub\Droid\sekksi2016\Consultor\Funcionando\principal_consultor.nxc"
6	161	5		set __PlaySound_7qG2_aCode_7qG2_000, 2
6	160	8	#line 160 "C:\Users\luan\Documents\GitHub\Droid\sekksi2016\Consultor\Funcionando\principal_consultor.nxc"
6	161	8	#line 161 "C:\Users\luan\Documents\GitHub\Droid\sekksi2016\Consultor\Funcionando\principal_consultor.nxc"
6	162	8		subcall PlaySound, __PlaySound_return
6	161	10	#line 161 "C:\Users\luan\Documents\GitHub\Droid\sekksi2016\Consultor\Funcionando\principal_consultor.nxc"
6	161	10	#line 161 "C:\Users\luan\Documents\GitHub\Droid\sekksi2016\Consultor\Funcionando\principal_consultor.nxc"
6	162	10		set __Wait_7qG2_ms_7qG2_000_inline_BipBranco, 1000
6	161	13	#line 161 "C:\Users\luan\Documents\GitHub\Droid\sekksi2016\Consultor\Funcionando\principal_consultor.nxc"
6	8551	13	#line 8551 "NXCDefs.h"
6	8552	13		wait2 NA, __Wait_7qG2_ms_7qG2_000_inline_BipBranco
6	8551	16	#line 8551 "NXCDefs.h"
6	162	16	#line 162 "C:\Users\luan\Documents\GitHub\Droid\sekksi2016\Consultor\Funcionando\principal_consultor.nxc"
6	164	16	#line 164 "C:\Users\luan\Documents\GitHub\Droid\sekksi2016\Consultor\Funcionando\principal_consultor.nxc"
6	165	16		subret __BipBranco_return
7	166	0	#line 166 "C:\Users\luan\Documents\GitHub\Droid\sekksi2016\Consultor\Funcionando\principal_consultor.nxc"
7	167	0		set __PlaySound_7qG2_aCode_7qG2_000, 2
7	166	3	#line 166 "C:\Users\luan\Documents\GitHub\Droid\sekksi2016\Consultor\Funcionando\principal_consultor.nxc"
7	167	3	#line 167 "C:\Users\luan\Documents\GitHub\Droid\sekksi2016\Consultor\Funcionando\principal_consultor.nxc"
7	168	3		subcall PlaySound, __PlaySound_return
7	167	5	#line 167 "C:\Users\luan\Documents\GitHub\Droid\sekksi2016\Consultor\Funcionando\principal_consultor.nxc"
7	167	5	#line 167 "C:\Users\luan\Documents\GitHub\Droid\sekksi2016\Consultor\Funcionando\principal_consultor.nxc"
7	168	5		set __PlaySound_7qG2_aCode_7qG2_000, 3
7	167	8	#line 167 "C:\Users\luan\Documents\GitHub\Droid\sekksi2016\Consultor\Funcionando\principal_consultor.nxc"
7	168	8	#line 168 "C:\Users\luan\Documents\GitHub\Droid\sekksi2016\Consultor\Funcionando\principal_consultor.nxc"
7	169	8		subcall PlaySound, __PlaySound_return
7	168	10	#line 168 "C:\Users\luan\Documents\GitHub\Droid\sekksi2016\Consultor\Funcionando\principal_consultor.nxc"
7	168	10	#line 168 "C:\Users\luan\Documents\GitHub\Droid\sekksi2016\Consultor\Funcionando\principal_consultor.nxc"
7	169	10		set __Wait_7qG2_ms_7qG2_000_inline_BipPreto, 1000
7	168	13	#line 168 "C:\Users\luan\Documents\GitHub\Droid\sekksi2016\Consultor\Funcionando\principal_consultor.nxc"
7	8551	13	#line 8551 "NXCDefs.h"
7	8552	13		wait2 NA, __Wait_7qG2_ms_7qG2_000_inline_BipPreto
7	8551	16	#line 8551 "NXCDefs.h"
7	169	16	#line 169 "C:\Users\luan\Documents\GitHub\Droid\sekksi2016\Consultor\Funcionando\principal_consultor.nxc"
7	171	16	#line 171 "C:\Users\luan\Documents\GitHub\Droid\sekksi2016\Consultor\Funcionando\principal_consultor.nxc"
7	172	16		subret __BipPreto_return
8	175	0	#line 175 "C:\Users\luan\Documents\GitHub\Droid\sekksi2016\Consultor\Funcionando\principal_consultor.nxc"
8	176	0		subcall RecebeBoneco, __RecebeBoneco_return
8	175	2	#line 175 "C:\Users\luan\Documents\GitHub\Droid\sekksi2016\Consultor\Funcionando\principal_consultor.nxc"
8	176	2		mov bonecoAlvo, __D0RecebeBoneco
8	175	4	#line 175 "C:\Users\luan\Documents\GitHub\Droid\sekksi2016\Consultor\Funcionando\principal_consultor.nxc"
8	175	4	#line 175 "C:\Users\luan\Documents\GitHub\Droid\sekksi2016\Consultor\Funcionando\principal_consultor.nxc"
8	175	4	#line 175 "C:\Users\luan\Documents\GitHub\Droid\sekksi2016\Consultor\Funcionando\principal_consultor.nxc"
8	176	4		mov __signed_stack_001BonecoAlvo, bonecoAlvo
8	175	6	#line 175 "C:\Users\luan\Documents\GitHub\Droid\sekksi2016\Consultor\Funcionando\principal_consultor.nxc"
8	175	6	#line 175 "C:\Users\luan\Documents\GitHub\Droid\sekksi2016\Consultor\Funcionando\principal_consultor.nxc"
8	176	6		set __D0BonecoAlvo, 12
8	175	9	#line 175 "C:\Users\luan\Documents\GitHub\Droid\sekksi2016\Consultor\Funcionando\principal_consultor.nxc"
8	176	9		cmp 4, __D0BonecoAlvo, __signed_stack_001BonecoAlvo, __D0BonecoAlvo
8	176	13	#line 176 "C:\Users\luan\Documents\GitHub\Droid\sekksi2016\Consultor\Funcionando\principal_consultor.nxc"
8	177	13		brtst 4, __ASM_Label_533, __D0BonecoAlvo
8	177	16	#line 177 "C:\Users\luan\Documents\GitHub\Droid\sekksi2016\Consultor\Funcionando\principal_consultor.nxc"
8	178	16		subcall BipPreto, __BipPreto_return
8	177	18	#line 177 "C:\Users\luan\Documents\GitHub\Droid\sekksi2016\Consultor\Funcionando\principal_consultor.nxc"
8	177	18	#line 177 "C:\Users\luan\Documents\GitHub\Droid\sekksi2016\Consultor\Funcionando\principal_consultor.nxc"
8	178	18		jmp __ASM_Label_534
8	177	20	#line 177 "C:\Users\luan\Documents\GitHub\Droid\sekksi2016\Consultor\Funcionando\principal_consultor.nxc"
8	178	20		mov __signed_stack_001BonecoAlvo, bonecoAlvo
8	177	22	#line 177 "C:\Users\luan\Documents\GitHub\Droid\sekksi2016\Consultor\Funcionando\principal_consultor.nxc"
8	177	22	#line 177 "C:\Users\luan\Documents\GitHub\Droid\sekksi2016\Consultor\Funcionando\principal_consultor.nxc"
8	178	22		set __D0BonecoAlvo, 4
8	177	25	#line 177 "C:\Users\luan\Documents\GitHub\Droid\sekksi2016\Consultor\Funcionando\principal_consultor.nxc"
8	178	25		cmp 4, __D0BonecoAlvo, __signed_stack_001BonecoAlvo, __D0BonecoAlvo
8	178	29	#line 178 "C:\Users\luan\Documents\GitHub\Droid\sekksi2016\Consultor\Funcionando\principal_consultor.nxc"
8	179	29		brtst 4, __ASM_Label_537, __D0BonecoAlvo
8	179	32	#line 179 "C:\Users\luan\Documents\GitHub\Droid\sekksi2016\Consultor\Funcionando\principal_consultor.nxc"
8	180	32		subcall BipBranco, __BipBranco_return
8	179	35	#line 179 "C:\Users\luan\Documents\GitHub\Droid\sekksi2016\Consultor\Funcionando\principal_consultor.nxc"
8	183	35	#line 183 "C:\Users\luan\Documents\GitHub\Droid\sekksi2016\Consultor\Funcionando\principal_consultor.nxc"
8	183	35	#line 183 "C:\Users\luan\Documents\GitHub\Droid\sekksi2016\Consultor\Funcionando\principal_consultor.nxc"
8	183	35	#line 183 "C:\Users\luan\Documents\GitHub\Droid\sekksi2016\Consultor\Funcionando\principal_consultor.nxc"
8	184	35		subret __BonecoAlvo_return
9	188	0	#line 188 "C:\Users\luan\Documents\GitHub\Droid\sekksi2016\Consultor\Funcionando\principal_consultor.nxc"
9	189	0		subcall InicializaSensores, __InicializaSensores_return
9	188	3	#line 188 "C:\Users\luan\Documents\GitHub\Droid\sekksi2016\Consultor\Funcionando\principal_consultor.nxc"
9	190	3	#line 190 "C:\Users\luan\Documents\GitHub\Droid\sekksi2016\Consultor\Funcionando\principal_consultor.nxc"
9	191	3		subcall BonecoAlvo, __BonecoAlvo_return
9	190	5	#line 190 "C:\Users\luan\Documents\GitHub\Droid\sekksi2016\Consultor\Funcionando\principal_consultor.nxc"
9	192	5	#line 192 "C:\Users\luan\Documents\GitHub\Droid\sekksi2016\Consultor\Funcionando\principal_consultor.nxc"
9	193	5		subcall VoltaGarra, __VoltaGarra_return
9	192	7	#line 192 "C:\Users\luan\Documents\GitHub\Droid\sekksi2016\Consultor\Funcionando\principal_consultor.nxc"
9	192	7	#line 192 "C:\Users\luan\Documents\GitHub\Droid\sekksi2016\Consultor\Funcionando\principal_consultor.nxc"
9	193	7		set __D0consultor, 1
9	194	10	#line 194 "C:\Users\luan\Documents\GitHub\Droid\sekksi2016\Consultor\Funcionando\principal_consultor.nxc"
9	195	10		tst 5, __D0consultor, __D0consultor
9	194	13	#line 194 "C:\Users\luan\Documents\GitHub\Droid\sekksi2016\Consultor\Funcionando\principal_consultor.nxc"
9	195	13		brtst 4, __ASM_Label_539, __D0consultor
9	194	16	#line 194 "C:\Users\luan\Documents\GitHub\Droid\sekksi2016\Consultor\Funcionando\principal_consultor.nxc"
9	195	16		subcall returnUS, __returnUS_return
9	194	19	#line 194 "C:\Users\luan\Documents\GitHub\Droid\sekksi2016\Consultor\Funcionando\principal_consultor.nxc"
9	195	19		mov __D0consultor, __D0returnUS
9	196	21	#line 196 "C:\Users\luan\Documents\GitHub\Droid\sekksi2016\Consultor\Funcionando\principal_consultor.nxc"
9	197	21		tst 5, __D0consultor, __D0consultor
9	196	24	#line 196 "C:\Users\luan\Documents\GitHub\Droid\sekksi2016\Consultor\Funcionando\principal_consultor.nxc"
9	197	24		brtst 4, __ASM_Label_544, __D0consultor
9	196	27	#line 196 "C:\Users\luan\Documents\GitHub\Droid\sekksi2016\Consultor\Funcionando\principal_consultor.nxc"
9	197	27	#pragma macro 14
9	197	27		acquire __RemoteMutex
9	197	28		mov __SRSTmpBuf, __DCMessageWritePacket
9	197	30		replace __SRSTmpBuf, __SRSTmpBuf, __constVal2, __constVal1
9	197	35		replace __SRSTmpBuf, __SRSTmpBuf, __constVal3, __constVal5
9	197	40		mov __SRSTmpLongVal, __constVal1
9	197	42		flatten __SRSFlattenBuf, __SRSTmpLongVal
9	197	45		arrbuild __SRSSendBuf, __SRSTmpBuf, __SRSFlattenBuf
9	197	50		acquire __CBTWMutex
9	197	51		mov __CBTWArgs.Connection, __constVal0
9	197	53		mov __CBTWArgs.Buffer, __SRSSendBuf
9	197	55		syscall 29, __CBTWArgs
9	197	58		mov __D0consultor, __CBTWArgs.Result
9	197	61		release __CBTWMutex
9	197	62		release __RemoteMutex
9	5308	63	#line 5308 "C:\Users\luan\Documents\GitHub\Droid\sekksi2016\Consultor\Funcionando\principal_consultor.nxc"
9	196	63	#line 196 "C:\Users\luan\Documents\GitHub\Droid\sekksi2016\Consultor\Funcionando\principal_consultor.nxc"
9	196	63	#line 196 "C:\Users\luan\Documents\GitHub\Droid\sekksi2016\Consultor\Funcionando\principal_consultor.nxc"
9	201	63	#line 201 "C:\Users\luan\Documents\GitHub\Droid\sekksi2016\Consultor\Funcionando\principal_consultor.nxc"
9	202	63		jmp __ASM_Label_545
9	202	65	#line 202 "C:\Users\luan\Documents\GitHub\Droid\sekksi2016\Consultor\Funcionando\principal_consultor.nxc"
9	203	65		subcall TemBoneco, __TemBoneco_return
9	202	67	#line 202 "C:\Users\luan\Documents\GitHub\Droid\sekksi2016\Consultor\Funcionando\principal_consultor.nxc"
9	203	67		mov __D0consultor, __D0TemBoneco
9	204	69	#line 204 "C:\Users\luan\Documents\GitHub\Droid\sekksi2016\Consultor\Funcionando\principal_consultor.nxc"
9	205	69		tst 5, __D0consultor, __D0consultor
9	204	72	#line 204 "C:\Users\luan\Documents\GitHub\Droid\sekksi2016\Consultor\Funcionando\principal_consultor.nxc"
9	205	72		brtst 4, __ASM_Label_548, __D0consultor
9	209	75	#line 209 "C:\Users\luan\Documents\GitHub\Droid\sekksi2016\Consultor\Funcionando\principal_consultor.nxc"
9	210	75		subcall MandaPara, __MandaPara_return
9	209	77	#line 209 "C:\Users\luan\Documents\GitHub\Droid\sekksi2016\Consultor\Funcionando\principal_consultor.nxc"
9	210	77	#line 210 "C:\Users\luan\Documents\GitHub\Droid\sekksi2016\Consultor\Funcionando\principal_consultor.nxc"
9	211	77		subcall PegaBoneco, __PegaBoneco_return
9	210	79	#line 210 "C:\Users\luan\Documents\GitHub\Droid\sekksi2016\Consultor\Funcionando\principal_consultor.nxc"
9	211	79		mov __D0consultor, __D0PegaBoneco
9	211	81	#line 211 "C:\Users\luan\Documents\GitHub\Droid\sekksi2016\Consultor\Funcionando\principal_consultor.nxc"
9	212	81		tst 5, __D0consultor, __D0consultor
9	211	84	#line 211 "C:\Users\luan\Documents\GitHub\Droid\sekksi2016\Consultor\Funcionando\principal_consultor.nxc"
9	212	84		brtst 4, __ASM_Label_551, __D0consultor
9	212	87	#line 212 "C:\Users\luan\Documents\GitHub\Droid\sekksi2016\Consultor\Funcionando\principal_consultor.nxc"
9	213	87		subcall CorBoneco, __CorBoneco_return
9	212	89	#line 212 "C:\Users\luan\Documents\GitHub\Droid\sekksi2016\Consultor\Funcionando\principal_consultor.nxc"
9	213	89		mov __consultor_7qG2_cor_7qG2_000, __D0CorBoneco
9	212	91	#line 212 "C:\Users\luan\Documents\GitHub\Droid\sekksi2016\Consultor\Funcionando\principal_consultor.nxc"
9	212	91	#line 212 "C:\Users\luan\Documents\GitHub\Droid\sekksi2016\Consultor\Funcionando\principal_consultor.nxc"
9	212	91	#line 212 "C:\Users\luan\Documents\GitHub\Droid\sekksi2016\Consultor\Funcionando\principal_consultor.nxc"
9	213	91		mov __signed_stack_001consultor, __consultor_7qG2_cor_7qG2_000
9	212	93	#line 212 "C:\Users\luan\Documents\GitHub\Droid\sekksi2016\Consultor\Funcionando\principal_consultor.nxc"
9	213	93	#line 213 "C:\Users\luan\Documents\GitHub\Droid\sekksi2016\Consultor\Funcionando\principal_consultor.nxc"
9	214	93		mov __D0consultor, bonecoAlvo
9	213	95	#line 213 "C:\Users\luan\Documents\GitHub\Droid\sekksi2016\Consultor\Funcionando\principal_consultor.nxc"
9	214	95		cmp 4, __D0consultor, __signed_stack_001consultor, __D0consultor
9	214	99	#line 214 "C:\Users\luan\Documents\GitHub\Droid\sekksi2016\Consultor\Funcionando\principal_consultor.nxc"
9	215	99		brtst 4, __ASM_Label_556, __D0consultor
9	215	102	#line 215 "C:\Users\luan\Documents\GitHub\Droid\sekksi2016\Consultor\Funcionando\principal_consultor.nxc"
9	216	102		subcall Pega, __Pega_return
9	215	104	#line 215 "C:\Users\luan\Documents\GitHub\Droid\sekksi2016\Consultor\Funcionando\principal_consultor.nxc"
9	216	104	#line 216 "C:\Users\luan\Documents\GitHub\Droid\sekksi2016\Consultor\Funcionando\principal_consultor.nxc"
9	217	104		jmp __ASM_Label_557
9	216	106	#line 216 "C:\Users\luan\Documents\GitHub\Droid\sekksi2016\Consultor\Funcionando\principal_consultor.nxc"
9	217	106		mov __signed_stack_001consultor, __consultor_7qG2_cor_7qG2_000
9	216	108	#line 216 "C:\Users\luan\Documents\GitHub\Droid\sekksi2016\Consultor\Funcionando\principal_consultor.nxc"
9	217	108	#line 217 "C:\Users\luan\Documents\GitHub\Droid\sekksi2016\Consultor\Funcionando\principal_consultor.nxc"
9	218	108		mov __D0consultor, bonecoNaoAlvo
9	217	110	#line 217 "C:\Users\luan\Documents\GitHub\Droid\sekksi2016\Consultor\Funcionando\principal_consultor.nxc"
9	218	110		cmp 4, __D0consultor, __signed_stack_001consultor, __D0consultor
9	218	114	#line 218 "C:\Users\luan\Documents\GitHub\Droid\sekksi2016\Consultor\Funcionando\principal_consultor.nxc"
9	219	114		brtst 4, __ASM_Label_560, __D0consultor
9	219	117	#line 219 "C:\Users\luan\Documents\GitHub\Droid\sekksi2016\Consultor\Funcionando\principal_consultor.nxc"
9	220	117		subcall Rejeitar, __Rejeitar_return
9	219	119	#line 219 "C:\Users\luan\Documents\GitHub\Droid\sekksi2016\Consultor\Funcionando\principal_consultor.nxc"
9	220	119	#line 220 "C:\Users\luan\Documents\GitHub\Droid\sekksi2016\Consultor\Funcionando\principal_consultor.nxc"
9	221	119		jmp __ASM_Label_561
9	220	121	#line 220 "C:\Users\luan\Documents\GitHub\Droid\sekksi2016\Consultor\Funcionando\principal_consultor.nxc"
9	221	121		mov __signed_stack_001consultor, __consultor_7qG2_cor_7qG2_000
9	220	123	#line 220 "C:\Users\luan\Documents\GitHub\Droid\sekksi2016\Consultor\Funcionando\principal_consultor.nxc"
9	221	123	#line 221 "C:\Users\luan\Documents\GitHub\Droid\sekksi2016\Consultor\Funcionando\principal_consultor.nxc"
9	222	123		mov __D0consultor, __constValNeg1
9	221	125	#line 221 "C:\Users\luan\Documents\GitHub\Droid\sekksi2016\Consultor\Funcionando\principal_consultor.nxc"
9	222	125		cmp 4, __D0consultor, __signed_stack_001consultor, __D0consultor
9	223	129	#line 223 "C:\Users\luan\Documents\GitHub\Droid\sekksi2016\Consultor\Funcionando\principal_consultor.nxc"
9	226	129	#line 226 "C:\Users\luan\Documents\GitHub\Droid\sekksi2016\Consultor\Funcionando\principal_consultor.nxc"
9	226	129	#line 226 "C:\Users\luan\Documents\GitHub\Droid\sekksi2016\Consultor\Funcionando\principal_consultor.nxc"
9	226	129	#line 226 "C:\Users\luan\Documents\GitHub\Droid\sekksi2016\Consultor\Funcionando\principal_consultor.nxc"
9	226	129	#line 226 "C:\Users\luan\Documents\GitHub\Droid\sekksi2016\Consultor\Funcionando\principal_consultor.nxc"
9	227	129	#line 227 "C:\Users\luan\Documents\GitHub\Droid\sekksi2016\Consultor\Funcionando\principal_consultor.nxc"
9	228	129		subcall MandaContinuar, __MandaContinuar_return
9	227	131	#line 227 "C:\Users\luan\Documents\GitHub\Droid\sekksi2016\Consultor\Funcionando\principal_consultor.nxc"
9	231	131	#line 231 "C:\Users\luan\Documents\GitHub\Droid\sekksi2016\Consultor\Funcionando\principal_consultor.nxc"
9	232	131		jmp __ASM_Label_565
9	233	133	#line 233 "C:\Users\luan\Documents\GitHub\Droid\sekksi2016\Consultor\Funcionando\principal_consultor.nxc"
9	234	133	#line 234 "C:\Users\luan\Documents\GitHub\Droid\sekksi2016\Consultor\Funcionando\principal_consultor.nxc"
9	236	133	#line 236 "C:\Users\luan\Documents\GitHub\Droid\sekksi2016\Consultor\Funcionando\principal_consultor.nxc"
9	237	133		jmp __ASM_Label_538
9	236	135	#line 236 "C:\Users\luan\Documents\GitHub\Droid\sekksi2016\Consultor\Funcionando\principal_consultor.nxc"
9	236	135	#line 236 "C:\Users\luan\Documents\GitHub\Droid\sekksi2016\Consultor\Funcionando\principal_consultor.nxc"
9	237	135		subret __consultor_return
10	241	0	#line 241 "C:\Users\luan\Documents\GitHub\Droid\sekksi2016\Consultor\Funcionando\principal_consultor.nxc"
10	242	0		set __lerSensor_7qG2_sensor_7qG2_000, 0
10	241	3	#line 241 "C:\Users\luan\Documents\GitHub\Droid\sekksi2016\Consultor\Funcionando\principal_consultor.nxc"
10	242	3	#line 242 "C:\Users\luan\Documents\GitHub\Droid\sekksi2016\Consultor\Funcionando\principal_consultor.nxc"
10	243	3		subcall lerSensor, __lerSensor_return
10	242	5	#line 242 "C:\Users\luan\Documents\GitHub\Droid\sekksi2016\Consultor\Funcionando\principal_consultor.nxc"
10	243	5		mov __TemBoneco_7qG2_rgb_dir_7qG2_000, __D0lerSensor
10	242	7	#line 242 "C:\Users\luan\Documents\GitHub\Droid\sekksi2016\Consultor\Funcionando\principal_consultor.nxc"
10	242	7	#line 242 "C:\Users\luan\Documents\GitHub\Droid\sekksi2016\Consultor\Funcionando\principal_consultor.nxc"
10	242	7	#line 242 "C:\Users\luan\Documents\GitHub\Droid\sekksi2016\Consultor\Funcionando\principal_consultor.nxc"
10	243	7		set __lerSensor_7qG2_sensor_7qG2_000, 1
10	242	10	#line 242 "C:\Users\luan\Documents\GitHub\Droid\sekksi2016\Consultor\Funcionando\principal_consultor.nxc"
10	246	10	#line 246 "C:\Users\luan\Documents\GitHub\Droid\sekksi2016\Consultor\Funcionando\principal_consultor.nxc"
10	247	10		subcall lerSensor, __lerSensor_return
10	246	12	#line 246 "C:\Users\luan\Documents\GitHub\Droid\sekksi2016\Consultor\Funcionando\principal_consultor.nxc"
10	247	12		mov __TemBoneco_7qG2_rgb_esq_7qG2_000, __D0lerSensor
10	246	14	#line 246 "C:\Users\luan\Documents\GitHub\Droid\sekksi2016\Consultor\Funcionando\principal_consultor.nxc"
10	246	14	#line 246 "C:\Users\luan\Documents\GitHub\Droid\sekksi2016\Consultor\Funcionando\principal_consultor.nxc"
10	246	14	#line 246 "C:\Users\luan\Documents\GitHub\Droid\sekksi2016\Consultor\Funcionando\principal_consultor.nxc"
10	247	14		set __signed_stack_001TemBoneco, 0
10	246	17	#line 246 "C:\Users\luan\Documents\GitHub\Droid\sekksi2016\Consultor\Funcionando\principal_consultor.nxc"
10	246	17	#line 246 "C:\Users\luan\Documents\GitHub\Droid\sekksi2016\Consultor\Funcionando\principal_consultor.nxc"
10	247	17		set __signed_stack_002TemBoneco, 48
10	246	20	#line 246 "C:\Users\luan\Documents\GitHub\Droid\sekksi2016\Consultor\Funcionando\principal_consultor.nxc"
10	246	20	#line 246 "C:\Users\luan\Documents\GitHub\Droid\sekksi2016\Consultor\Funcionando\principal_consultor.nxc"
10	247	20		mov __D0TemBoneco, __TemBoneco_7qG2_rgb_dir_7qG2_000
10	247	22	#line 247 "C:\Users\luan\Documents\GitHub\Droid\sekksi2016\Consultor\Funcionando\principal_consultor.nxc"
10	248	22		acquire __TextOutMutex
10	247	23	#line 247 "C:\Users\luan\Documents\GitHub\Droid\sekksi2016\Consultor\Funcionando\principal_consultor.nxc"
10	248	23		mov __TextOutArgs.Location.X, __signed_stack_001TemBoneco
10	247	26	#line 247 "C:\Users\luan\Documents\GitHub\Droid\sekksi2016\Consultor\Funcionando\principal_consultor.nxc"
10	248	26		mov __TextOutArgs.Location.Y, __signed_stack_002TemBoneco
10	247	29	#line 247 "C:\Users\luan\Documents\GitHub\Droid\sekksi2016\Consultor\Funcionando\principal_consultor.nxc"
10	248	29		set __TextOutArgs.Options, 0
10	247	32	#line 247 "C:\Users\luan\Documents\GitHub\Droid\sekksi2016\Consultor\Funcionando\principal_consultor.nxc"
10	248	32		numtostr __TextOutArgs.Text, __D0TemBoneco
10	247	35	#line 247 "C:\Users\luan\Documents\GitHub\Droid\sekksi2016\Consultor\Funcionando\principal_consultor.nxc"
10	248	35		syscall 13, __TextOutArgs
10	247	38	#line 247 "C:\Users\luan\Documents\GitHub\Droid\sekksi2016\Consultor\Funcionando\principal_consultor.nxc"
10	248	38		mov __D0TemBoneco, __TextOutArgs.Result
10	247	41	#line 247 "C:\Users\luan\Documents\GitHub\Droid\sekksi2016\Consultor\Funcionando\principal_consultor.nxc"
10	248	41		release __TextOutMutex
10	247	42	#line 247 "C:\Users\luan\Documents\GitHub\Droid\sekksi2016\Consultor\Funcionando\principal_consultor.nxc"
10	247	42	#line 247 "C:\Users\luan\Documents\GitHub\Droid\sekksi2016\Consultor\Funcionando\principal_consultor.nxc"
10	248	42		set __signed_stack_001TemBoneco, 0
10	247	45	#line 247 "C:\Users\luan\Documents\GitHub\Droid\sekksi2016\Consultor\Funcionando\principal_consultor.nxc"
10	247	45	#line 247 "C:\Users\luan\Documents\GitHub\Droid\sekksi2016\Consultor\Funcionando\principal_consultor.nxc"
10	248	45		set __signed_stack_002TemBoneco, 40
10	247	48	#line 247 "C:\Users\luan\Documents\GitHub\Droid\sekksi2016\Consultor\Funcionando\principal_consultor.nxc"
10	247	48	#line 247 "C:\Users\luan\Documents\GitHub\Droid\sekksi2016\Consultor\Funcionando\principal_consultor.nxc"
10	248	48		mov __D0TemBoneco, __TemBoneco_7qG2_rgb_esq_7qG2_000
10	250	50	#line 250 "C:\Users\luan\Documents\GitHub\Droid\sekksi2016\Consultor\Funcionando\principal_consultor.nxc"
10	251	50		acquire __TextOutMutex
10	250	51	#line 250 "C:\Users\luan\Documents\GitHub\Droid\sekksi2016\Consultor\Funcionando\principal_consultor.nxc"
10	251	51		mov __TextOutArgs.Location.X, __signed_stack_001TemBoneco
10	250	54	#line 250 "C:\Users\luan\Documents\GitHub\Droid\sekksi2016\Consultor\Funcionando\principal_consultor.nxc"
10	251	54		mov __TextOutArgs.Location.Y, __signed_stack_002TemBoneco
10	250	57	#line 250 "C:\Users\luan\Documents\GitHub\Droid\sekksi2016\Consultor\Funcionando\principal_consultor.nxc"
10	251	57		set __TextOutArgs.Options, 0
10	250	60	#line 250 "C:\Users\luan\Documents\GitHub\Droid\sekksi2016\Consultor\Funcionando\principal_consultor.nxc"
10	251	60		numtostr __TextOutArgs.Text, __D0TemBoneco
10	250	63	#line 250 "C:\Users\luan\Documents\GitHub\Droid\sekksi2016\Consultor\Funcionando\principal_consultor.nxc"
10	251	63		syscall 13, __TextOutArgs
10	250	66	#line 250 "C:\Users\luan\Documents\GitHub\Droid\sekksi2016\Consultor\Funcionando\principal_consultor.nxc"
10	251	66		mov __D0TemBoneco, __TextOutArgs.Result
10	250	69	#line 250 "C:\Users\luan\Documents\GitHub\Droid\sekksi2016\Consultor\Funcionando\principal_consultor.nxc"
10	251	69		release __TextOutMutex
10	250	70	#line 250 "C:\Users\luan\Documents\GitHub\Droid\sekksi2016\Consultor\Funcionando\principal_consultor.nxc"
10	250	70	#line 250 "C:\Users\luan\Documents\GitHub\Droid\sekksi2016\Consultor\Funcionando\principal_consultor.nxc"
10	251	70		mov __signed_stack_001TemBoneco, __TemBoneco_7qG2_rgb_dir_7qG2_000
10	250	72	#line 250 "C:\Users\luan\Documents\GitHub\Droid\sekksi2016\Consultor\Funcionando\principal_consultor.nxc"
10	250	72	#line 250 "C:\Users\luan\Documents\GitHub\Droid\sekksi2016\Consultor\Funcionando\principal_consultor.nxc"
10	251	72		set __D0TemBoneco, 380
10	250	75	#line 250 "C:\Users\luan\Documents\GitHub\Droid\sekksi2016\Consultor\Funcionando\principal_consultor.nxc"
10	251	75		cmp 0, __D0TemBoneco, __signed_stack_001TemBoneco, __D0TemBoneco
10	250	79	#line 250 "C:\Users\luan\Documents\GitHub\Droid\sekksi2016\Consultor\Funcionando\principal_consultor.nxc"
10	251	79		brtst 4, __ASM_Label_589, __D0TemBoneco
10	250	82	#line 250 "C:\Users\luan\Documents\GitHub\Droid\sekksi2016\Consultor\Funcionando\principal_consultor.nxc"
10	251	82		mov __signed_stack_001TemBoneco, __TemBoneco_7qG2_rgb_dir_7qG2_000
10	250	84	#line 250 "C:\Users\luan\Documents\GitHub\Droid\sekksi2016\Consultor\Funcionando\principal_consultor.nxc"
10	250	84	#line 250 "C:\Users\luan\Documents\GitHub\Droid\sekksi2016\Consultor\Funcionando\principal_consultor.nxc"
10	251	84		set __D0TemBoneco, 312
10	250	87	#line 250 "C:\Users\luan\Documents\GitHub\Droid\sekksi2016\Consultor\Funcionando\principal_consultor.nxc"
10	251	87		cmp 1, __D0TemBoneco, __signed_stack_001TemBoneco, __D0TemBoneco
10	250	91	#line 250 "C:\Users\luan\Documents\GitHub\Droid\sekksi2016\Consultor\Funcionando\principal_consultor.nxc"
10	251	91		brtst 4, __ASM_Label_587, __D0TemBoneco
10	250	94	#line 250 "C:\Users\luan\Documents\GitHub\Droid\sekksi2016\Consultor\Funcionando\principal_consultor.nxc"
10	251	94		mov __signed_stack_001TemBoneco, __TemBoneco_7qG2_rgb_esq_7qG2_000
10	250	96	#line 250 "C:\Users\luan\Documents\GitHub\Droid\sekksi2016\Consultor\Funcionando\principal_consultor.nxc"
10	250	96	#line 250 "C:\Users\luan\Documents\GitHub\Droid\sekksi2016\Consultor\Funcionando\principal_consultor.nxc"
10	251	96		set __D0TemBoneco, 308
10	250	99	#line 250 "C:\Users\luan\Documents\GitHub\Droid\sekksi2016\Consultor\Funcionando\principal_consultor.nxc"
10	251	99		cmp 0, __D0TemBoneco, __signed_stack_001TemBoneco, __D0TemBoneco
10	250	103	#line 250 "C:\Users\luan\Documents\GitHub\Droid\sekksi2016\Consultor\Funcionando\principal_consultor.nxc"
10	251	103		brtst 4, __ASM_Label_595, __D0TemBoneco
10	250	106	#line 250 "C:\Users\luan\Documents\GitHub\Droid\sekksi2016\Consultor\Funcionando\principal_consultor.nxc"
10	251	106		mov __signed_stack_001TemBoneco, __TemBoneco_7qG2_rgb_esq_7qG2_000
10	250	108	#line 250 "C:\Users\luan\Documents\GitHub\Droid\sekksi2016\Consultor\Funcionando\principal_consultor.nxc"
10	250	108	#line 250 "C:\Users\luan\Documents\GitHub\Droid\sekksi2016\Consultor\Funcionando\principal_consultor.nxc"
10	251	108		set __D0TemBoneco, 247
10	250	111	#line 250 "C:\Users\luan\Documents\GitHub\Droid\sekksi2016\Consultor\Funcionando\principal_consultor.nxc"
10	251	111		cmp 1, __D0TemBoneco, __signed_stack_001TemBoneco, __D0TemBoneco
10	251	115	#line 251 "C:\Users\luan\Documents\GitHub\Droid\sekksi2016\Consultor\Funcionando\principal_consultor.nxc"
10	252	115		brtst 4, __ASM_Label_600, __D0TemBoneco
10	252	118	#line 252 "C:\Users\luan\Documents\GitHub\Droid\sekksi2016\Consultor\Funcionando\principal_consultor.nxc"
10	253	118		set __D0TemBoneco, 0
10	252	121	#line 252 "C:\Users\luan\Documents\GitHub\Droid\sekksi2016\Consultor\Funcionando\principal_consultor.nxc"
10	253	121		subret __TemBoneco_return
10	252	123	#line 252 "C:\Users\luan\Documents\GitHub\Droid\sekksi2016\Consultor\Funcionando\principal_consultor.nxc"
10	252	123	#line 252 "C:\Users\luan\Documents\GitHub\Droid\sekksi2016\Consultor\Funcionando\principal_consultor.nxc"
10	253	123	#line 253 "C:\Users\luan\Documents\GitHub\Droid\sekksi2016\Consultor\Funcionando\principal_consultor.nxc"
10	254	123		set __D0TemBoneco, 1
10	253	126	#line 253 "C:\Users\luan\Documents\GitHub\Droid\sekksi2016\Consultor\Funcionando\principal_consultor.nxc"
10	254	126		subret __TemBoneco_return
10	253	128	#line 253 "C:\Users\luan\Documents\GitHub\Droid\sekksi2016\Consultor\Funcionando\principal_consultor.nxc"
10	255	128	#line 255 "C:\Users\luan\Documents\GitHub\Droid\sekksi2016\Consultor\Funcionando\principal_consultor.nxc"
10	256	128		subret __TemBoneco_return
11	259	0	#line 259 "C:\Users\luan\Documents\GitHub\Droid\sekksi2016\Consultor\Funcionando\principal_consultor.nxc"
11	260	0		arrinit __lerSensor_7qG2_leitura_7qG2_000, __constVal0, __constVal11
11	259	4	#line 259 "C:\Users\luan\Documents\GitHub\Droid\sekksi2016\Consultor\Funcionando\principal_consultor.nxc"
11	260	4		set __lerSensor_7qG2_i_7qG2_000, 0
11	259	7	#line 259 "C:\Users\luan\Documents\GitHub\Droid\sekksi2016\Consultor\Funcionando\principal_consultor.nxc"
11	259	7	#line 259 "C:\Users\luan\Documents\GitHub\Droid\sekksi2016\Consultor\Funcionando\principal_consultor.nxc"
11	260	7		mov __signed_stack_001lerSensor, __lerSensor_7qG2_i_7qG2_000
11	259	9	#line 259 "C:\Users\luan\Documents\GitHub\Droid\sekksi2016\Consultor\Funcionando\principal_consultor.nxc"
11	259	9	#line 259 "C:\Users\luan\Documents\GitHub\Droid\sekksi2016\Consultor\Funcionando\principal_consultor.nxc"
11	260	9		set __D0lerSensor, 11
11	259	12	#line 259 "C:\Users\luan\Documents\GitHub\Droid\sekksi2016\Consultor\Funcionando\principal_consultor.nxc"
11	260	12		cmp 0, __D0lerSensor, __signed_stack_001lerSensor, __D0lerSensor
11	259	16	#line 259 "C:\Users\luan\Documents\GitHub\Droid\sekksi2016\Consultor\Funcionando\principal_consultor.nxc"
11	260	16		brtst 4, __ASM_Label_606, __D0lerSensor
11	259	19	#line 259 "C:\Users\luan\Documents\GitHub\Droid\sekksi2016\Consultor\Funcionando\principal_consultor.nxc"
11	260	19		jmp __ASM_Label_607
11	259	21	#line 259 "C:\Users\luan\Documents\GitHub\Droid\sekksi2016\Consultor\Funcionando\principal_consultor.nxc"
11	260	21		add __lerSensor_7qG2_i_7qG2_000, __lerSensor_7qG2_i_7qG2_000, __constVal1
11	260	25	#line 260 "C:\Users\luan\Documents\GitHub\Droid\sekksi2016\Consultor\Funcionando\principal_consultor.nxc"
11	261	25		jmp __ASM_Label_605
11	262	27	#line 262 "C:\Users\luan\Documents\GitHub\Droid\sekksi2016\Consultor\Funcionando\principal_consultor.nxc"
11	263	27		getin __lerSensor_7qG2_aux_7qG2_000, __lerSensor_7qG2_sensor_7qG2_000, 2
11	262	31	#line 262 "C:\Users\luan\Documents\GitHub\Droid\sekksi2016\Consultor\Funcionando\principal_consultor.nxc"
11	262	31	#line 262 "C:\Users\luan\Documents\GitHub\Droid\sekksi2016\Consultor\Funcionando\principal_consultor.nxc"
11	263	31	#line 263 "C:\Users\luan\Documents\GitHub\Droid\sekksi2016\Consultor\Funcionando\principal_consultor.nxc"
11	264	31		set __lerSensor_7qG2_j_7qG2_000, 0
11	263	34	#line 263 "C:\Users\luan\Documents\GitHub\Droid\sekksi2016\Consultor\Funcionando\principal_consultor.nxc"
11	263	34	#line 263 "C:\Users\luan\Documents\GitHub\Droid\sekksi2016\Consultor\Funcionando\principal_consultor.nxc"
11	263	34	#line 263 "C:\Users\luan\Documents\GitHub\Droid\sekksi2016\Consultor\Funcionando\principal_consultor.nxc"
11	264	34		mov __signed_stack_001lerSensor, __lerSensor_7qG2_aux_7qG2_000
11	263	36	#line 263 "C:\Users\luan\Documents\GitHub\Droid\sekksi2016\Consultor\Funcionando\principal_consultor.nxc"
11	263	36	#line 263 "C:\Users\luan\Documents\GitHub\Droid\sekksi2016\Consultor\Funcionando\principal_consultor.nxc"
11	264	36		mov __signed_stack_002lerSensor, __lerSensor_7qG2_j_7qG2_000
11	263	38	#line 263 "C:\Users\luan\Documents\GitHub\Droid\sekksi2016\Consultor\Funcionando\principal_consultor.nxc"
11	263	38	#line 263 "C:\Users\luan\Documents\GitHub\Droid\sekksi2016\Consultor\Funcionando\principal_consultor.nxc"
11	264	38		index __D0lerSensor, __lerSensor_7qG2_leitura_7qG2_000, __signed_stack_002lerSensor
11	263	42	#line 263 "C:\Users\luan\Documents\GitHub\Droid\sekksi2016\Consultor\Funcionando\principal_consultor.nxc"
11	263	42	#line 263 "C:\Users\luan\Documents\GitHub\Droid\sekksi2016\Consultor\Funcionando\principal_consultor.nxc"
11	264	42		cmp 0, __D0lerSensor, __signed_stack_001lerSensor, __D0lerSensor
11	263	46	#line 263 "C:\Users\luan\Documents\GitHub\Droid\sekksi2016\Consultor\Funcionando\principal_consultor.nxc"
11	264	46		brtst 4, __ASM_Label_620, __D0lerSensor
11	263	49	#line 263 "C:\Users\luan\Documents\GitHub\Droid\sekksi2016\Consultor\Funcionando\principal_consultor.nxc"
11	264	49		mov __signed_stack_001lerSensor, __lerSensor_7qG2_j_7qG2_000
11	263	51	#line 263 "C:\Users\luan\Documents\GitHub\Droid\sekksi2016\Consultor\Funcionando\principal_consultor.nxc"
11	263	51	#line 263 "C:\Users\luan\Documents\GitHub\Droid\sekksi2016\Consultor\Funcionando\principal_consultor.nxc"
11	264	51		mov __D0lerSensor, __lerSensor_7qG2_i_7qG2_000
11	263	53	#line 263 "C:\Users\luan\Documents\GitHub\Droid\sekksi2016\Consultor\Funcionando\principal_consultor.nxc"
11	264	53		cmp 0, __D0lerSensor, __signed_stack_001lerSensor, __D0lerSensor
11	264	57	#line 264 "C:\Users\luan\Documents\GitHub\Droid\sekksi2016\Consultor\Funcionando\principal_consultor.nxc"
11	265	57		brtst 4, __ASM_Label_618, __D0lerSensor
11	265	60	#line 265 "C:\Users\luan\Documents\GitHub\Droid\sekksi2016\Consultor\Funcionando\principal_consultor.nxc"
11	266	60		add __lerSensor_7qG2_j_7qG2_000, __lerSensor_7qG2_j_7qG2_000, __constVal1
11	265	64	#line 265 "C:\Users\luan\Documents\GitHub\Droid\sekksi2016\Consultor\Funcionando\principal_consultor.nxc"
11	267	64	#line 267 "C:\Users\luan\Documents\GitHub\Droid\sekksi2016\Consultor\Funcionando\principal_consultor.nxc"
11	268	64		jmp __ASM_Label_617
11	267	66	#line 267 "C:\Users\luan\Documents\GitHub\Droid\sekksi2016\Consultor\Funcionando\principal_consultor.nxc"
11	267	66	#line 267 "C:\Users\luan\Documents\GitHub\Droid\sekksi2016\Consultor\Funcionando\principal_consultor.nxc"
11	268	66		mov __signed_stack_001lerSensor, __lerSensor_7qG2_j_7qG2_000
11	267	68	#line 267 "C:\Users\luan\Documents\GitHub\Droid\sekksi2016\Consultor\Funcionando\principal_consultor.nxc"
11	267	68	#line 267 "C:\Users\luan\Documents\GitHub\Droid\sekksi2016\Consultor\Funcionando\principal_consultor.nxc"
11	268	68		mov __D0lerSensor, __lerSensor_7qG2_i_7qG2_000
11	267	70	#line 267 "C:\Users\luan\Documents\GitHub\Droid\sekksi2016\Consultor\Funcionando\principal_consultor.nxc"
11	268	70		cmp 0, __D0lerSensor, __signed_stack_001lerSensor, __D0lerSensor
11	268	74	#line 268 "C:\Users\luan\Documents\GitHub\Droid\sekksi2016\Consultor\Funcionando\principal_consultor.nxc"
11	269	74		brtst 4, __ASM_Label_625, __D0lerSensor
11	268	77	#line 268 "C:\Users\luan\Documents\GitHub\Droid\sekksi2016\Consultor\Funcionando\principal_consultor.nxc"
11	269	77		mov __lerSensor_7qG2_k_7qG2_000, __lerSensor_7qG2_i_7qG2_000
11	268	79	#line 268 "C:\Users\luan\Documents\GitHub\Droid\sekksi2016\Consultor\Funcionando\principal_consultor.nxc"
11	268	79	#line 268 "C:\Users\luan\Documents\GitHub\Droid\sekksi2016\Consultor\Funcionando\principal_consultor.nxc"
11	269	79		mov __signed_stack_001lerSensor, __lerSensor_7qG2_k_7qG2_000
11	268	81	#line 268 "C:\Users\luan\Documents\GitHub\Droid\sekksi2016\Consultor\Funcionando\principal_consultor.nxc"
11	268	81	#line 268 "C:\Users\luan\Documents\GitHub\Droid\sekksi2016\Consultor\Funcionando\principal_consultor.nxc"
11	269	81		mov __D0lerSensor, __lerSensor_7qG2_j_7qG2_000
11	268	83	#line 268 "C:\Users\luan\Documents\GitHub\Droid\sekksi2016\Consultor\Funcionando\principal_consultor.nxc"
11	269	83		cmp 1, __D0lerSensor, __signed_stack_001lerSensor, __D0lerSensor
11	268	87	#line 268 "C:\Users\luan\Documents\GitHub\Droid\sekksi2016\Consultor\Funcionando\principal_consultor.nxc"
11	269	87		brtst 4, __ASM_Label_627, __D0lerSensor
11	268	90	#line 268 "C:\Users\luan\Documents\GitHub\Droid\sekksi2016\Consultor\Funcionando\principal_consultor.nxc"
11	269	90		jmp __ASM_Label_628
11	268	92	#line 268 "C:\Users\luan\Documents\GitHub\Droid\sekksi2016\Consultor\Funcionando\principal_consultor.nxc"
11	269	92		sub __lerSensor_7qG2_k_7qG2_000, __lerSensor_7qG2_k_7qG2_000, __constVal1
11	269	96	#line 269 "C:\Users\luan\Documents\GitHub\Droid\sekksi2016\Consultor\Funcionando\principal_consultor.nxc"
11	270	96		jmp __ASM_Label_626
11	269	98	#line 269 "C:\Users\luan\Documents\GitHub\Droid\sekksi2016\Consultor\Funcionando\principal_consultor.nxc"
11	270	98		mov __signed_stack_001lerSensor, __lerSensor_7qG2_k_7qG2_000
11	269	100	#line 269 "C:\Users\luan\Documents\GitHub\Droid\sekksi2016\Consultor\Funcionando\principal_consultor.nxc"
11	269	100	#line 269 "C:\Users\luan\Documents\GitHub\Droid\sekksi2016\Consultor\Funcionando\principal_consultor.nxc"
11	270	100		mov __signed_stack_002lerSensor, __lerSensor_7qG2_k_7qG2_000
11	269	102	#line 269 "C:\Users\luan\Documents\GitHub\Droid\sekksi2016\Consultor\Funcionando\principal_consultor.nxc"
11	269	102	#line 269 "C:\Users\luan\Documents\GitHub\Droid\sekksi2016\Consultor\Funcionando\principal_consultor.nxc"
11	270	102		set __D0lerSensor, 1
11	269	105	#line 269 "C:\Users\luan\Documents\GitHub\Droid\sekksi2016\Consultor\Funcionando\principal_consultor.nxc"
11	270	105		sub __signed_stack_002lerSensor, __signed_stack_002lerSensor, __D0lerSensor
11	269	109	#line 269 "C:\Users\luan\Documents\GitHub\Droid\sekksi2016\Consultor\Funcionando\principal_consultor.nxc"
11	269	109	#line 269 "C:\Users\luan\Documents\GitHub\Droid\sekksi2016\Consultor\Funcionando\principal_consultor.nxc"
11	270	109		index __D0lerSensor, __lerSensor_7qG2_leitura_7qG2_000, __signed_stack_002lerSensor
11	269	113	#line 269 "C:\Users\luan\Documents\GitHub\Droid\sekksi2016\Consultor\Funcionando\principal_consultor.nxc"
11	270	113	#line 270 "C:\Users\luan\Documents\GitHub\Droid\sekksi2016\Consultor\Funcionando\principal_consultor.nxc"
11	271	113		replace __lerSensor_7qG2_leitura_7qG2_000, __lerSensor_7qG2_leitura_7qG2_000, __signed_stack_001lerSensor, __D0lerSensor
11	270	118	#line 270 "C:\Users\luan\Documents\GitHub\Droid\sekksi2016\Consultor\Funcionando\principal_consultor.nxc"
11	271	118	#line 271 "C:\Users\luan\Documents\GitHub\Droid\sekksi2016\Consultor\Funcionando\principal_consultor.nxc"
11	272	118		jmp __ASM_Label_629
11	271	120	#line 271 "C:\Users\luan\Documents\GitHub\Droid\sekksi2016\Consultor\Funcionando\principal_consultor.nxc"
11	271	120	#line 271 "C:\Users\luan\Documents\GitHub\Droid\sekksi2016\Consultor\Funcionando\principal_consultor.nxc"
11	272	120		mov __signed_stack_001lerSensor, __lerSensor_7qG2_j_7qG2_000
11	271	122	#line 271 "C:\Users\luan\Documents\GitHub\Droid\sekksi2016\Consultor\Funcionando\principal_consultor.nxc"
11	272	122	#line 272 "C:\Users\luan\Documents\GitHub\Droid\sekksi2016\Consultor\Funcionando\principal_consultor.nxc"
11	273	122		mov __D0lerSensor, __lerSensor_7qG2_aux_7qG2_000
11	272	124	#line 272 "C:\Users\luan\Documents\GitHub\Droid\sekksi2016\Consultor\Funcionando\principal_consultor.nxc"
11	273	124		replace __lerSensor_7qG2_leitura_7qG2_000, __lerSensor_7qG2_leitura_7qG2_000, __signed_stack_001lerSensor, __D0lerSensor
11	272	129	#line 272 "C:\Users\luan\Documents\GitHub\Droid\sekksi2016\Consultor\Funcionando\principal_consultor.nxc"
11	274	129	#line 274 "C:\Users\luan\Documents\GitHub\Droid\sekksi2016\Consultor\Funcionando\principal_consultor.nxc"
11	275	129		jmp __ASM_Label_644
11	274	131	#line 274 "C:\Users\luan\Documents\GitHub\Droid\sekksi2016\Consultor\Funcionando\principal_consultor.nxc"
11	275	131		mov __signed_stack_001lerSensor, __lerSensor_7qG2_i_7qG2_000
11	274	133	#line 274 "C:\Users\luan\Documents\GitHub\Droid\sekksi2016\Consultor\Funcionando\principal_consultor.nxc"
11	275	133	#line 275 "C:\Users\luan\Documents\GitHub\Droid\sekksi2016\Consultor\Funcionando\principal_consultor.nxc"
11	276	133		mov __D0lerSensor, __lerSensor_7qG2_aux_7qG2_000
11	275	135	#line 275 "C:\Users\luan\Documents\GitHub\Droid\sekksi2016\Consultor\Funcionando\principal_consultor.nxc"
11	276	135		replace __lerSensor_7qG2_leitura_7qG2_000, __lerSensor_7qG2_leitura_7qG2_000, __signed_stack_001lerSensor, __D0lerSensor
11	275	140	#line 275 "C:\Users\luan\Documents\GitHub\Droid\sekksi2016\Consultor\Funcionando\principal_consultor.nxc"
11	278	140	#line 278 "C:\Users\luan\Documents\GitHub\Droid\sekksi2016\Consultor\Funcionando\principal_consultor.nxc"
11	278	140	#line 278 "C:\Users\luan\Documents\GitHub\Droid\sekksi2016\Consultor\Funcionando\principal_consultor.nxc"
11	279	140		jmp __ASM_Label_608
11	278	142	#line 278 "C:\Users\luan\Documents\GitHub\Droid\sekksi2016\Consultor\Funcionando\principal_consultor.nxc"
11	278	142	#line 278 "C:\Users\luan\Documents\GitHub\Droid\sekksi2016\Consultor\Funcionando\principal_consultor.nxc"
11	279	142		set __signed_stack_001lerSensor, 5
11	278	145	#line 278 "C:\Users\luan\Documents\GitHub\Droid\sekksi2016\Consultor\Funcionando\principal_consultor.nxc"
11	278	145	#line 278 "C:\Users\luan\Documents\GitHub\Droid\sekksi2016\Consultor\Funcionando\principal_consultor.nxc"
11	279	145		index __D0lerSensor, __lerSensor_7qG2_leitura_7qG2_000, __signed_stack_001lerSensor
11	278	149	#line 278 "C:\Users\luan\Documents\GitHub\Droid\sekksi2016\Consultor\Funcionando\principal_consultor.nxc"
11	279	149	#line 279 "C:\Users\luan\Documents\GitHub\Droid\sekksi2016\Consultor\Funcionando\principal_consultor.nxc"
11	280	149		subret __lerSensor_return
11	279	151	#line 279 "C:\Users\luan\Documents\GitHub\Droid\sekksi2016\Consultor\Funcionando\principal_consultor.nxc"
11	281	151	#line 281 "C:\Users\luan\Documents\GitHub\Droid\sekksi2016\Consultor\Funcionando\principal_consultor.nxc"
11	282	151		subret __lerSensor_return
12	285	0	#line 285 "C:\Users\luan\Documents\GitHub\Droid\sekksi2016\Consultor\Funcionando\principal_consultor.nxc"
12	286	0		mov __D0PegaBoneco, __constValNeg30
12	286	2	#line 286 "C:\Users\luan\Documents\GitHub\Droid\sekksi2016\Consultor\Funcionando\principal_consultor.nxc"
12	287	2	#pragma macro 7
12	287	2		setout __constVal0, 2, __D0PegaBoneco, 1, __constVal3, 8, __constVal0, 6, __constVal32, 7, __constVal0, 5, __constVal0, 10, __constVal96, 11, __constVal32, 12, __constVal32, 0, __constVal63
12	5867	25	#line 5867 "C:\Users\luan\Documents\GitHub\Droid\sekksi2016\Consultor\Funcionando\principal_consultor.nxc"
12	286	25	#line 286 "C:\Users\luan\Documents\GitHub\Droid\sekksi2016\Consultor\Funcionando\principal_consultor.nxc"
12	288	25	#line 288 "C:\Users\luan\Documents\GitHub\Droid\sekksi2016\Consultor\Funcionando\principal_consultor.nxc"
12	289	25		getout __PegaBoneco_7qG2_tc_7qG2_000, __constVal0, 4
12	288	29	#line 288 "C:\Users\luan\Documents\GitHub\Droid\sekksi2016\Consultor\Funcionando\principal_consultor.nxc"
12	288	29	#line 288 "C:\Users\luan\Documents\GitHub\Droid\sekksi2016\Consultor\Funcionando\principal_consultor.nxc"
12	290	29	#line 290 "C:\Users\luan\Documents\GitHub\Droid\sekksi2016\Consultor\Funcionando\principal_consultor.nxc"
12	291	29		set __Wait_7qG2_ms_7qG2_000_inline_PegaBoneco, 200
12	290	32	#line 290 "C:\Users\luan\Documents\GitHub\Droid\sekksi2016\Consultor\Funcionando\principal_consultor.nxc"
12	8551	32	#line 8551 "NXCDefs.h"
12	8552	32		wait2 NA, __Wait_7qG2_ms_7qG2_000_inline_PegaBoneco
12	8551	35	#line 8551 "NXCDefs.h"
12	291	35	#line 291 "C:\Users\luan\Documents\GitHub\Droid\sekksi2016\Consultor\Funcionando\principal_consultor.nxc"
12	292	35	#line 292 "C:\Users\luan\Documents\GitHub\Droid\sekksi2016\Consultor\Funcionando\principal_consultor.nxc"
12	293	35		mov __PegaBoneco_7qG2_old_tc_7qG2_000, __PegaBoneco_7qG2_tc_7qG2_000
12	292	37	#line 292 "C:\Users\luan\Documents\GitHub\Droid\sekksi2016\Consultor\Funcionando\principal_consultor.nxc"
12	292	37	#line 292 "C:\Users\luan\Documents\GitHub\Droid\sekksi2016\Consultor\Funcionando\principal_consultor.nxc"
12	293	37	#line 293 "C:\Users\luan\Documents\GitHub\Droid\sekksi2016\Consultor\Funcionando\principal_consultor.nxc"
12	294	37		getout __PegaBoneco_7qG2_tc_7qG2_000, __constVal0, 4
12	293	41	#line 293 "C:\Users\luan\Documents\GitHub\Droid\sekksi2016\Consultor\Funcionando\principal_consultor.nxc"
12	293	41	#line 293 "C:\Users\luan\Documents\GitHub\Droid\sekksi2016\Consultor\Funcionando\principal_consultor.nxc"
12	293	41	#line 293 "C:\Users\luan\Documents\GitHub\Droid\sekksi2016\Consultor\Funcionando\principal_consultor.nxc"
12	294	41		mov __signed_stack_001PegaBoneco, __PegaBoneco_7qG2_tc_7qG2_000
12	293	43	#line 293 "C:\Users\luan\Documents\GitHub\Droid\sekksi2016\Consultor\Funcionando\principal_consultor.nxc"
12	294	43	#line 294 "C:\Users\luan\Documents\GitHub\Droid\sekksi2016\Consultor\Funcionando\principal_consultor.nxc"
12	295	43		mov __D0PegaBoneco, __constValNeg118
12	294	45	#line 294 "C:\Users\luan\Documents\GitHub\Droid\sekksi2016\Consultor\Funcionando\principal_consultor.nxc"
12	295	45		cmp 0, __D0PegaBoneco, __signed_stack_001PegaBoneco, __D0PegaBoneco
12	295	49	#line 295 "C:\Users\luan\Documents\GitHub\Droid\sekksi2016\Consultor\Funcionando\principal_consultor.nxc"
12	296	49		brtst 4, __ASM_Label_669, __D0PegaBoneco
12	295	52	#line 295 "C:\Users\luan\Documents\GitHub\Droid\sekksi2016\Consultor\Funcionando\principal_consultor.nxc"
12	296	52		set __D0PegaBoneco, 0
12	297	55	#line 297 "C:\Users\luan\Documents\GitHub\Droid\sekksi2016\Consultor\Funcionando\principal_consultor.nxc"
12	298	55	#pragma macro 7
12	298	55		setout __constVal0, 2, __D0PegaBoneco, 1, __constVal3, 8, __constVal0, 6, __constVal32, 7, __constVal0, 5, __constVal0, 10, __constVal96, 11, __constVal32, 12, __constVal32, 0, __constVal63
12	5920	78	#line 5920 "C:\Users\luan\Documents\GitHub\Droid\sekksi2016\Consultor\Funcionando\principal_consultor.nxc"
12	297	78	#line 297 "C:\Users\luan\Documents\GitHub\Droid\sekksi2016\Consultor\Funcionando\principal_consultor.nxc"
12	298	78	#line 298 "C:\Users\luan\Documents\GitHub\Droid\sekksi2016\Consultor\Funcionando\principal_consultor.nxc"
12	299	78		subcall VoltaGarra, __VoltaGarra_return
12	298	80	#line 298 "C:\Users\luan\Documents\GitHub\Droid\sekksi2016\Consultor\Funcionando\principal_consultor.nxc"
12	299	80	#line 299 "C:\Users\luan\Documents\GitHub\Droid\sekksi2016\Consultor\Funcionando\principal_consultor.nxc"
12	300	80		set __D0PegaBoneco, 0
12	299	83	#line 299 "C:\Users\luan\Documents\GitHub\Droid\sekksi2016\Consultor\Funcionando\principal_consultor.nxc"
12	300	83		subret __PegaBoneco_return
12	299	85	#line 299 "C:\Users\luan\Documents\GitHub\Droid\sekksi2016\Consultor\Funcionando\principal_consultor.nxc"
12	300	85	#line 300 "C:\Users\luan\Documents\GitHub\Droid\sekksi2016\Consultor\Funcionando\principal_consultor.nxc"
12	300	85	#line 300 "C:\Users\luan\Documents\GitHub\Droid\sekksi2016\Consultor\Funcionando\principal_consultor.nxc"
12	301	85		mov __signed_stack_001PegaBoneco, __PegaBoneco_7qG2_tc_7qG2_000
12	300	87	#line 300 "C:\Users\luan\Documents\GitHub\Droid\sekksi2016\Consultor\Funcionando\principal_consultor.nxc"
12	300	87	#line 300 "C:\Users\luan\Documents\GitHub\Droid\sekksi2016\Consultor\Funcionando\principal_consultor.nxc"
12	301	87		mov __D0PegaBoneco, __PegaBoneco_7qG2_old_tc_7qG2_000
12	300	89	#line 300 "C:\Users\luan\Documents\GitHub\Droid\sekksi2016\Consultor\Funcionando\principal_consultor.nxc"
12	301	89		cmp 5, __D0PegaBoneco, __signed_stack_001PegaBoneco, __D0PegaBoneco
12	302	93	#line 302 "C:\Users\luan\Documents\GitHub\Droid\sekksi2016\Consultor\Funcionando\principal_consultor.nxc"
12	303	93		brtst 4, __ASM_Label_660, __D0PegaBoneco
12	302	96	#line 302 "C:\Users\luan\Documents\GitHub\Droid\sekksi2016\Consultor\Funcionando\principal_consultor.nxc"
12	303	96		jmp __ASM_Label_659
12	302	98	#line 302 "C:\Users\luan\Documents\GitHub\Droid\sekksi2016\Consultor\Funcionando\principal_consultor.nxc"
12	302	98	#line 302 "C:\Users\luan\Documents\GitHub\Droid\sekksi2016\Consultor\Funcionando\principal_consultor.nxc"
12	302	98	#line 302 "C:\Users\luan\Documents\GitHub\Droid\sekksi2016\Consultor\Funcionando\principal_consultor.nxc"
12	303	98		set __D0PegaBoneco, 0
12	304	101	#line 304 "C:\Users\luan\Documents\GitHub\Droid\sekksi2016\Consultor\Funcionando\principal_consultor.nxc"
12	305	101	#pragma macro 7
12	305	101		setout __constVal0, 2, __D0PegaBoneco, 1, __constVal3, 8, __constVal0, 6, __constVal32, 7, __constVal0, 5, __constVal0, 10, __constVal96, 11, __constVal32, 12, __constVal32, 0, __constVal63
12	5954	124	#line 5954 "C:\Users\luan\Documents\GitHub\Droid\sekksi2016\Consultor\Funcionando\principal_consultor.nxc"
12	304	124	#line 304 "C:\Users\luan\Documents\GitHub\Droid\sekksi2016\Consultor\Funcionando\principal_consultor.nxc"
12	305	124	#line 305 "C:\Users\luan\Documents\GitHub\Droid\sekksi2016\Consultor\Funcionando\principal_consultor.nxc"
12	306	124		set __D0PegaBoneco, 1
12	305	127	#line 305 "C:\Users\luan\Documents\GitHub\Droid\sekksi2016\Consultor\Funcionando\principal_consultor.nxc"
12	306	127		subret __PegaBoneco_return
12	305	129	#line 305 "C:\Users\luan\Documents\GitHub\Droid\sekksi2016\Consultor\Funcionando\principal_consultor.nxc"
12	307	129	#line 307 "C:\Users\luan\Documents\GitHub\Droid\sekksi2016\Consultor\Funcionando\principal_consultor.nxc"
12	308	129		subret __PegaBoneco_return
13	311	0	#line 311 "C:\Users\luan\Documents\GitHub\Droid\sekksi2016\Consultor\Funcionando\principal_consultor.nxc"
13	312	0		set __D0VoltaGarra, 30
13	312	3	#line 312 "C:\Users\luan\Documents\GitHub\Droid\sekksi2016\Consultor\Funcionando\principal_consultor.nxc"
13	313	3	#pragma macro 7
13	313	3		setout __constVal0, 2, __D0VoltaGarra, 1, __constVal3, 8, __constVal0, 6, __constVal32, 7, __constVal0, 5, __constVal0, 10, __constVal96, 11, __constVal32, 12, __constVal32, 0, __constVal63
13	5977	26	#line 5977 "C:\Users\luan\Documents\GitHub\Droid\sekksi2016\Consultor\Funcionando\principal_consultor.nxc"
13	312	26	#line 312 "C:\Users\luan\Documents\GitHub\Droid\sekksi2016\Consultor\Funcionando\principal_consultor.nxc"
13	313	26	#line 313 "C:\Users\luan\Documents\GitHub\Droid\sekksi2016\Consultor\Funcionando\principal_consultor.nxc"
13	314	26		getout __VoltaGarra_7qG2_tc_7qG2_000, __constVal0, 4
13	313	30	#line 313 "C:\Users\luan\Documents\GitHub\Droid\sekksi2016\Consultor\Funcionando\principal_consultor.nxc"
13	313	30	#line 313 "C:\Users\luan\Documents\GitHub\Droid\sekksi2016\Consultor\Funcionando\principal_consultor.nxc"
13	315	30	#line 315 "C:\Users\luan\Documents\GitHub\Droid\sekksi2016\Consultor\Funcionando\principal_consultor.nxc"
13	316	30		set __Wait_7qG2_ms_7qG2_000_inline_VoltaGarra, 200
13	315	33	#line 315 "C:\Users\luan\Documents\GitHub\Droid\sekksi2016\Consultor\Funcionando\principal_consultor.nxc"
13	8551	33	#line 8551 "NXCDefs.h"
13	8552	33		wait2 NA, __Wait_7qG2_ms_7qG2_000_inline_VoltaGarra
13	8551	36	#line 8551 "NXCDefs.h"
13	316	36	#line 316 "C:\Users\luan\Documents\GitHub\Droid\sekksi2016\Consultor\Funcionando\principal_consultor.nxc"
13	317	36	#line 317 "C:\Users\luan\Documents\GitHub\Droid\sekksi2016\Consultor\Funcionando\principal_consultor.nxc"
13	318	36		mov __VoltaGarra_7qG2_old_tc_7qG2_000, __VoltaGarra_7qG2_tc_7qG2_000
13	317	38	#line 317 "C:\Users\luan\Documents\GitHub\Droid\sekksi2016\Consultor\Funcionando\principal_consultor.nxc"
13	317	38	#line 317 "C:\Users\luan\Documents\GitHub\Droid\sekksi2016\Consultor\Funcionando\principal_consultor.nxc"
13	318	38	#line 318 "C:\Users\luan\Documents\GitHub\Droid\sekksi2016\Consultor\Funcionando\principal_consultor.nxc"
13	319	38		getout __VoltaGarra_7qG2_tc_7qG2_000, __constVal0, 4
13	318	42	#line 318 "C:\Users\luan\Documents\GitHub\Droid\sekksi2016\Consultor\Funcionando\principal_consultor.nxc"
13	318	42	#line 318 "C:\Users\luan\Documents\GitHub\Droid\sekksi2016\Consultor\Funcionando\principal_consultor.nxc"
13	318	42	#line 318 "C:\Users\luan\Documents\GitHub\Droid\sekksi2016\Consultor\Funcionando\principal_consultor.nxc"
13	319	42		mov __signed_stack_001VoltaGarra, __VoltaGarra_7qG2_tc_7qG2_000
13	318	44	#line 318 "C:\Users\luan\Documents\GitHub\Droid\sekksi2016\Consultor\Funcionando\principal_consultor.nxc"
13	318	44	#line 318 "C:\Users\luan\Documents\GitHub\Droid\sekksi2016\Consultor\Funcionando\principal_consultor.nxc"
13	319	44		mov __D0VoltaGarra, __VoltaGarra_7qG2_old_tc_7qG2_000
13	318	46	#line 318 "C:\Users\luan\Documents\GitHub\Droid\sekksi2016\Consultor\Funcionando\principal_consultor.nxc"
13	319	46		cmp 5, __D0VoltaGarra, __signed_stack_001VoltaGarra, __D0VoltaGarra
13	320	50	#line 320 "C:\Users\luan\Documents\GitHub\Droid\sekksi2016\Consultor\Funcionando\principal_consultor.nxc"
13	321	50		brtst 4, __ASM_Label_685, __D0VoltaGarra
13	320	53	#line 320 "C:\Users\luan\Documents\GitHub\Droid\sekksi2016\Consultor\Funcionando\principal_consultor.nxc"
13	321	53		jmp __ASM_Label_684
13	320	55	#line 320 "C:\Users\luan\Documents\GitHub\Droid\sekksi2016\Consultor\Funcionando\principal_consultor.nxc"
13	320	55	#line 320 "C:\Users\luan\Documents\GitHub\Droid\sekksi2016\Consultor\Funcionando\principal_consultor.nxc"
13	320	55	#line 320 "C:\Users\luan\Documents\GitHub\Droid\sekksi2016\Consultor\Funcionando\principal_consultor.nxc"
13	321	55		set __D0VoltaGarra, 0
13	321	58	#line 321 "C:\Users\luan\Documents\GitHub\Droid\sekksi2016\Consultor\Funcionando\principal_consultor.nxc"
13	322	58	#pragma macro 7
13	322	58		setout __constVal0, 2, __D0VoltaGarra, 1, __constVal3, 8, __constVal0, 6, __constVal32, 7, __constVal0, 5, __constVal0, 10, __constVal96, 11, __constVal32, 12, __constVal32, 0, __constVal63
13	6035	81	#line 6035 "C:\Users\luan\Documents\GitHub\Droid\sekksi2016\Consultor\Funcionando\principal_consultor.nxc"
13	321	81	#line 321 "C:\Users\luan\Documents\GitHub\Droid\sekksi2016\Consultor\Funcionando\principal_consultor.nxc"
13	325	81	#line 325 "C:\Users\luan\Documents\GitHub\Droid\sekksi2016\Consultor\Funcionando\principal_consultor.nxc"
13	326	81		subret __VoltaGarra_return
14	328	0	#line 328 "C:\Users\luan\Documents\GitHub\Droid\sekksi2016\Consultor\Funcionando\principal_consultor.nxc"
14	329	0		set __RecebeBoneco_7qG2_sinInicial_7qG2_000, 0
14	328	3	#line 328 "C:\Users\luan\Documents\GitHub\Droid\sekksi2016\Consultor\Funcionando\principal_consultor.nxc"
14	330	3	#line 330 "C:\Users\luan\Documents\GitHub\Droid\sekksi2016\Consultor\Funcionando\principal_consultor.nxc"
14	331	3	#pragma macro 9
14	331	3		acquire __MRMutex
14	331	4		mov __MRArgs.QueueID, __constVal2
14	331	6		mov __MRArgs.Remove, __constVal1
14	331	8		set __RRNTmpVal, 0
14	331	11		syscall 27, __MRArgs
14	331	14		unflatten __RRNTmpVal, __RRNErr, __MRArgs.Message, __RRNTmpVal
14	331	19		mov __RecebeBoneco_7qG2_sinInicial_7qG2_000, __RRNTmpVal
14	331	21		mov __D0RecebeBoneco, __MRArgs.Result
14	331	24		release __MRMutex
14	6052	25	#line 6052 "C:\Users\luan\Documents\GitHub\Droid\sekksi2016\Consultor\Funcionando\principal_consultor.nxc"
14	330	25	#line 330 "C:\Users\luan\Documents\GitHub\Droid\sekksi2016\Consultor\Funcionando\principal_consultor.nxc"
14	330	25	#line 330 "C:\Users\luan\Documents\GitHub\Droid\sekksi2016\Consultor\Funcionando\principal_consultor.nxc"
14	334	25	#line 334 "C:\Users\luan\Documents\GitHub\Droid\sekksi2016\Consultor\Funcionando\principal_consultor.nxc"
14	335	25		set __Wait_7qG2_ms_7qG2_000_inline_RecebeBoneco, 30
14	334	28	#line 334 "C:\Users\luan\Documents\GitHub\Droid\sekksi2016\Consultor\Funcionando\principal_consultor.nxc"
14	8551	28	#line 8551 "NXCDefs.h"
14	8552	28		wait2 NA, __Wait_7qG2_ms_7qG2_000_inline_RecebeBoneco
14	8551	31	#line 8551 "NXCDefs.h"
14	336	31	#line 336 "C:\Users\luan\Documents\GitHub\Droid\sekksi2016\Consultor\Funcionando\principal_consultor.nxc"
14	336	31	#line 336 "C:\Users\luan\Documents\GitHub\Droid\sekksi2016\Consultor\Funcionando\principal_consultor.nxc"
14	337	31		mov __signed_stack_001RecebeBoneco, __RecebeBoneco_7qG2_sinInicial_7qG2_000
14	336	33	#line 336 "C:\Users\luan\Documents\GitHub\Droid\sekksi2016\Consultor\Funcionando\principal_consultor.nxc"
14	336	33	#line 336 "C:\Users\luan\Documents\GitHub\Droid\sekksi2016\Consultor\Funcionando\principal_consultor.nxc"
14	337	33		set __D0RecebeBoneco, 0
14	336	36	#line 336 "C:\Users\luan\Documents\GitHub\Droid\sekksi2016\Consultor\Funcionando\principal_consultor.nxc"
14	337	36		cmp 4, __D0RecebeBoneco, __signed_stack_001RecebeBoneco, __D0RecebeBoneco
14	337	40	#line 337 "C:\Users\luan\Documents\GitHub\Droid\sekksi2016\Consultor\Funcionando\principal_consultor.nxc"
14	338	40		brtst 4, __ASM_Label_699, __D0RecebeBoneco
14	337	43	#line 337 "C:\Users\luan\Documents\GitHub\Droid\sekksi2016\Consultor\Funcionando\principal_consultor.nxc"
14	338	43		jmp __ASM_Label_698
14	337	45	#line 337 "C:\Users\luan\Documents\GitHub\Droid\sekksi2016\Consultor\Funcionando\principal_consultor.nxc"
14	337	45	#line 337 "C:\Users\luan\Documents\GitHub\Droid\sekksi2016\Consultor\Funcionando\principal_consultor.nxc"
14	337	45	#line 337 "C:\Users\luan\Documents\GitHub\Droid\sekksi2016\Consultor\Funcionando\principal_consultor.nxc"
14	338	45	#pragma macro 14
14	338	45		acquire __RemoteMutex
14	338	46		mov __SRSTmpBuf, __DCMessageWritePacket
14	338	48		replace __SRSTmpBuf, __SRSTmpBuf, __constVal2, __constVal1
14	338	53		replace __SRSTmpBuf, __SRSTmpBuf, __constVal3, __constVal5
14	338	58		mov __SRSTmpLongVal, __constVal5
14	338	60		flatten __SRSFlattenBuf, __SRSTmpLongVal
14	338	63		arrbuild __SRSSendBuf, __SRSTmpBuf, __SRSFlattenBuf
14	338	68		acquire __CBTWMutex
14	338	69		mov __CBTWArgs.Connection, __constVal0
14	338	71		mov __CBTWArgs.Buffer, __SRSSendBuf
14	338	73		syscall 29, __CBTWArgs
14	338	76		mov __D0RecebeBoneco, __CBTWArgs.Result
14	338	79		release __CBTWMutex
14	338	80		release __RemoteMutex
14	6087	81	#line 6087 "C:\Users\luan\Documents\GitHub\Droid\sekksi2016\Consultor\Funcionando\principal_consultor.nxc"
14	337	81	#line 337 "C:\Users\luan\Documents\GitHub\Droid\sekksi2016\Consultor\Funcionando\principal_consultor.nxc"
14	337	81	#line 337 "C:\Users\luan\Documents\GitHub\Droid\sekksi2016\Consultor\Funcionando\principal_consultor.nxc"
14	338	81	#line 338 "C:\Users\luan\Documents\GitHub\Droid\sekksi2016\Consultor\Funcionando\principal_consultor.nxc"
14	339	81		set __Wait_7qG2_ms_7qG2_000_inline_RecebeBoneco, 50
14	338	84	#line 338 "C:\Users\luan\Documents\GitHub\Droid\sekksi2016\Consultor\Funcionando\principal_consultor.nxc"
14	8551	84	#line 8551 "NXCDefs.h"
14	8552	84		wait2 NA, __Wait_7qG2_ms_7qG2_000_inline_RecebeBoneco
14	8551	87	#line 8551 "NXCDefs.h"
14	339	87	#line 339 "C:\Users\luan\Documents\GitHub\Droid\sekksi2016\Consultor\Funcionando\principal_consultor.nxc"
14	339	87	#line 339 "C:\Users\luan\Documents\GitHub\Droid\sekksi2016\Consultor\Funcionando\principal_consultor.nxc"
14	340	87		mov __signed_stack_001RecebeBoneco, __RecebeBoneco_7qG2_sinInicial_7qG2_000
14	339	89	#line 339 "C:\Users\luan\Documents\GitHub\Droid\sekksi2016\Consultor\Funcionando\principal_consultor.nxc"
14	340	89	#line 340 "C:\Users\luan\Documents\GitHub\Droid\sekksi2016\Consultor\Funcionando\principal_consultor.nxc"
14	341	89		set __D0RecebeBoneco, 12
14	340	92	#line 340 "C:\Users\luan\Documents\GitHub\Droid\sekksi2016\Consultor\Funcionando\principal_consultor.nxc"
14	341	92		cmp 4, __D0RecebeBoneco, __signed_stack_001RecebeBoneco, __D0RecebeBoneco
14	340	96	#line 340 "C:\Users\luan\Documents\GitHub\Droid\sekksi2016\Consultor\Funcionando\principal_consultor.nxc"
14	341	96		brtst 4, __ASM_Label_708, __D0RecebeBoneco
14	341	99	#line 341 "C:\Users\luan\Documents\GitHub\Droid\sekksi2016\Consultor\Funcionando\principal_consultor.nxc"
14	342	99		set __D0RecebeBoneco, 12
14	341	102	#line 341 "C:\Users\luan\Documents\GitHub\Droid\sekksi2016\Consultor\Funcionando\principal_consultor.nxc"
14	342	102		subret __RecebeBoneco_return
14	341	104	#line 341 "C:\Users\luan\Documents\GitHub\Droid\sekksi2016\Consultor\Funcionando\principal_consultor.nxc"
14	341	104	#line 341 "C:\Users\luan\Documents\GitHub\Droid\sekksi2016\Consultor\Funcionando\principal_consultor.nxc"
14	342	104		jmp __ASM_Label_711
14	341	106	#line 341 "C:\Users\luan\Documents\GitHub\Droid\sekksi2016\Consultor\Funcionando\principal_consultor.nxc"
14	342	106		mov __signed_stack_001RecebeBoneco, __RecebeBoneco_7qG2_sinInicial_7qG2_000
14	341	108	#line 341 "C:\Users\luan\Documents\GitHub\Droid\sekksi2016\Consultor\Funcionando\principal_consultor.nxc"
14	342	108	#line 342 "C:\Users\luan\Documents\GitHub\Droid\sekksi2016\Consultor\Funcionando\principal_consultor.nxc"
14	343	108		set __D0RecebeBoneco, 4
14	342	111	#line 342 "C:\Users\luan\Documents\GitHub\Droid\sekksi2016\Consultor\Funcionando\principal_consultor.nxc"
14	343	111		cmp 4, __D0RecebeBoneco, __signed_stack_001RecebeBoneco, __D0RecebeBoneco
14	342	115	#line 342 "C:\Users\luan\Documents\GitHub\Droid\sekksi2016\Consultor\Funcionando\principal_consultor.nxc"
14	343	115		brtst 4, __ASM_Label_714, __D0RecebeBoneco
14	343	118	#line 343 "C:\Users\luan\Documents\GitHub\Droid\sekksi2016\Consultor\Funcionando\principal_consultor.nxc"
14	344	118		set __D0RecebeBoneco, 4
14	343	121	#line 343 "C:\Users\luan\Documents\GitHub\Droid\sekksi2016\Consultor\Funcionando\principal_consultor.nxc"
14	344	121		subret __RecebeBoneco_return
14	343	123	#line 343 "C:\Users\luan\Documents\GitHub\Droid\sekksi2016\Consultor\Funcionando\principal_consultor.nxc"
14	347	123	#line 347 "C:\Users\luan\Documents\GitHub\Droid\sekksi2016\Consultor\Funcionando\principal_consultor.nxc"
14	347	123	#line 347 "C:\Users\luan\Documents\GitHub\Droid\sekksi2016\Consultor\Funcionando\principal_consultor.nxc"
14	347	123	#line 347 "C:\Users\luan\Documents\GitHub\Droid\sekksi2016\Consultor\Funcionando\principal_consultor.nxc"
14	348	123		subret __RecebeBoneco_return
15	351	0	#line 351 "C:\Users\luan\Documents\GitHub\Droid\sekksi2016\Consultor\Funcionando\principal_consultor.nxc"
15	352	0		set __lerSensor_7qG2_sensor_7qG2_000, 2
15	351	3	#line 351 "C:\Users\luan\Documents\GitHub\Droid\sekksi2016\Consultor\Funcionando\principal_consultor.nxc"
15	353	3	#line 353 "C:\Users\luan\Documents\GitHub\Droid\sekksi2016\Consultor\Funcionando\principal_consultor.nxc"
15	354	3		subcall lerSensor, __lerSensor_return
15	353	5	#line 353 "C:\Users\luan\Documents\GitHub\Droid\sekksi2016\Consultor\Funcionando\principal_consultor.nxc"
15	354	5		mov __CorBoneco_7qG2_leitura_7qG2_000, __D0lerSensor
15	353	7	#line 353 "C:\Users\luan\Documents\GitHub\Droid\sekksi2016\Consultor\Funcionando\principal_consultor.nxc"
15	353	7	#line 353 "C:\Users\luan\Documents\GitHub\Droid\sekksi2016\Consultor\Funcionando\principal_consultor.nxc"
15	353	7	#line 353 "C:\Users\luan\Documents\GitHub\Droid\sekksi2016\Consultor\Funcionando\principal_consultor.nxc"
15	354	7		mov __signed_stack_001CorBoneco, __CorBoneco_7qG2_leitura_7qG2_000
15	353	9	#line 353 "C:\Users\luan\Documents\GitHub\Droid\sekksi2016\Consultor\Funcionando\principal_consultor.nxc"
15	353	9	#line 353 "C:\Users\luan\Documents\GitHub\Droid\sekksi2016\Consultor\Funcionando\principal_consultor.nxc"
15	354	9		set __D0CorBoneco, 630
15	353	12	#line 353 "C:\Users\luan\Documents\GitHub\Droid\sekksi2016\Consultor\Funcionando\principal_consultor.nxc"
15	354	12		cmp 0, __D0CorBoneco, __signed_stack_001CorBoneco, __D0CorBoneco
15	353	16	#line 353 "C:\Users\luan\Documents\GitHub\Droid\sekksi2016\Consultor\Funcionando\principal_consultor.nxc"
15	354	16		brtst 4, __ASM_Label_722, __D0CorBoneco
15	353	19	#line 353 "C:\Users\luan\Documents\GitHub\Droid\sekksi2016\Consultor\Funcionando\principal_consultor.nxc"
15	354	19		mov __signed_stack_001CorBoneco, __CorBoneco_7qG2_leitura_7qG2_000
15	353	21	#line 353 "C:\Users\luan\Documents\GitHub\Droid\sekksi2016\Consultor\Funcionando\principal_consultor.nxc"
15	353	21	#line 353 "C:\Users\luan\Documents\GitHub\Droid\sekksi2016\Consultor\Funcionando\principal_consultor.nxc"
15	354	21		set __D0CorBoneco, 290
15	353	24	#line 353 "C:\Users\luan\Documents\GitHub\Droid\sekksi2016\Consultor\Funcionando\principal_consultor.nxc"
15	354	24		cmp 1, __D0CorBoneco, __signed_stack_001CorBoneco, __D0CorBoneco
15	354	28	#line 354 "C:\Users\luan\Documents\GitHub\Droid\sekksi2016\Consultor\Funcionando\principal_consultor.nxc"
15	355	28		brtst 4, __ASM_Label_727, __D0CorBoneco
15	355	31	#line 355 "C:\Users\luan\Documents\GitHub\Droid\sekksi2016\Consultor\Funcionando\principal_consultor.nxc"
15	356	31		set __D0CorBoneco, 4
15	355	34	#line 355 "C:\Users\luan\Documents\GitHub\Droid\sekksi2016\Consultor\Funcionando\principal_consultor.nxc"
15	356	34		subret __CorBoneco_return
15	355	36	#line 355 "C:\Users\luan\Documents\GitHub\Droid\sekksi2016\Consultor\Funcionando\principal_consultor.nxc"
15	355	36	#line 355 "C:\Users\luan\Documents\GitHub\Droid\sekksi2016\Consultor\Funcionando\principal_consultor.nxc"
15	355	36	#line 355 "C:\Users\luan\Documents\GitHub\Droid\sekksi2016\Consultor\Funcionando\principal_consultor.nxc"
15	356	36		mov __signed_stack_001CorBoneco, __CorBoneco_7qG2_leitura_7qG2_000
15	355	38	#line 355 "C:\Users\luan\Documents\GitHub\Droid\sekksi2016\Consultor\Funcionando\principal_consultor.nxc"
15	355	38	#line 355 "C:\Users\luan\Documents\GitHub\Droid\sekksi2016\Consultor\Funcionando\principal_consultor.nxc"
15	356	38		set __D0CorBoneco, 150
15	355	41	#line 355 "C:\Users\luan\Documents\GitHub\Droid\sekksi2016\Consultor\Funcionando\principal_consultor.nxc"
15	356	41		cmp 0, __D0CorBoneco, __signed_stack_001CorBoneco, __D0CorBoneco
15	355	45	#line 355 "C:\Users\luan\Documents\GitHub\Droid\sekksi2016\Consultor\Funcionando\principal_consultor.nxc"
15	356	45		brtst 4, __ASM_Label_731, __D0CorBoneco
15	355	48	#line 355 "C:\Users\luan\Documents\GitHub\Droid\sekksi2016\Consultor\Funcionando\principal_consultor.nxc"
15	356	48		mov __signed_stack_001CorBoneco, __CorBoneco_7qG2_leitura_7qG2_000
15	355	50	#line 355 "C:\Users\luan\Documents\GitHub\Droid\sekksi2016\Consultor\Funcionando\principal_consultor.nxc"
15	355	50	#line 355 "C:\Users\luan\Documents\GitHub\Droid\sekksi2016\Consultor\Funcionando\principal_consultor.nxc"
15	356	50		set __D0CorBoneco, 55
15	355	53	#line 355 "C:\Users\luan\Documents\GitHub\Droid\sekksi2016\Consultor\Funcionando\principal_consultor.nxc"
15	356	53		cmp 1, __D0CorBoneco, __signed_stack_001CorBoneco, __D0CorBoneco
15	356	57	#line 356 "C:\Users\luan\Documents\GitHub\Droid\sekksi2016\Consultor\Funcionando\principal_consultor.nxc"
15	357	57		brtst 4, __ASM_Label_736, __D0CorBoneco
15	357	60	#line 357 "C:\Users\luan\Documents\GitHub\Droid\sekksi2016\Consultor\Funcionando\principal_consultor.nxc"
15	358	60		set __D0CorBoneco, 12
15	357	63	#line 357 "C:\Users\luan\Documents\GitHub\Droid\sekksi2016\Consultor\Funcionando\principal_consultor.nxc"
15	358	63		subret __CorBoneco_return
15	357	65	#line 357 "C:\Users\luan\Documents\GitHub\Droid\sekksi2016\Consultor\Funcionando\principal_consultor.nxc"
15	357	65	#line 357 "C:\Users\luan\Documents\GitHub\Droid\sekksi2016\Consultor\Funcionando\principal_consultor.nxc"
15	357	65	#line 357 "C:\Users\luan\Documents\GitHub\Droid\sekksi2016\Consultor\Funcionando\principal_consultor.nxc"
15	358	65		mov __signed_stack_001CorBoneco, __CorBoneco_7qG2_leitura_7qG2_000
15	357	67	#line 357 "C:\Users\luan\Documents\GitHub\Droid\sekksi2016\Consultor\Funcionando\principal_consultor.nxc"
15	357	67	#line 357 "C:\Users\luan\Documents\GitHub\Droid\sekksi2016\Consultor\Funcionando\principal_consultor.nxc"
15	358	67		set __D0CorBoneco, 260
15	357	70	#line 357 "C:\Users\luan\Documents\GitHub\Droid\sekksi2016\Consultor\Funcionando\principal_consultor.nxc"
15	358	70		cmp 0, __D0CorBoneco, __signed_stack_001CorBoneco, __D0CorBoneco
15	357	74	#line 357 "C:\Users\luan\Documents\GitHub\Droid\sekksi2016\Consultor\Funcionando\principal_consultor.nxc"
15	358	74		brtst 4, __ASM_Label_740, __D0CorBoneco
15	357	77	#line 357 "C:\Users\luan\Documents\GitHub\Droid\sekksi2016\Consultor\Funcionando\principal_consultor.nxc"
15	358	77		mov __signed_stack_001CorBoneco, __CorBoneco_7qG2_leitura_7qG2_000
15	357	79	#line 357 "C:\Users\luan\Documents\GitHub\Droid\sekksi2016\Consultor\Funcionando\principal_consultor.nxc"
15	357	79	#line 357 "C:\Users\luan\Documents\GitHub\Droid\sekksi2016\Consultor\Funcionando\principal_consultor.nxc"
15	358	79		set __D0CorBoneco, 185
15	357	82	#line 357 "C:\Users\luan\Documents\GitHub\Droid\sekksi2016\Consultor\Funcionando\principal_consultor.nxc"
15	358	82		cmp 1, __D0CorBoneco, __signed_stack_001CorBoneco, __D0CorBoneco
15	358	86	#line 358 "C:\Users\luan\Documents\GitHub\Droid\sekksi2016\Consultor\Funcionando\principal_consultor.nxc"
15	359	86		brtst 4, __ASM_Label_745, __D0CorBoneco
15	359	89	#line 359 "C:\Users\luan\Documents\GitHub\Droid\sekksi2016\Consultor\Funcionando\principal_consultor.nxc"
15	360	89		mov __D0CorBoneco, __constValNeg1
15	359	91	#line 359 "C:\Users\luan\Documents\GitHub\Droid\sekksi2016\Consultor\Funcionando\principal_consultor.nxc"
15	360	91		subret __CorBoneco_return
15	359	93	#line 359 "C:\Users\luan\Documents\GitHub\Droid\sekksi2016\Consultor\Funcionando\principal_consultor.nxc"
15	361	93	#line 361 "C:\Users\luan\Documents\GitHub\Droid\sekksi2016\Consultor\Funcionando\principal_consultor.nxc"
15	361	93	#line 361 "C:\Users\luan\Documents\GitHub\Droid\sekksi2016\Consultor\Funcionando\principal_consultor.nxc"
15	362	93		subret __CorBoneco_return
16	363	0	#line 363 "C:\Users\luan\Documents\GitHub\Droid\sekksi2016\Consultor\Funcionando\principal_consultor.nxc"
16	364	0		mov __MandaPara_7qG2_passei_7qG2_000, __constValNeg2
16	363	2	#line 363 "C:\Users\luan\Documents\GitHub\Droid\sekksi2016\Consultor\Funcionando\principal_consultor.nxc"
16	364	2	#line 364 "C:\Users\luan\Documents\GitHub\Droid\sekksi2016\Consultor\Funcionando\principal_consultor.nxc"
16	365	2	#pragma macro 14
16	365	2		acquire __RemoteMutex
16	365	3		mov __SRSTmpBuf, __DCMessageWritePacket
16	365	5		replace __SRSTmpBuf, __SRSTmpBuf, __constVal2, __constVal1
16	365	10		replace __SRSTmpBuf, __SRSTmpBuf, __constVal3, __constVal5
16	365	15		mov __SRSTmpLongVal, __constVal0
16	365	17		flatten __SRSFlattenBuf, __SRSTmpLongVal
16	365	20		arrbuild __SRSSendBuf, __SRSTmpBuf, __SRSFlattenBuf
16	365	25		acquire __CBTWMutex
16	365	26		mov __CBTWArgs.Connection, __constVal0
16	365	28		mov __CBTWArgs.Buffer, __SRSSendBuf
16	365	30		syscall 29, __CBTWArgs
16	365	33		mov __D0MandaPara, __CBTWArgs.Result
16	365	36		release __CBTWMutex
16	365	37		release __RemoteMutex
16	6291	38	#line 6291 "C:\Users\luan\Documents\GitHub\Droid\sekksi2016\Consultor\Funcionando\principal_consultor.nxc"
16	364	38	#line 364 "C:\Users\luan\Documents\GitHub\Droid\sekksi2016\Consultor\Funcionando\principal_consultor.nxc"
16	364	38	#line 364 "C:\Users\luan\Documents\GitHub\Droid\sekksi2016\Consultor\Funcionando\principal_consultor.nxc"
16	365	38	#line 365 "C:\Users\luan\Documents\GitHub\Droid\sekksi2016\Consultor\Funcionando\principal_consultor.nxc"
16	366	38	#pragma macro 9
16	366	38		acquire __MRMutex
16	366	39		mov __MRArgs.QueueID, __constVal2
16	366	41		mov __MRArgs.Remove, __constVal1
16	366	43		set __RRNTmpVal, 0
16	366	46		syscall 27, __MRArgs
16	366	49		unflatten __RRNTmpVal, __RRNErr, __MRArgs.Message, __RRNTmpVal
16	366	54		mov __MandaPara_7qG2_passei_7qG2_000, __RRNTmpVal
16	366	56		mov __D0MandaPara, __MRArgs.Result
16	366	59		release __MRMutex
16	6295	60	#line 6295 "C:\Users\luan\Documents\GitHub\Droid\sekksi2016\Consultor\Funcionando\principal_consultor.nxc"
16	365	60	#line 365 "C:\Users\luan\Documents\GitHub\Droid\sekksi2016\Consultor\Funcionando\principal_consultor.nxc"
16	365	60	#line 365 "C:\Users\luan\Documents\GitHub\Droid\sekksi2016\Consultor\Funcionando\principal_consultor.nxc"
16	366	60	#line 366 "C:\Users\luan\Documents\GitHub\Droid\sekksi2016\Consultor\Funcionando\principal_consultor.nxc"
16	367	60		set __Wait_7qG2_ms_7qG2_000_inline_MandaPara, 30
16	366	63	#line 366 "C:\Users\luan\Documents\GitHub\Droid\sekksi2016\Consultor\Funcionando\principal_consultor.nxc"
16	8551	63	#line 8551 "NXCDefs.h"
16	8552	63		wait2 NA, __Wait_7qG2_ms_7qG2_000_inline_MandaPara
16	8551	66	#line 8551 "NXCDefs.h"
16	367	66	#line 367 "C:\Users\luan\Documents\GitHub\Droid\sekksi2016\Consultor\Funcionando\principal_consultor.nxc"
16	367	66	#line 367 "C:\Users\luan\Documents\GitHub\Droid\sekksi2016\Consultor\Funcionando\principal_consultor.nxc"
16	368	66		mov __signed_stack_001MandaPara, __MandaPara_7qG2_passei_7qG2_000
16	367	68	#line 367 "C:\Users\luan\Documents\GitHub\Droid\sekksi2016\Consultor\Funcionando\principal_consultor.nxc"
16	367	68	#line 367 "C:\Users\luan\Documents\GitHub\Droid\sekksi2016\Consultor\Funcionando\principal_consultor.nxc"
16	368	68		set __D0MandaPara, 0
16	367	71	#line 367 "C:\Users\luan\Documents\GitHub\Droid\sekksi2016\Consultor\Funcionando\principal_consultor.nxc"
16	368	71		cmp 5, __D0MandaPara, __signed_stack_001MandaPara, __D0MandaPara
16	368	75	#line 368 "C:\Users\luan\Documents\GitHub\Droid\sekksi2016\Consultor\Funcionando\principal_consultor.nxc"
16	369	75		brtst 4, __ASM_Label_751, __D0MandaPara
16	368	78	#line 368 "C:\Users\luan\Documents\GitHub\Droid\sekksi2016\Consultor\Funcionando\principal_consultor.nxc"
16	369	78		jmp __ASM_Label_750
16	368	80	#line 368 "C:\Users\luan\Documents\GitHub\Droid\sekksi2016\Consultor\Funcionando\principal_consultor.nxc"
16	368	80	#line 368 "C:\Users\luan\Documents\GitHub\Droid\sekksi2016\Consultor\Funcionando\principal_consultor.nxc"
16	370	80	#line 370 "C:\Users\luan\Documents\GitHub\Droid\sekksi2016\Consultor\Funcionando\principal_consultor.nxc"
16	371	80		subret __MandaPara_return
17	373	0	#line 373 "C:\Users\luan\Documents\GitHub\Droid\sekksi2016\Consultor\Funcionando\principal_consultor.nxc"
17	374	0		set __Rejeitar_7qG2_passei_7qG2_000, 0
17	373	3	#line 373 "C:\Users\luan\Documents\GitHub\Droid\sekksi2016\Consultor\Funcionando\principal_consultor.nxc"
17	374	3	#line 374 "C:\Users\luan\Documents\GitHub\Droid\sekksi2016\Consultor\Funcionando\principal_consultor.nxc"
17	375	3	#pragma macro 14
17	375	3		acquire __RemoteMutex
17	375	4		mov __SRSTmpBuf, __DCMessageWritePacket
17	375	6		replace __SRSTmpBuf, __SRSTmpBuf, __constVal2, __constVal1
17	375	11		replace __SRSTmpBuf, __SRSTmpBuf, __constVal3, __constVal5
17	375	16		mov __SRSTmpLongVal, __constVal7
17	375	18		flatten __SRSFlattenBuf, __SRSTmpLongVal
17	375	21		arrbuild __SRSSendBuf, __SRSTmpBuf, __SRSFlattenBuf
17	375	26		acquire __CBTWMutex
17	375	27		mov __CBTWArgs.Connection, __constVal0
17	375	29		mov __CBTWArgs.Buffer, __SRSSendBuf
17	375	31		syscall 29, __CBTWArgs
17	375	34		mov __D0Rejeitar, __CBTWArgs.Result
17	375	37		release __CBTWMutex
17	375	38		release __RemoteMutex
17	6344	39	#line 6344 "C:\Users\luan\Documents\GitHub\Droid\sekksi2016\Consultor\Funcionando\principal_consultor.nxc"
17	374	39	#line 374 "C:\Users\luan\Documents\GitHub\Droid\sekksi2016\Consultor\Funcionando\principal_consultor.nxc"
17	374	39	#line 374 "C:\Users\luan\Documents\GitHub\Droid\sekksi2016\Consultor\Funcionando\principal_consultor.nxc"
17	375	39	#line 375 "C:\Users\luan\Documents\GitHub\Droid\sekksi2016\Consultor\Funcionando\principal_consultor.nxc"
17	376	39	#pragma macro 9
17	376	39		acquire __MRMutex
17	376	40		mov __MRArgs.QueueID, __constVal2
17	376	42		mov __MRArgs.Remove, __constVal1
17	376	44		set __RRNTmpVal, 0
17	376	47		syscall 27, __MRArgs
17	376	50		unflatten __RRNTmpVal, __RRNErr, __MRArgs.Message, __RRNTmpVal
17	376	55		mov __Rejeitar_7qG2_passei_7qG2_000, __RRNTmpVal
17	376	57		mov __D0Rejeitar, __MRArgs.Result
17	376	60		release __MRMutex
17	6348	61	#line 6348 "C:\Users\luan\Documents\GitHub\Droid\sekksi2016\Consultor\Funcionando\principal_consultor.nxc"
17	375	61	#line 375 "C:\Users\luan\Documents\GitHub\Droid\sekksi2016\Consultor\Funcionando\principal_consultor.nxc"
17	375	61	#line 375 "C:\Users\luan\Documents\GitHub\Droid\sekksi2016\Consultor\Funcionando\principal_consultor.nxc"
17	376	61	#line 376 "C:\Users\luan\Documents\GitHub\Droid\sekksi2016\Consultor\Funcionando\principal_consultor.nxc"
17	377	61		set __Wait_7qG2_ms_7qG2_000_inline_Rejeitar, 30
17	376	64	#line 376 "C:\Users\luan\Documents\GitHub\Droid\sekksi2016\Consultor\Funcionando\principal_consultor.nxc"
17	8551	64	#line 8551 "NXCDefs.h"
17	8552	64		wait2 NA, __Wait_7qG2_ms_7qG2_000_inline_Rejeitar
17	8551	67	#line 8551 "NXCDefs.h"
17	377	67	#line 377 "C:\Users\luan\Documents\GitHub\Droid\sekksi2016\Consultor\Funcionando\principal_consultor.nxc"
17	377	67	#line 377 "C:\Users\luan\Documents\GitHub\Droid\sekksi2016\Consultor\Funcionando\principal_consultor.nxc"
17	378	67		mov __signed_stack_001Rejeitar, __Rejeitar_7qG2_passei_7qG2_000
17	377	69	#line 377 "C:\Users\luan\Documents\GitHub\Droid\sekksi2016\Consultor\Funcionando\principal_consultor.nxc"
17	377	69	#line 377 "C:\Users\luan\Documents\GitHub\Droid\sekksi2016\Consultor\Funcionando\principal_consultor.nxc"
17	378	69		set __D0Rejeitar, 7
17	377	72	#line 377 "C:\Users\luan\Documents\GitHub\Droid\sekksi2016\Consultor\Funcionando\principal_consultor.nxc"
17	378	72		cmp 5, __D0Rejeitar, __signed_stack_001Rejeitar, __D0Rejeitar
17	379	76	#line 379 "C:\Users\luan\Documents\GitHub\Droid\sekksi2016\Consultor\Funcionando\principal_consultor.nxc"
17	380	76		brtst 4, __ASM_Label_759, __D0Rejeitar
17	379	79	#line 379 "C:\Users\luan\Documents\GitHub\Droid\sekksi2016\Consultor\Funcionando\principal_consultor.nxc"
17	380	79		jmp __ASM_Label_758
17	379	81	#line 379 "C:\Users\luan\Documents\GitHub\Droid\sekksi2016\Consultor\Funcionando\principal_consultor.nxc"
17	379	81	#line 379 "C:\Users\luan\Documents\GitHub\Droid\sekksi2016\Consultor\Funcionando\principal_consultor.nxc"
17	381	81	#line 381 "C:\Users\luan\Documents\GitHub\Droid\sekksi2016\Consultor\Funcionando\principal_consultor.nxc"
17	382	81		subcall VoltaAoNormal, __VoltaAoNormal_return
17	381	83	#line 381 "C:\Users\luan\Documents\GitHub\Droid\sekksi2016\Consultor\Funcionando\principal_consultor.nxc"
17	382	83	#line 382 "C:\Users\luan\Documents\GitHub\Droid\sekksi2016\Consultor\Funcionando\principal_consultor.nxc"
17	383	83	#pragma macro 14
17	383	83		acquire __RemoteMutex
17	383	84		mov __SRSTmpBuf, __DCMessageWritePacket
17	383	86		replace __SRSTmpBuf, __SRSTmpBuf, __constVal2, __constVal1
17	383	91		replace __SRSTmpBuf, __SRSTmpBuf, __constVal3, __constVal5
17	383	96		mov __SRSTmpLongVal, __constVal8
17	383	98		flatten __SRSFlattenBuf, __SRSTmpLongVal
17	383	101		arrbuild __SRSSendBuf, __SRSTmpBuf, __SRSFlattenBuf
17	383	106		acquire __CBTWMutex
17	383	107		mov __CBTWArgs.Connection, __constVal0
17	383	109		mov __CBTWArgs.Buffer, __SRSSendBuf
17	383	111		syscall 29, __CBTWArgs
17	383	114		mov __D0Rejeitar, __CBTWArgs.Result
17	383	117		release __CBTWMutex
17	383	118		release __RemoteMutex
17	6387	119	#line 6387 "C:\Users\luan\Documents\GitHub\Droid\sekksi2016\Consultor\Funcionando\principal_consultor.nxc"
17	382	119	#line 382 "C:\Users\luan\Documents\GitHub\Droid\sekksi2016\Consultor\Funcionando\principal_consultor.nxc"
17	382	119	#line 382 "C:\Users\luan\Documents\GitHub\Droid\sekksi2016\Consultor\Funcionando\principal_consultor.nxc"
17	383	119	#line 383 "C:\Users\luan\Documents\GitHub\Droid\sekksi2016\Consultor\Funcionando\principal_consultor.nxc"
17	384	119	#pragma macro 9
17	384	119		acquire __MRMutex
17	384	120		mov __MRArgs.QueueID, __constVal2
17	384	122		mov __MRArgs.Remove, __constVal1
17	384	124		set __RRNTmpVal, 0
17	384	127		syscall 27, __MRArgs
17	384	130		unflatten __RRNTmpVal, __RRNErr, __MRArgs.Message, __RRNTmpVal
17	384	135		mov __Rejeitar_7qG2_passei_7qG2_000, __RRNTmpVal
17	384	137		mov __D0Rejeitar, __MRArgs.Result
17	384	140		release __MRMutex
17	6391	141	#line 6391 "C:\Users\luan\Documents\GitHub\Droid\sekksi2016\Consultor\Funcionando\principal_consultor.nxc"
17	383	141	#line 383 "C:\Users\luan\Documents\GitHub\Droid\sekksi2016\Consultor\Funcionando\principal_consultor.nxc"
17	383	141	#line 383 "C:\Users\luan\Documents\GitHub\Droid\sekksi2016\Consultor\Funcionando\principal_consultor.nxc"
17	384	141	#line 384 "C:\Users\luan\Documents\GitHub\Droid\sekksi2016\Consultor\Funcionando\principal_consultor.nxc"
17	385	141		set __Wait_7qG2_ms_7qG2_000_inline_Rejeitar, 30
17	384	144	#line 384 "C:\Users\luan\Documents\GitHub\Droid\sekksi2016\Consultor\Funcionando\principal_consultor.nxc"
17	8551	144	#line 8551 "NXCDefs.h"
17	8552	144		wait2 NA, __Wait_7qG2_ms_7qG2_000_inline_Rejeitar
17	8551	147	#line 8551 "NXCDefs.h"
17	385	147	#line 385 "C:\Users\luan\Documents\GitHub\Droid\sekksi2016\Consultor\Funcionando\principal_consultor.nxc"
17	385	147	#line 385 "C:\Users\luan\Documents\GitHub\Droid\sekksi2016\Consultor\Funcionando\principal_consultor.nxc"
17	386	147		mov __signed_stack_001Rejeitar, __Rejeitar_7qG2_passei_7qG2_000
17	385	149	#line 385 "C:\Users\luan\Documents\GitHub\Droid\sekksi2016\Consultor\Funcionando\principal_consultor.nxc"
17	385	149	#line 385 "C:\Users\luan\Documents\GitHub\Droid\sekksi2016\Consultor\Funcionando\principal_consultor.nxc"
17	386	149		set __D0Rejeitar, 8
17	385	152	#line 385 "C:\Users\luan\Documents\GitHub\Droid\sekksi2016\Consultor\Funcionando\principal_consultor.nxc"
17	386	152		cmp 5, __D0Rejeitar, __signed_stack_001Rejeitar, __D0Rejeitar
17	387	156	#line 387 "C:\Users\luan\Documents\GitHub\Droid\sekksi2016\Consultor\Funcionando\principal_consultor.nxc"
17	388	156		brtst 4, __ASM_Label_765, __D0Rejeitar
17	387	159	#line 387 "C:\Users\luan\Documents\GitHub\Droid\sekksi2016\Consultor\Funcionando\principal_consultor.nxc"
17	388	159		jmp __ASM_Label_764
17	387	161	#line 387 "C:\Users\luan\Documents\GitHub\Droid\sekksi2016\Consultor\Funcionando\principal_consultor.nxc"
17	387	161	#line 387 "C:\Users\luan\Documents\GitHub\Droid\sekksi2016\Consultor\Funcionando\principal_consultor.nxc"
17	389	161	#line 389 "C:\Users\luan\Documents\GitHub\Droid\sekksi2016\Consultor\Funcionando\principal_consultor.nxc"
17	390	161		subret __Rejeitar_return
18	394	0	#line 394 "C:\Users\luan\Documents\GitHub\Droid\sekksi2016\Consultor\Funcionando\principal_consultor.nxc"
18	395	0		set __MandaContinuar_7qG2_passei_7qG2_000, 0
18	394	3	#line 394 "C:\Users\luan\Documents\GitHub\Droid\sekksi2016\Consultor\Funcionando\principal_consultor.nxc"
18	396	3	#line 396 "C:\Users\luan\Documents\GitHub\Droid\sekksi2016\Consultor\Funcionando\principal_consultor.nxc"
18	397	3	#pragma macro 14
18	397	3		acquire __RemoteMutex
18	397	4		mov __SRSTmpBuf, __DCMessageWritePacket
18	397	6		replace __SRSTmpBuf, __SRSTmpBuf, __constVal2, __constVal1
18	397	11		replace __SRSTmpBuf, __SRSTmpBuf, __constVal3, __constVal5
18	397	16		mov __SRSTmpLongVal, __constVal6
18	397	18		flatten __SRSFlattenBuf, __SRSTmpLongVal
18	397	21		arrbuild __SRSSendBuf, __SRSTmpBuf, __SRSFlattenBuf
18	397	26		acquire __CBTWMutex
18	397	27		mov __CBTWArgs.Connection, __constVal0
18	397	29		mov __CBTWArgs.Buffer, __SRSSendBuf
18	397	31		syscall 29, __CBTWArgs
18	397	34		mov __D0MandaContinuar, __CBTWArgs.Result
18	397	37		release __CBTWMutex
18	397	38		release __RemoteMutex
18	6436	39	#line 6436 "C:\Users\luan\Documents\GitHub\Droid\sekksi2016\Consultor\Funcionando\principal_consultor.nxc"
18	396	39	#line 396 "C:\Users\luan\Documents\GitHub\Droid\sekksi2016\Consultor\Funcionando\principal_consultor.nxc"
18	396	39	#line 396 "C:\Users\luan\Documents\GitHub\Droid\sekksi2016\Consultor\Funcionando\principal_consultor.nxc"
18	397	39	#line 397 "C:\Users\luan\Documents\GitHub\Droid\sekksi2016\Consultor\Funcionando\principal_consultor.nxc"
18	398	39	#pragma macro 9
18	398	39		acquire __MRMutex
18	398	40		mov __MRArgs.QueueID, __constVal2
18	398	42		mov __MRArgs.Remove, __constVal1
18	398	44		set __RRNTmpVal, 0
18	398	47		syscall 27, __MRArgs
18	398	50		unflatten __RRNTmpVal, __RRNErr, __MRArgs.Message, __RRNTmpVal
18	398	55		mov __MandaContinuar_7qG2_passei_7qG2_000, __RRNTmpVal
18	398	57		mov __D0MandaContinuar, __MRArgs.Result
18	398	60		release __MRMutex
18	6440	61	#line 6440 "C:\Users\luan\Documents\GitHub\Droid\sekksi2016\Consultor\Funcionando\principal_consultor.nxc"
18	397	61	#line 397 "C:\Users\luan\Documents\GitHub\Droid\sekksi2016\Consultor\Funcionando\principal_consultor.nxc"
18	397	61	#line 397 "C:\Users\luan\Documents\GitHub\Droid\sekksi2016\Consultor\Funcionando\principal_consultor.nxc"
18	399	61	#line 399 "C:\Users\luan\Documents\GitHub\Droid\sekksi2016\Consultor\Funcionando\principal_consultor.nxc"
18	400	61		mov __signed_stack_001MandaContinuar, __MandaContinuar_7qG2_passei_7qG2_000
18	399	63	#line 399 "C:\Users\luan\Documents\GitHub\Droid\sekksi2016\Consultor\Funcionando\principal_consultor.nxc"
18	399	63	#line 399 "C:\Users\luan\Documents\GitHub\Droid\sekksi2016\Consultor\Funcionando\principal_consultor.nxc"
18	400	63		set __D0MandaContinuar, 6
18	399	66	#line 399 "C:\Users\luan\Documents\GitHub\Droid\sekksi2016\Consultor\Funcionando\principal_consultor.nxc"
18	400	66		cmp 5, __D0MandaContinuar, __signed_stack_001MandaContinuar, __D0MandaContinuar
18	400	70	#line 400 "C:\Users\luan\Documents\GitHub\Droid\sekksi2016\Consultor\Funcionando\principal_consultor.nxc"
18	401	70		brtst 4, __ASM_Label_773, __D0MandaContinuar
18	400	73	#line 400 "C:\Users\luan\Documents\GitHub\Droid\sekksi2016\Consultor\Funcionando\principal_consultor.nxc"
18	401	73		jmp __ASM_Label_772
18	400	75	#line 400 "C:\Users\luan\Documents\GitHub\Droid\sekksi2016\Consultor\Funcionando\principal_consultor.nxc"
18	400	75	#line 400 "C:\Users\luan\Documents\GitHub\Droid\sekksi2016\Consultor\Funcionando\principal_consultor.nxc"
18	401	75	#line 401 "C:\Users\luan\Documents\GitHub\Droid\sekksi2016\Consultor\Funcionando\principal_consultor.nxc"
18	402	75		subcall bip, __bip_return
18	401	77	#line 401 "C:\Users\luan\Documents\GitHub\Droid\sekksi2016\Consultor\Funcionando\principal_consultor.nxc"
18	402	77	#line 402 "C:\Users\luan\Documents\GitHub\Droid\sekksi2016\Consultor\Funcionando\principal_consultor.nxc"
18	403	77		subcall bip, __bip_return
18	402	79	#line 402 "C:\Users\luan\Documents\GitHub\Droid\sekksi2016\Consultor\Funcionando\principal_consultor.nxc"
18	403	79	#line 403 "C:\Users\luan\Documents\GitHub\Droid\sekksi2016\Consultor\Funcionando\principal_consultor.nxc"
18	404	79		subcall bip, __bip_return
18	403	81	#line 403 "C:\Users\luan\Documents\GitHub\Droid\sekksi2016\Consultor\Funcionando\principal_consultor.nxc"
18	405	81	#line 405 "C:\Users\luan\Documents\GitHub\Droid\sekksi2016\Consultor\Funcionando\principal_consultor.nxc"
18	406	81		subret __MandaContinuar_return
19	406	0	#line 406 "C:\Users\luan\Documents\GitHub\Droid\sekksi2016\Consultor\Funcionando\principal_consultor.nxc"
19	407	0		getout __signed_stack_001Pega, __constVal0, 4
19	406	4	#line 406 "C:\Users\luan\Documents\GitHub\Droid\sekksi2016\Consultor\Funcionando\principal_consultor.nxc"
19	406	4	#line 406 "C:\Users\luan\Documents\GitHub\Droid\sekksi2016\Consultor\Funcionando\principal_consultor.nxc"
19	407	4		set __D0Pega, 0
19	406	7	#line 406 "C:\Users\luan\Documents\GitHub\Droid\sekksi2016\Consultor\Funcionando\principal_consultor.nxc"
19	407	7		cmp 5, __D0Pega, __signed_stack_001Pega, __D0Pega
19	407	11	#line 407 "C:\Users\luan\Documents\GitHub\Droid\sekksi2016\Consultor\Funcionando\principal_consultor.nxc"
19	408	11		brtst 4, __ASM_Label_777, __D0Pega
19	408	14	#line 408 "C:\Users\luan\Documents\GitHub\Droid\sekksi2016\Consultor\Funcionando\principal_consultor.nxc"
19	409	14	#pragma macro 7
19	409	14		setout __constVal0, 0, __constVal8
19	6492	19	#line 6492 "C:\Users\luan\Documents\GitHub\Droid\sekksi2016\Consultor\Funcionando\principal_consultor.nxc"
19	408	19	#line 408 "C:\Users\luan\Documents\GitHub\Droid\sekksi2016\Consultor\Funcionando\principal_consultor.nxc"
19	409	19	#line 409 "C:\Users\luan\Documents\GitHub\Droid\sekksi2016\Consultor\Funcionando\principal_consultor.nxc"
19	410	19		jmp __ASM_Label_776
19	409	21	#line 409 "C:\Users\luan\Documents\GitHub\Droid\sekksi2016\Consultor\Funcionando\principal_consultor.nxc"
19	409	21	#line 409 "C:\Users\luan\Documents\GitHub\Droid\sekksi2016\Consultor\Funcionando\principal_consultor.nxc"
19	410	21		mov __D0Pega, __constValNeg70
19	410	23	#line 410 "C:\Users\luan\Documents\GitHub\Droid\sekksi2016\Consultor\Funcionando\principal_consultor.nxc"
19	411	23	#pragma macro 7
19	411	23		setout __constVal0, 2, __D0Pega, 1, __constVal3, 8, __constVal0, 6, __constVal32, 7, __constVal0, 5, __constVal0, 10, __constVal96, 11, __constVal32, 12, __constVal32, 0, __constVal63
19	6501	46	#line 6501 "C:\Users\luan\Documents\GitHub\Droid\sekksi2016\Consultor\Funcionando\principal_consultor.nxc"
19	410	46	#line 410 "C:\Users\luan\Documents\GitHub\Droid\sekksi2016\Consultor\Funcionando\principal_consultor.nxc"
19	410	46	#line 410 "C:\Users\luan\Documents\GitHub\Droid\sekksi2016\Consultor\Funcionando\principal_consultor.nxc"
19	411	46		getout __signed_stack_001Pega, __constVal0, 4
19	410	50	#line 410 "C:\Users\luan\Documents\GitHub\Droid\sekksi2016\Consultor\Funcionando\principal_consultor.nxc"
19	410	50	#line 410 "C:\Users\luan\Documents\GitHub\Droid\sekksi2016\Consultor\Funcionando\principal_consultor.nxc"
19	411	50		mov __D0Pega, __constValNeg77
19	410	52	#line 410 "C:\Users\luan\Documents\GitHub\Droid\sekksi2016\Consultor\Funcionando\principal_consultor.nxc"
19	411	52		cmp 1, __D0Pega, __signed_stack_001Pega, __D0Pega
19	411	56	#line 411 "C:\Users\luan\Documents\GitHub\Droid\sekksi2016\Consultor\Funcionando\principal_consultor.nxc"
19	412	56		brtst 4, __ASM_Label_783, __D0Pega
19	411	59	#line 411 "C:\Users\luan\Documents\GitHub\Droid\sekksi2016\Consultor\Funcionando\principal_consultor.nxc"
19	411	59	#line 411 "C:\Users\luan\Documents\GitHub\Droid\sekksi2016\Consultor\Funcionando\principal_consultor.nxc"
19	412	59		jmp __ASM_Label_782
19	411	61	#line 411 "C:\Users\luan\Documents\GitHub\Droid\sekksi2016\Consultor\Funcionando\principal_consultor.nxc"
19	412	61	#line 412 "C:\Users\luan\Documents\GitHub\Droid\sekksi2016\Consultor\Funcionando\principal_consultor.nxc"
19	413	61	#pragma macro 7
19	413	61		setout __constVal0, 2, __constVal0, 1, __constVal3, 8, __constVal0, 6, __constVal32, 7, __constVal0, 5, __constVal0, 10, __constVal96, 11, __constVal32, 12, __constVal32, 0, __constVal63
19	6524	84	#line 6524 "C:\Users\luan\Documents\GitHub\Droid\sekksi2016\Consultor\Funcionando\principal_consultor.nxc"
19	412	84	#line 412 "C:\Users\luan\Documents\GitHub\Droid\sekksi2016\Consultor\Funcionando\principal_consultor.nxc"
19	412	84	#line 412 "C:\Users\luan\Documents\GitHub\Droid\sekksi2016\Consultor\Funcionando\principal_consultor.nxc"
19	413	84		set __Wait_7qG2_ms_7qG2_000_inline_Pega, 200
19	412	87	#line 412 "C:\Users\luan\Documents\GitHub\Droid\sekksi2016\Consultor\Funcionando\principal_consultor.nxc"
19	8551	87	#line 8551 "NXCDefs.h"
19	8552	87		wait2 NA, __Wait_7qG2_ms_7qG2_000_inline_Pega
19	8551	90	#line 8551 "NXCDefs.h"
19	413	90	#line 413 "C:\Users\luan\Documents\GitHub\Droid\sekksi2016\Consultor\Funcionando\principal_consultor.nxc"
19	415	90	#line 415 "C:\Users\luan\Documents\GitHub\Droid\sekksi2016\Consultor\Funcionando\principal_consultor.nxc"
19	416	90		subret __Pega_return
20	431	0	#line 431 "C:\Users\luan\Documents\GitHub\Droid\sekksi2016\Consultor\Funcionando\principal_consultor.nxc"
20	432	0		getout __signed_stack_001VoltaAoNormal, __constVal0, 4
20	431	4	#line 431 "C:\Users\luan\Documents\GitHub\Droid\sekksi2016\Consultor\Funcionando\principal_consultor.nxc"
20	431	4	#line 431 "C:\Users\luan\Documents\GitHub\Droid\sekksi2016\Consultor\Funcionando\principal_consultor.nxc"
20	432	4		set __D0VoltaAoNormal, 0
20	431	7	#line 431 "C:\Users\luan\Documents\GitHub\Droid\sekksi2016\Consultor\Funcionando\principal_consultor.nxc"
20	432	7		cmp 5, __D0VoltaAoNormal, __signed_stack_001VoltaAoNormal, __D0VoltaAoNormal
20	432	11	#line 432 "C:\Users\luan\Documents\GitHub\Droid\sekksi2016\Consultor\Funcionando\principal_consultor.nxc"
20	433	11		brtst 4, __ASM_Label_805, __D0VoltaAoNormal
20	433	14	#line 433 "C:\Users\luan\Documents\GitHub\Droid\sekksi2016\Consultor\Funcionando\principal_consultor.nxc"
20	434	14	#pragma macro 7
20	434	14		setout __constVal0, 0, __constVal8
20	6640	19	#line 6640 "C:\Users\luan\Documents\GitHub\Droid\sekksi2016\Consultor\Funcionando\principal_consultor.nxc"
20	433	19	#line 433 "C:\Users\luan\Documents\GitHub\Droid\sekksi2016\Consultor\Funcionando\principal_consultor.nxc"
20	434	19	#line 434 "C:\Users\luan\Documents\GitHub\Droid\sekksi2016\Consultor\Funcionando\principal_consultor.nxc"
20	435	19		jmp __ASM_Label_804
20	434	21	#line 434 "C:\Users\luan\Documents\GitHub\Droid\sekksi2016\Consultor\Funcionando\principal_consultor.nxc"
20	434	21	#line 434 "C:\Users\luan\Documents\GitHub\Droid\sekksi2016\Consultor\Funcionando\principal_consultor.nxc"
20	435	21		set __Wait_7qG2_ms_7qG2_000_inline_VoltaAoNormal, 200
20	434	24	#line 434 "C:\Users\luan\Documents\GitHub\Droid\sekksi2016\Consultor\Funcionando\principal_consultor.nxc"
20	8551	24	#line 8551 "NXCDefs.h"
20	8552	24		wait2 NA, __Wait_7qG2_ms_7qG2_000_inline_VoltaAoNormal
20	8551	27	#line 8551 "NXCDefs.h"
20	435	27	#line 435 "C:\Users\luan\Documents\GitHub\Droid\sekksi2016\Consultor\Funcionando\principal_consultor.nxc"
20	435	27	#line 435 "C:\Users\luan\Documents\GitHub\Droid\sekksi2016\Consultor\Funcionando\principal_consultor.nxc"
20	436	27		mov __D0VoltaAoNormal, __constValNeg40
20	436	29	#line 436 "C:\Users\luan\Documents\GitHub\Droid\sekksi2016\Consultor\Funcionando\principal_consultor.nxc"
20	437	29	#pragma macro 10
20	437	29		neg __OnRev_Tmp, __D0VoltaAoNormal
20	437	32		setout __constVal0, 2, __OnRev_Tmp, 1, __constVal3, 8, __constVal0, 6, __constVal32, 7, __constVal0, 5, __constVal0, 10, __constVal96, 11, __constVal32, 12, __constVal32, 0, __constVal63
20	6661	55	#line 6661 "C:\Users\luan\Documents\GitHub\Droid\sekksi2016\Consultor\Funcionando\principal_consultor.nxc"
20	436	55	#line 436 "C:\Users\luan\Documents\GitHub\Droid\sekksi2016\Consultor\Funcionando\principal_consultor.nxc"
20	437	55	#line 437 "C:\Users\luan\Documents\GitHub\Droid\sekksi2016\Consultor\Funcionando\principal_consultor.nxc"
20	438	55		getout __VoltaAoNormal_7qG2_tc_7qG2_000, __constVal0, 4
20	437	59	#line 437 "C:\Users\luan\Documents\GitHub\Droid\sekksi2016\Consultor\Funcionando\principal_consultor.nxc"
20	437	59	#line 437 "C:\Users\luan\Documents\GitHub\Droid\sekksi2016\Consultor\Funcionando\principal_consultor.nxc"
20	438	59	#line 438 "C:\Users\luan\Documents\GitHub\Droid\sekksi2016\Consultor\Funcionando\principal_consultor.nxc"
20	439	59		set __Wait_7qG2_ms_7qG2_000_inline_VoltaAoNormal, 50
20	438	62	#line 438 "C:\Users\luan\Documents\GitHub\Droid\sekksi2016\Consultor\Funcionando\principal_consultor.nxc"
20	8551	62	#line 8551 "NXCDefs.h"
20	8552	62		wait2 NA, __Wait_7qG2_ms_7qG2_000_inline_VoltaAoNormal
20	8551	65	#line 8551 "NXCDefs.h"
20	439	65	#line 439 "C:\Users\luan\Documents\GitHub\Droid\sekksi2016\Consultor\Funcionando\principal_consultor.nxc"
20	440	65	#line 440 "C:\Users\luan\Documents\GitHub\Droid\sekksi2016\Consultor\Funcionando\principal_consultor.nxc"
20	441	65		mov __VoltaAoNormal_7qG2_tc1_7qG2_000, __VoltaAoNormal_7qG2_tc_7qG2_000
20	440	67	#line 440 "C:\Users\luan\Documents\GitHub\Droid\sekksi2016\Consultor\Funcionando\principal_consultor.nxc"
20	440	67	#line 440 "C:\Users\luan\Documents\GitHub\Droid\sekksi2016\Consultor\Funcionando\principal_consultor.nxc"
20	442	67	#line 442 "C:\Users\luan\Documents\GitHub\Droid\sekksi2016\Consultor\Funcionando\principal_consultor.nxc"
20	443	67		getout __VoltaAoNormal_7qG2_tc_7qG2_000, __constVal0, 4
20	442	71	#line 442 "C:\Users\luan\Documents\GitHub\Droid\sekksi2016\Consultor\Funcionando\principal_consultor.nxc"
20	442	71	#line 442 "C:\Users\luan\Documents\GitHub\Droid\sekksi2016\Consultor\Funcionando\principal_consultor.nxc"
20	442	71	#line 442 "C:\Users\luan\Documents\GitHub\Droid\sekksi2016\Consultor\Funcionando\principal_consultor.nxc"
20	443	71		mov __signed_stack_001VoltaAoNormal, __VoltaAoNormal_7qG2_tc1_7qG2_000
20	442	73	#line 442 "C:\Users\luan\Documents\GitHub\Droid\sekksi2016\Consultor\Funcionando\principal_consultor.nxc"
20	444	73	#line 444 "C:\Users\luan\Documents\GitHub\Droid\sekksi2016\Consultor\Funcionando\principal_consultor.nxc"
20	445	73		mov __D0VoltaAoNormal, __VoltaAoNormal_7qG2_tc_7qG2_000
20	444	75	#line 444 "C:\Users\luan\Documents\GitHub\Droid\sekksi2016\Consultor\Funcionando\principal_consultor.nxc"
20	445	75		cmp 5, __D0VoltaAoNormal, __signed_stack_001VoltaAoNormal, __D0VoltaAoNormal
20	446	79	#line 446 "C:\Users\luan\Documents\GitHub\Droid\sekksi2016\Consultor\Funcionando\principal_consultor.nxc"
20	447	79		brtst 4, __ASM_Label_815, __D0VoltaAoNormal
20	446	82	#line 446 "C:\Users\luan\Documents\GitHub\Droid\sekksi2016\Consultor\Funcionando\principal_consultor.nxc"
20	447	82		jmp __ASM_Label_814
20	446	84	#line 446 "C:\Users\luan\Documents\GitHub\Droid\sekksi2016\Consultor\Funcionando\principal_consultor.nxc"
20	446	84	#line 446 "C:\Users\luan\Documents\GitHub\Droid\sekksi2016\Consultor\Funcionando\principal_consultor.nxc"
20	447	84		subret __VoltaAoNormal_return
21	478	0	#line 478 "C:\Users\luan\Documents\GitHub\Droid\sekksi2016\Consultor\Funcionando\principal_consultor.nxc"
21	479	0		set __PlaySound_7qG2_aCode_7qG2_000, 2
21	478	3	#line 478 "C:\Users\luan\Documents\GitHub\Droid\sekksi2016\Consultor\Funcionando\principal_consultor.nxc"
21	479	3	#line 479 "C:\Users\luan\Documents\GitHub\Droid\sekksi2016\Consultor\Funcionando\principal_consultor.nxc"
21	480	3		subcall PlaySound, __PlaySound_return
21	479	5	#line 479 "C:\Users\luan\Documents\GitHub\Droid\sekksi2016\Consultor\Funcionando\principal_consultor.nxc"
21	481	5	#line 481 "C:\Users\luan\Documents\GitHub\Droid\sekksi2016\Consultor\Funcionando\principal_consultor.nxc"
21	482	5		subret __bip_return
22	482	0	#line 482 "C:\Users\luan\Documents\GitHub\Droid\sekksi2016\Consultor\Funcionando\principal_consultor.nxc"
22	483	0		subret ____initialize_global_data_return
#CLUMPS
Clump	Name	Offset	File
0	main	0	C:\Users\luan\Documents\GitHub\Droid\sekksi2016\Consultor\Funcionando\principal_consultor.nxc
1	__ResetSensorSubroutine	8	NXTDefs.h
2	__ReadLSBytes3	21	NXTDefs.h
3	PlaySound	107	NXCDefs.h
4	InicializaSensores	526	C:\Users\luan\Documents\GitHub\Droid\sekksi2016\Consultor\Funcionando\principal_consultor.nxc
5	returnUS	617	C:\Users\luan\Documents\GitHub\Droid\sekksi2016\Consultor\Funcionando\principal_consultor.nxc
6	BipBranco	697	C:\Users\luan\Documents\GitHub\Droid\sekksi2016\Consultor\Funcionando\principal_consultor.nxc
7	BipPreto	715	C:\Users\luan\Documents\GitHub\Droid\sekksi2016\Consultor\Funcionando\principal_consultor.nxc
8	BonecoAlvo	733	C:\Users\luan\Documents\GitHub\Droid\sekksi2016\Consultor\Funcionando\principal_consultor.nxc
9	consultor	770	C:\Users\luan\Documents\GitHub\Droid\sekksi2016\Consultor\Funcionando\principal_consultor.nxc
10	TemBoneco	907	C:\Users\luan\Documents\GitHub\Droid\sekksi2016\Consultor\Funcionando\principal_consultor.nxc
11	lerSensor	1037	C:\Users\luan\Documents\GitHub\Droid\sekksi2016\Consultor\Funcionando\principal_consultor.nxc
12	PegaBoneco	1190	C:\Users\luan\Documents\GitHub\Droid\sekksi2016\Consultor\Funcionando\principal_consultor.nxc
13	VoltaGarra	1321	C:\Users\luan\Documents\GitHub\Droid\sekksi2016\Consultor\Funcionando\principal_consultor.nxc
14	RecebeBoneco	1404	C:\Users\luan\Documents\GitHub\Droid\sekksi2016\Consultor\Funcionando\principal_consultor.nxc
15	CorBoneco	1529	C:\Users\luan\Documents\GitHub\Droid\sekksi2016\Consultor\Funcionando\principal_consultor.nxc
16	MandaPara	1624	C:\Users\luan\Documents\GitHub\Droid\sekksi2016\Consultor\Funcionando\principal_consultor.nxc
17	Rejeitar	1706	C:\Users\luan\Documents\GitHub\Droid\sekksi2016\Consultor\Funcionando\principal_consultor.nxc
18	MandaContinuar	1869	C:\Users\luan\Documents\GitHub\Droid\sekksi2016\Consultor\Funcionando\principal_consultor.nxc
19	Pega	1952	C:\Users\luan\Documents\GitHub\Droid\sekksi2016\Consultor\Funcionando\principal_consultor.nxc
20	VoltaAoNormal	2044	C:\Users\luan\Documents\GitHub\Droid\sekksi2016\Consultor\Funcionando\principal_consultor.nxc
21	bip	2130	C:\Users\luan\Documents\GitHub\Droid\sekksi2016\Consultor\Funcionando\principal_consultor.nxc
22	__initialize_global_data	2137	C:\Users\luan\Documents\GitHub\Droid\sekksi2016\Consultor\Funcionando\principal_consultor.nxc
