#SYMBOLS
Index	Identifier	Type	Flag	Data	Size	RefCount
0	__D0IniciaCorDoChao	6	1	0	4	12
1	__D0PlaySound	6	1	4	4	69
2	__D0executivo	6	1	8	4	4
3	__D0distanciaGiro	6	1	12	4	7
4	__D0distanciaTachoCount	6	1	16	4	4
5	__D0Rejeitar	6	1	20	4	7
6	__D0SetSensorLowspeed_inline_inicializaSensores	6	1	24	4	8
7	__DU0SetSensorLowspeed_inline_inicializaSensores	5	1	28	4	20
8	__D0ViraUmaRoda	6	1	32	4	10
9	__D0RetornaBoneco	6	1	36	4	16
10	__D0vira	6	1	40	4	34
11	__D0desligaBlue	6	1	44	4	5
12	__CBTWMutex	9	0	48	4	12
13	__SRSTmpLongVal	6	1	52	4	12
14	__RRNTmpVal	6	1	56	4	16
15	__RLSBmutex3	9	0	60	4	4
16	__MRMutex	9	0	64	4	8
17	__RemoteMutex	9	0	68	4	12
18	__D0CorDoChao	6	1	72	4	12
19	__D0DaReh	6	1	76	4	4
20	__D0ChecaParada	6	1	80	4	20
21	__SPTArgsMutex	9	0	84	4	14
22	__D0andaRetoDireita	6	1	88	4	32
23	__signed_stack_001andaRetoDireita	6	1	92	4	12
24	__signed_stack_002RetornaBoneco	6	1	96	4	2
25	__signed_stack_001vira	6	1	100	4	18
26	__signed_stack_001RetornaBoneco	6	1	104	4	8
27	__signed_stack_003PlaySound	6	1	108	4	14
28	__signed_stack_001Rejeitar	6	1	112	4	2
29	__signed_stack_001ViraUmaRoda	6	1	116	4	2
30	__Wait_7qG2_ms_7qG2_000_inline_DaReh	5	1	120	4	2
31	__Wait_7qG2_ms_7qG2_000_inline_desligaBlue	5	1	124	4	2
32	__Wait_7qG2_ms_7qG2_000_inline_RetornaBoneco	5	1	128	4	4
33	__Wait_7qG2_ms_7qG2_000_inline_iniciaBlue	5	1	132	4	2
34	__Wait_7qG2_ms_7qG2_000_inline_Rejeitar	5	1	136	4	2
35	__signed_stack_002PlaySound	6	1	140	4	14
36	__signed_stack_001desligaBlue	6	1	144	4	4
37	__signed_stack_002desligaBlue	6	1	148	4	2
38	__signed_stack_001CorDoChao	6	1	152	4	4
39	__signed_stack_002andaRetoDireita	6	1	156	4	2
40	__signed_stack_001ChecaParada	6	1	160	4	8
41	__signed_stack_001distanciaGiro	6	1	164	4	4
42	__signed_stack_001IniciaCorDoChao	6	1	168	4	4
43	__signed_stack_001PlaySound	6	1	172	4	44
44	__signed_stack_002iniciaBlue	6	1	176	4	2
45	__signed_stack_001distanciaTachoCount	6	1	180	4	2
46	__signed_stack_001iniciaBlue	6	1	184	4	2
47	__CLSRMutex3	9	0	188	4	2
48	__CLSWMutex3	9	0	192	4	2
49	__CLSCSMutex3	9	0	196	4	2
50	__RLSBmutex0	9	0	200	4	2
51	__PointOutMutex	9	0	204	4	2
52	__TextOutMutex	9	0	208	4	6
53	__CLSRMutex0	9	0	212	4	2
54	__CLSWMutex0	9	0	216	4	2
55	__CLSCSMutex0	9	0	220	4	2
56	__CLSRMutex2	9	0	224	4	2
57	__CLSWMutex2	9	0	228	4	2
58	__CLSCSMutex2	9	0	232	4	2
59	__RLSBmutex2	9	0	236	4	4
60	__Rejeitar_7qG2_passei_7qG2_000	4	1	240	2	3
61	__vira_7qG2_direcao_7qG2_000	4	1	242	2	4
62	__CorDoChao_7qG2_corEsq_7qG2_000	4	1	244	2	3
63	__vira_7qG2_angulo_7qG2_000	4	1	246	2	4
64	__andaRetoDireita_7qG2_distAndar_7qG2_000	4	1	248	2	3
65	__constVal200	4	0	250	2	3
66	__andaRetoDireita_7qG2_distParede_7qG2_000	4	1	252	2	5
67	__RetornaBoneco_7qG2_cor_7qG2_000	4	1	254	2	4
68	__constValNeg900	4	0	256	2	1
69	__ViraUmaRoda_7qG2_ang_7qG2_000	4	1	258	2	3
70	__IniciaCorDoChao_7qG2_corDir_7qG2_000	4	1	260	2	3
71	__RetornaBoneco_7qG2_passei_7qG2_000	4	1	262	2	3
72	__CorDoChao_7qG2_corDir_7qG2_000	4	1	264	2	3
73	__IniciaCorDoChao_7qG2_corEsq_7qG2_000	4	1	266	2	3
74	__distanciaGiro_7qG2_grau_7qG2_000	4	1	268	2	3
75	__andaRetoDireita_7qG2_pote_7qG2_000	4	1	270	2	4
76	__PlaySound_7qG2_aCode_7qG2_000	4	1	272	2	7
77	__andaRetoDireita_7qG2_distanciaAtual_7qG2_000	4	1	274	2	4
78	__andaRetoDireita_7qG2_potd_7qG2_000	4	1	276	2	4
79	my_tc_d	4	1	278	2	5
80	__PlaySound_7qG2_i_7qG2_001	4	1	280	2	15
81	__constVal500	4	0	282	2	1
82	__ChecaParada_7qG2_acao_7qG2_000	4	1	284	2	7
83	__constVal150	4	0	286	2	1
84	corEsq	4	0	288	2	2
85	poteGlobal	4	0	290	2	1
86	__distanciaTachoCount_7qG2_grau_7qG2_000	4	1	292	2	2
87	corDir	4	0	294	2	2
88	potdGlobal	4	0	296	2	1
89	my_tc_e	4	1	298	2	4
90	__DaReh_return	1	1	300	1	3
91	__OnRev_Tmp	2	1	301	1	4
92	__constVal1	2	0	302	1	43
93	__RetornaBoneco_return	1	1	303	1	4
94	__bip_return	1	1	304	1	3
95	__constVal32	2	0	305	1	51
96	__SetSensorMode_7qG2_port_7qG2_000_inline_SetSensorLowspeed_inline_inicializaSensores	1	1	306	1	8
97	__SetSensorMode_7qG2_mode_7qG2_000_inline_SetSensorLowspeed_inline_inicializaSensores	1	1	307	1	8
98	__ResetSensor_7qG2_port_7qG2_000_inline_SetSensorLowspeed_inline_inicializaSensores	1	1	308	1	4
99	__SetSensorType_7qG2_type_7qG2_000_inline_SetSensorLowspeed_inline_inicializaSensores	1	1	309	1	8
100	__SetSensorLowspeed_7qG2_port_7qG2_000_inline_inicializaSensores	1	1	310	1	20
101	__SetSensorLowspeed_7qG2_bIsPowered_7qG2_000_inline_inicializaSensores	1	1	311	1	8
102	__SetSensorType_7qG2_port_7qG2_000_inline_SetSensorLowspeed_inline_inicializaSensores	1	1	312	1	8
103	__constValNeg2	2	0	313	1	1
104	__constVal27	2	0	314	1	1
105	__Rejeitar_return	1	1	315	1	3
106	__CorDoChao_return	1	1	316	1	3
107	__constValNeg90	2	0	317	1	2
108	__constVal50	2	0	318	1	1
109	__ChecaParada_return	1	1	319	1	3
110	__distanciaGiro_return	1	1	320	1	5
111	__constVal0	2	1	321	1	74
112	__iniciaBlue_return	1	1	322	1	3
113	__IniciaCorDoChao_return	1	1	323	1	3
114	__inicializaSensores_return	1	1	324	1	3
115	____initialize_global_data_return	1	1	325	1	3
116	__executivo_return	1	1	326	1	3
117	__desligaBlue_return	1	1	327	1	3
118	__constVal96	2	0	328	1	17
119	__constVal63	2	0	329	1	17
120	__distanciaTachoCount_return	1	1	330	1	4
121	__Para_return	1	1	331	1	4
122	__andaRetoDireita_return	1	1	332	1	4
123	__ViraUmaRoda_return	1	1	333	1	4
124	__vira_return	1	1	334	1	4
125	__PFTmp	1	1	335	1	1
126	__constVal8	2	0	336	1	1
127	__constVal100	2	0	337	1	2
128	__RLSBytesCount0	1	1	338	1	7
129	__RLSBResult0	2	1	339	1	7
130	____ReadLSBytes0_return	1	1	340	1	3
131	__LSWriteOptions3	1	1	341	1	1
132	__constVal12	2	0	342	1	1
133	__constVal15	2	0	343	1	4
134	__constVal7	2	0	344	1	1
135	__RLSBIterations0	1	1	345	1	4
136	__constVal2	2	0	346	1	13
137	____ReadLSBytes3_return	1	1	347	1	4
138	__RLSBIterations2	1	1	348	1	4
139	__RLSBResult2	2	1	349	1	7
140	__RLSBytesCount2	1	1	350	1	8
141	____ReadLSBytes2_return	1	1	351	1	4
142	__RRNErr	1	1	352	1	4
143	__RLSBIterations3	1	1	353	1	4
144	__RLSBResult3	2	1	354	1	7
145	__RLSBytesCount3	1	1	355	1	8
146	__constVal5	2	0	356	1	6
147	__LSWriteOptions0	1	1	357	1	1
148	__PlaySound_return	1	1	358	1	3
149	__constVal6	2	0	359	1	1
150	__constVal3	2	0	360	1	24
151	__constVal4	2	0	361	1	1
152	__ResetSensorPort	1	1	362	1	6
153	__ResetSensorTmp	1	1	363	1	2
154	__LSWriteOptions2	1	1	364	1	1
155	____ResetSensorSubroutine_return	1	1	365	1	6
156	__CLSCSArgs0	8	0	3	4	4
157	__CLSCSArgs0.Result	2	1	368	1	4
158	__CLSCSArgs0.Port	1	1	369	1	4
159	__CLSCSArgs0.BytesReady	1	1	370	1	4
160	__iniciaBlue_7qG2_DADOS_BT_7qG2_000	8	0	4	12	5
161	__iniciaBlue_7qG2_DADOS_BT_7qG2_000.Result	2	1	372	1	5
162	__iniciaBlue_7qG2_DADOS_BT_7qG2_000.Action	1	1	373	1	5
163	__iniciaBlue_7qG2_DADOS_BT_7qG2_000.Name	7	0	374	4	5
164	__iniciaBlue_7qG2_DADOS_BT_7qG2_000.Name.Name_type	1	0	0	1	0
165	__iniciaBlue_7qG2_DADOS_BT_7qG2_000.ConnectionSlot	1	1	376	1	5
166	__MRArgs	8	0	4	8	20
167	__MRArgs.Result	2	1	380	1	20
168	__MRArgs.QueueID	1	1	381	1	20
169	__MRArgs.Remove	1	1	382	1	20
170	__MRArgs.Message	7	0	384	4	20
171	__MRArgs.Message.Message_type	1	0	0	1	0
172	__CBTCSArgs	8	0	2	4	3
173	__CBTCSArgs.Result	2	1	388	1	3
174	__CBTCSArgs.Connection	1	1	389	1	3
175	__CLSWArgs0	8	0	4	12	5
176	__CLSWArgs0.Result	2	1	392	1	5
177	__CLSWArgs0.Port	1	1	393	1	5
178	__CLSWArgs0.Buffer	7	0	394	4	5
179	__CLSWArgs0.Buffer.Buffer_type	1	0	0	1	0
180	__CLSWArgs0.ReturnLen	1	1	396	1	5
181	__CLSRArgs0	8	0	4	12	5
182	__CLSRArgs0.Result	2	1	400	1	5
183	__CLSRArgs0.Port	1	1	401	1	5
184	__CLSRArgs0.Buffer	7	0	402	4	5
185	__CLSRArgs0.Buffer.Buffer_type	1	0	0	1	0
186	__CLSRArgs0.BufferLen	1	1	404	1	5
187	__CBTWArgs	8	0	3	8	24
188	__CBTWArgs.Result	2	1	408	1	24
189	__CBTWArgs.Connection	1	1	409	1	24
190	__CBTWArgs.Buffer	7	0	410	4	24
191	__CBTWArgs.Buffer.Buffer_type	1	0	0	1	0
192	__CLSCSArgs2	8	0	3	4	4
193	__CLSCSArgs2.Result	2	1	412	1	4
194	__CLSCSArgs2.Port	1	1	413	1	4
195	__CLSCSArgs2.BytesReady	1	1	414	1	4
196	__CLSRArgs3	8	0	4	12	5
197	__CLSRArgs3.Result	2	1	416	1	5
198	__CLSRArgs3.Port	1	1	417	1	5
199	__CLSRArgs3.Buffer	7	0	418	4	5
200	__CLSRArgs3.Buffer.Buffer_type	1	0	0	1	0
201	__CLSRArgs3.BufferLen	1	1	420	1	5
202	__CLSWArgs3	8	0	4	12	5
203	__CLSWArgs3.Result	2	1	424	1	5
204	__CLSWArgs3.Port	1	1	425	1	5
205	__CLSWArgs3.Buffer	7	0	426	4	5
206	__CLSWArgs3.Buffer.Buffer_type	1	0	0	1	0
207	__CLSWArgs3.ReturnLen	1	1	428	1	5
208	__SPTArgs	8	0	5	8	42
209	__SPTArgs.Result	2	1	432	1	42
210	__SPTArgs.Frequency	3	1	434	2	42
211	__SPTArgs.Duration	3	1	436	2	42
212	__SPTArgs.Loop	1	1	438	1	42
213	__SPTArgs.Volume	1	1	439	1	42
214	__PointOutArgs	8	0	3	12	4
215	__PointOutArgs.Result	2	1	440	1	4
216	__PointOutArgs.Location	8	0	2	4	4
217	__PointOutArgs.Location.X	4	1	444	2	4
218	__PointOutArgs.Location.Y	4	1	446	2	4
219	__PointOutArgs.Options	5	1	448	4	4
220	__desligaBlue_7qG2_DADOS_BT_7qG2_000	8	0	4	12	5
221	__desligaBlue_7qG2_DADOS_BT_7qG2_000.Result	2	1	452	1	5
222	__desligaBlue_7qG2_DADOS_BT_7qG2_000.Action	1	1	453	1	5
223	__desligaBlue_7qG2_DADOS_BT_7qG2_000.Name	7	0	454	4	5
224	__desligaBlue_7qG2_DADOS_BT_7qG2_000.Name.Name_type	1	0	0	1	0
225	__desligaBlue_7qG2_DADOS_BT_7qG2_000.ConnectionSlot	1	1	456	1	5
226	__CLSRArgs2	8	0	4	12	5
227	__CLSRArgs2.Result	2	1	460	1	5
228	__CLSRArgs2.Port	1	1	461	1	5
229	__CLSRArgs2.Buffer	7	0	462	4	5
230	__CLSRArgs2.Buffer.Buffer_type	1	0	0	1	0
231	__CLSRArgs2.BufferLen	1	1	464	1	5
232	__CLSWArgs2	8	0	4	12	5
233	__CLSWArgs2.Result	2	1	468	1	5
234	__CLSWArgs2.Port	1	1	469	1	5
235	__CLSWArgs2.Buffer	7	0	470	4	5
236	__CLSWArgs2.Buffer.Buffer_type	1	0	0	1	0
237	__CLSWArgs2.ReturnLen	1	1	472	1	5
238	__CLSCSArgs3	8	0	3	4	4
239	__CLSCSArgs3.Result	2	1	476	1	4
240	__CLSCSArgs3.Port	1	1	477	1	4
241	__CLSCSArgs3.BytesReady	1	1	478	1	4
242	__TextOutArgs	8	0	4	16	17
243	__TextOutArgs.Result	2	1	480	1	17
244	__TextOutArgs.Location	8	0	2	4	17
245	__TextOutArgs.Location.X	4	1	484	2	17
246	__TextOutArgs.Location.Y	4	1	486	2	17
247	__TextOutArgs.Text	7	0	488	4	17
248	__TextOutArgs.Text.Text_type	1	0	0	1	0
249	__TextOutArgs.Options	5	1	492	4	17
250	__constStr0016	7	0	496	4	1
251	__constStr0016.__constStr0016_type	1	1	0	1	0
252	__RLSLastGoodRead2	7	0	498	4	2
253	__RLSLastGoodRead2.__RLSLastGoodRead2_type	1	0	0	1	0
254	__RLSReadBuf2	7	0	500	4	10
255	__RLSReadBuf2.__RLSReadBuf2_type	1	0	0	1	0
256	__RLSLastGoodRead3	7	0	502	4	2
257	__RLSLastGoodRead3.__RLSLastGoodRead3_type	1	0	0	1	0
258	__constStr0011	7	0	504	4	1
259	__constStr0011.__constStr0011_type	1	1	0	1	0
260	__RLSLastGoodRead0	7	0	506	4	2
261	__RLSLastGoodRead0.__RLSLastGoodRead0_type	1	0	0	1	0
262	__strbufRetornaBoneco	7	0	508	4	2
263	__strbufRetornaBoneco.__strbufRetornaBoneco_type	1	0	0	1	0
264	__DCMessageWritePacket	7	0	510	4	6
265	__DCMessageWritePacket.__DCMessageWritePacket_type	1	0	0	1	0
266	__strbufiniciaBlue	7	0	512	4	4
267	__strbufiniciaBlue.__strbufiniciaBlue_type	1	0	0	1	0
268	__strbufdesligaBlue	7	0	514	4	4
269	__strbufdesligaBlue.__strbufdesligaBlue_type	1	0	0	1	0
270	__RLSBbufLSWrite1	7	0	516	4	5
271	__RLSBbufLSWrite1.__RLSBbufLSWrite1_type	1	0	0	1	0
272	__SRSFlattenBuf	7	0	518	4	12
273	__SRSFlattenBuf.__SRSFlattenBuf_type	1	0	0	1	0
274	__SRSTmpBuf	7	0	520	4	36
275	__SRSTmpBuf.__SRSTmpBuf_type	1	0	0	1	0
276	__RLSReadBuf0	7	0	522	4	8
277	__RLSReadBuf0.__RLSReadBuf0_type	1	0	0	1	0
278	__RLSReadBuf3	7	0	524	4	10
279	__RLSReadBuf3.__RLSReadBuf3_type	1	0	0	1	0
280	__constStr0009	7	0	526	4	2
281	__constStr0009.__constStr0009_type	1	1	0	1	0
282	__SRSSendBuf	7	0	528	4	12
283	__SRSSendBuf.__SRSSendBuf_type	1	0	0	1	0
284	__constStr0010	7	0	530	4	1
285	__constStr0010.__constStr0010_type	1	1	0	1	0
#SOURCES
Clump	Line	PC	Source
0	106	0	#line 106 "C:\Users\luan\Documents\GitHub\Droid\sekksi2016\executivo\Funcionando\principal_executivo.nxc"
0	107	0		subcall __initialize_global_data, ____initialize_global_data_return
0	106	2	#line 106 "C:\Users\luan\Documents\GitHub\Droid\sekksi2016\executivo\Funcionando\principal_executivo.nxc"
0	107	2	#line 107 "C:\Users\luan\Documents\GitHub\Droid\sekksi2016\executivo\Funcionando\principal_executivo.nxc"
0	108	2		subcall executivo, __executivo_return
0	107	4	#line 107 "C:\Users\luan\Documents\GitHub\Droid\sekksi2016\executivo\Funcionando\principal_executivo.nxc"
0	108	4		exit -1, -1
1	5476	0		setin __constVal1, __ResetSensorPort, 5
1	5478	4		getin __ResetSensorTmp, __ResetSensorPort, 5
1	5479	8		brtst 5, __SensorStillInvalid, __ResetSensorTmp
1	5480	11		subret ____ResetSensorSubroutine_return
2	6281	0	#pragma macro 25
2	6281	0		acquire __CLSWMutex0
2	6281	1		or __CLSWArgs0.Port, __constVal0, __LSWriteOptions0
2	6281	5		mov __CLSWArgs0.ReturnLen, __RLSBytesCount0
2	6281	7		mov __CLSWArgs0.Buffer, __RLSReadBuf0
2	6281	9		syscall 21, __CLSWArgs0
2	6281	12		mov __RLSBResult0, __CLSWArgs0.Result
2	6281	14		release __CLSWMutex0
2	6282	15	#line 6282 "NXTDefs.h"
2	6283	15		brtst 5, __RLSBError0, __RLSBResult0
2	6284	18		set __RLSBIterations0, 60
2	6286	21	#pragma macro 23
2	6286	21		acquire __CLSCSMutex0
2	6286	22		set __CLSCSArgs0.Port, 0
2	6286	25		syscall 23, __CLSCSArgs0
2	6286	28		mov __RLSBytesCount0, __CLSCSArgs0.BytesReady
2	6286	30		mov __RLSBResult0, __CLSCSArgs0.Result
2	6286	32		release __CLSCSMutex0
2	6286	33	#line 6286 "NXTDefs.h"
2	6287	33		sub __RLSBIterations0, __RLSBIterations0, __constVal1
2	6288	37		brtst 2, __RLSBError0, __RLSBIterations0
2	6289	40		brtst 0, __RLSBError0, __RLSBResult0
2	6290	43		brtst 4, __RLSBReadyToRead0, __RLSBResult0
2	6292	46		wait2 NA, __constVal1
2	6293	49		jmp __RLSBDoCheckStatus0
2	6295	51		brtst 4, __RLSBReturn0, __RLSBytesCount0
2	6296	54		arrinit __RLSReadBuf0, __constVal0, __RLSBytesCount0
2	6298	58	#pragma macro 25
2	6298	58		acquire __CLSRMutex0
2	6298	59		set __CLSRArgs0.Port, 0
2	6298	62		mov __CLSRArgs0.BufferLen, __RLSBytesCount0
2	6298	64		syscall 22, __CLSRArgs0
2	6298	67		mov __RLSReadBuf0, __CLSRArgs0.Buffer
2	6298	69		mov __RLSBResult0, __CLSRArgs0.Result
2	6298	71		release __CLSRMutex0
2	6298	72	#line 6298 "NXTDefs.h"
2	6299	72		brtst 5, __RLSBError0, __RLSBResult0
2	6300	75		mov __RLSLastGoodRead0, __RLSReadBuf0
2	6301	77		jmp __RLSBDone0
2	6303	79		mov __RLSReadBuf0, __RLSLastGoodRead0
2	6305	81		arrsize __RLSBytesCount0, __RLSReadBuf0
2	6307	84		subret ____ReadLSBytes0_return
3	6356	0	#pragma macro 25
3	6356	0		acquire __CLSWMutex2
3	6356	1		or __CLSWArgs2.Port, __constVal2, __LSWriteOptions2
3	6356	5		mov __CLSWArgs2.ReturnLen, __RLSBytesCount2
3	6356	7		mov __CLSWArgs2.Buffer, __RLSReadBuf2
3	6356	9		syscall 21, __CLSWArgs2
3	6356	12		mov __RLSBResult2, __CLSWArgs2.Result
3	6356	14		release __CLSWMutex2
3	6356	15	#line 6356 "NXTDefs.h"
3	6357	15		brtst 5, __RLSBError2, __RLSBResult2
3	6358	18		set __RLSBIterations2, 60
3	6360	21	#pragma macro 23
3	6360	21		acquire __CLSCSMutex2
3	6360	22		set __CLSCSArgs2.Port, 2
3	6360	25		syscall 23, __CLSCSArgs2
3	6360	28		mov __RLSBytesCount2, __CLSCSArgs2.BytesReady
3	6360	30		mov __RLSBResult2, __CLSCSArgs2.Result
3	6360	32		release __CLSCSMutex2
3	6360	33	#line 6360 "NXTDefs.h"
3	6361	33		sub __RLSBIterations2, __RLSBIterations2, __constVal1
3	6362	37		brtst 2, __RLSBError2, __RLSBIterations2
3	6363	40		brtst 0, __RLSBError2, __RLSBResult2
3	6364	43		brtst 4, __RLSBReadyToRead2, __RLSBResult2
3	6366	46		wait2 NA, __constVal1
3	6367	49		jmp __RLSBDoCheckStatus2
3	6369	51		brtst 4, __RLSBReturn2, __RLSBytesCount2
3	6370	54		arrinit __RLSReadBuf2, __constVal0, __RLSBytesCount2
3	6372	58	#pragma macro 25
3	6372	58		acquire __CLSRMutex2
3	6372	59		set __CLSRArgs2.Port, 2
3	6372	62		mov __CLSRArgs2.BufferLen, __RLSBytesCount2
3	6372	64		syscall 22, __CLSRArgs2
3	6372	67		mov __RLSReadBuf2, __CLSRArgs2.Buffer
3	6372	69		mov __RLSBResult2, __CLSRArgs2.Result
3	6372	71		release __CLSRMutex2
3	6372	72	#line 6372 "NXTDefs.h"
3	6373	72		brtst 5, __RLSBError2, __RLSBResult2
3	6374	75		mov __RLSLastGoodRead2, __RLSReadBuf2
3	6375	77		jmp __RLSBDone2
3	6377	79		mov __RLSReadBuf2, __RLSLastGoodRead2
3	6379	81		arrsize __RLSBytesCount2, __RLSReadBuf2
3	6381	84		subret ____ReadLSBytes2_return
4	6393	0	#pragma macro 25
4	6393	0		acquire __CLSWMutex3
4	6393	1		or __CLSWArgs3.Port, __constVal3, __LSWriteOptions3
4	6393	5		mov __CLSWArgs3.ReturnLen, __RLSBytesCount3
4	6393	7		mov __CLSWArgs3.Buffer, __RLSReadBuf3
4	6393	9		syscall 21, __CLSWArgs3
4	6393	12		mov __RLSBResult3, __CLSWArgs3.Result
4	6393	14		release __CLSWMutex3
4	6393	15	#line 6393 "NXTDefs.h"
4	6394	15		brtst 5, __RLSBError3, __RLSBResult3
4	6395	18		set __RLSBIterations3, 60
4	6397	21	#pragma macro 23
4	6397	21		acquire __CLSCSMutex3
4	6397	22		set __CLSCSArgs3.Port, 3
4	6397	25		syscall 23, __CLSCSArgs3
4	6397	28		mov __RLSBytesCount3, __CLSCSArgs3.BytesReady
4	6397	30		mov __RLSBResult3, __CLSCSArgs3.Result
4	6397	32		release __CLSCSMutex3
4	6397	33	#line 6397 "NXTDefs.h"
4	6398	33		sub __RLSBIterations3, __RLSBIterations3, __constVal1
4	6399	37		brtst 2, __RLSBError3, __RLSBIterations3
4	6400	40		brtst 0, __RLSBError3, __RLSBResult3
4	6401	43		brtst 4, __RLSBReadyToRead3, __RLSBResult3
4	6403	46		wait2 NA, __constVal1
4	6404	49		jmp __RLSBDoCheckStatus3
4	6406	51		brtst 4, __RLSBReturn3, __RLSBytesCount3
4	6407	54		arrinit __RLSReadBuf3, __constVal0, __RLSBytesCount3
4	6409	58	#pragma macro 25
4	6409	58		acquire __CLSRMutex3
4	6409	59		set __CLSRArgs3.Port, 3
4	6409	62		mov __CLSRArgs3.BufferLen, __RLSBytesCount3
4	6409	64		syscall 22, __CLSRArgs3
4	6409	67		mov __RLSReadBuf3, __CLSRArgs3.Buffer
4	6409	69		mov __RLSBResult3, __CLSRArgs3.Result
4	6409	71		release __CLSRMutex3
4	6409	72	#line 6409 "NXTDefs.h"
4	6410	72		brtst 5, __RLSBError3, __RLSBResult3
4	6411	75		mov __RLSLastGoodRead3, __RLSReadBuf3
4	6412	77		jmp __RLSBDone3
4	6414	79		mov __RLSReadBuf3, __RLSLastGoodRead3
4	6416	81		arrsize __RLSBytesCount3, __RLSReadBuf3
4	6418	84		subret ____ReadLSBytes3_return
5	7127	0	#line 7127 "NXCDefs.h"
5	7128	0		mov __signed_stack_001PlaySound, __PlaySound_7qG2_aCode_7qG2_000
5	7127	2	#line 7127 "NXCDefs.h"
5	7128	2	#line 7128 "NXCDefs.h"
5	7129	2		set __D0PlaySound, 0
5	7128	5	#line 7128 "NXCDefs.h"
5	7129	5		cmp 4, __D0PlaySound, __signed_stack_001PlaySound, __D0PlaySound
5	7128	9	#line 7128 "NXCDefs.h"
5	7129	9		brtst 4, __ASM_Label_56, __D0PlaySound
5	7128	12	#line 7128 "NXCDefs.h"
5	7129	12		set __signed_stack_001PlaySound, 600
5	7128	15	#line 7128 "NXCDefs.h"
5	7128	15	#line 7128 "NXCDefs.h"
5	7129	15		set __signed_stack_002PlaySound, 200
5	7128	18	#line 7128 "NXCDefs.h"
5	7128	18	#line 7128 "NXCDefs.h"
5	7129	18		set __signed_stack_003PlaySound, 4
5	7128	21	#line 7128 "NXCDefs.h"
5	7128	21	#line 7128 "NXCDefs.h"
5	7129	21		set __D0PlaySound, 0
5	7129	24	#line 7129 "NXCDefs.h"
5	7130	24		acquire __SPTArgsMutex
5	7129	25	#line 7129 "NXCDefs.h"
5	7130	25		mov __SPTArgs.Frequency, __signed_stack_001PlaySound
5	7129	28	#line 7129 "NXCDefs.h"
5	7130	28		mov __SPTArgs.Duration, __signed_stack_002PlaySound
5	7129	31	#line 7129 "NXCDefs.h"
5	7130	31		mov __SPTArgs.Volume, __signed_stack_003PlaySound
5	7129	34	#line 7129 "NXCDefs.h"
5	7130	34		mov __SPTArgs.Loop, __D0PlaySound
5	7129	37	#line 7129 "NXCDefs.h"
5	7130	37		syscall 10, __SPTArgs
5	7129	40	#line 7129 "NXCDefs.h"
5	7130	40		mov __D0PlaySound, __SPTArgs.Result
5	7129	43	#line 7129 "NXCDefs.h"
5	7130	43		release __SPTArgsMutex
5	7129	44	#line 7129 "NXCDefs.h"
5	7129	44	#line 7129 "NXCDefs.h"
5	7130	44		jmp __ASM_Label_65
5	7129	46	#line 7129 "NXCDefs.h"
5	7130	46		mov __signed_stack_001PlaySound, __PlaySound_7qG2_aCode_7qG2_000
5	7129	48	#line 7129 "NXCDefs.h"
5	7130	48	#line 7130 "NXCDefs.h"
5	7131	48		set __D0PlaySound, 1
5	7130	51	#line 7130 "NXCDefs.h"
5	7131	51		cmp 4, __D0PlaySound, __signed_stack_001PlaySound, __D0PlaySound
5	7131	55	#line 7131 "NXCDefs.h"
5	7132	55		brtst 4, __ASM_Label_68, __D0PlaySound
5	7131	58	#line 7131 "NXCDefs.h"
5	7132	58		set __signed_stack_001PlaySound, 600
5	7131	61	#line 7131 "NXCDefs.h"
5	7131	61	#line 7131 "NXCDefs.h"
5	7132	61		set __signed_stack_002PlaySound, 150
5	7131	64	#line 7131 "NXCDefs.h"
5	7131	64	#line 7131 "NXCDefs.h"
5	7132	64		set __signed_stack_003PlaySound, 4
5	7131	67	#line 7131 "NXCDefs.h"
5	7131	67	#line 7131 "NXCDefs.h"
5	7132	67		set __D0PlaySound, 0
5	7132	70	#line 7132 "NXCDefs.h"
5	7133	70		acquire __SPTArgsMutex
5	7132	71	#line 7132 "NXCDefs.h"
5	7133	71		mov __SPTArgs.Frequency, __signed_stack_001PlaySound
5	7132	74	#line 7132 "NXCDefs.h"
5	7133	74		mov __SPTArgs.Duration, __signed_stack_002PlaySound
5	7132	77	#line 7132 "NXCDefs.h"
5	7133	77		mov __SPTArgs.Volume, __signed_stack_003PlaySound
5	7132	80	#line 7132 "NXCDefs.h"
5	7133	80		mov __SPTArgs.Loop, __D0PlaySound
5	7132	83	#line 7132 "NXCDefs.h"
5	7133	83		syscall 10, __SPTArgs
5	7132	86	#line 7132 "NXCDefs.h"
5	7133	86		mov __D0PlaySound, __SPTArgs.Result
5	7132	89	#line 7132 "NXCDefs.h"
5	7133	89		release __SPTArgsMutex
5	7132	90	#line 7132 "NXCDefs.h"
5	7132	90	#line 7132 "NXCDefs.h"
5	7133	90		wait2 NA, __constVal200
5	7132	93	#line 7132 "NXCDefs.h"
5	7132	93	#line 7132 "NXCDefs.h"
5	7133	93	#line 7133 "NXCDefs.h"
5	7134	93		set __signed_stack_001PlaySound, 600
5	7133	96	#line 7133 "NXCDefs.h"
5	7133	96	#line 7133 "NXCDefs.h"
5	7134	96		set __signed_stack_002PlaySound, 150
5	7133	99	#line 7133 "NXCDefs.h"
5	7133	99	#line 7133 "NXCDefs.h"
5	7134	99		set __signed_stack_003PlaySound, 4
5	7133	102	#line 7133 "NXCDefs.h"
5	7133	102	#line 7133 "NXCDefs.h"
5	7134	102		set __D0PlaySound, 0
5	7134	105	#line 7134 "NXCDefs.h"
5	7135	105		acquire __SPTArgsMutex
5	7134	106	#line 7134 "NXCDefs.h"
5	7135	106		mov __SPTArgs.Frequency, __signed_stack_001PlaySound
5	7134	109	#line 7134 "NXCDefs.h"
5	7135	109		mov __SPTArgs.Duration, __signed_stack_002PlaySound
5	7134	112	#line 7134 "NXCDefs.h"
5	7135	112		mov __SPTArgs.Volume, __signed_stack_003PlaySound
5	7134	115	#line 7134 "NXCDefs.h"
5	7135	115		mov __SPTArgs.Loop, __D0PlaySound
5	7134	118	#line 7134 "NXCDefs.h"
5	7135	118		syscall 10, __SPTArgs
5	7134	121	#line 7134 "NXCDefs.h"
5	7135	121		mov __D0PlaySound, __SPTArgs.Result
5	7134	124	#line 7134 "NXCDefs.h"
5	7135	124		release __SPTArgsMutex
5	7134	125	#line 7134 "NXCDefs.h"
5	7134	125	#line 7134 "NXCDefs.h"
5	7135	125		wait2 NA, __constVal150
5	7134	128	#line 7134 "NXCDefs.h"
5	7134	128	#line 7134 "NXCDefs.h"
5	7136	128	#line 7136 "NXCDefs.h"
5	7137	128		jmp __ASM_Label_85
5	7136	130	#line 7136 "NXCDefs.h"
5	7137	130		mov __signed_stack_001PlaySound, __PlaySound_7qG2_aCode_7qG2_000
5	7136	132	#line 7136 "NXCDefs.h"
5	7137	132	#line 7137 "NXCDefs.h"
5	7138	132		set __D0PlaySound, 3
5	7137	135	#line 7137 "NXCDefs.h"
5	7138	135		cmp 4, __D0PlaySound, __signed_stack_001PlaySound, __D0PlaySound
5	7137	139	#line 7137 "NXCDefs.h"
5	7138	139		brtst 4, __ASM_Label_88, __D0PlaySound
5	7137	142	#line 7137 "NXCDefs.h"
5	7138	142		set __PlaySound_7qG2_i_7qG2_001, 4
5	7137	145	#line 7137 "NXCDefs.h"
5	7137	145	#line 7137 "NXCDefs.h"
5	7138	145		mov __signed_stack_001PlaySound, __PlaySound_7qG2_i_7qG2_001
5	7137	147	#line 7137 "NXCDefs.h"
5	7137	147	#line 7137 "NXCDefs.h"
5	7138	147		set __D0PlaySound, 8
5	7137	150	#line 7137 "NXCDefs.h"
5	7138	150		cmp 0, __D0PlaySound, __signed_stack_001PlaySound, __D0PlaySound
5	7137	154	#line 7137 "NXCDefs.h"
5	7138	154		brtst 4, __ASM_Label_90, __D0PlaySound
5	7137	157	#line 7137 "NXCDefs.h"
5	7138	157		jmp __ASM_Label_91
5	7138	159	#line 7138 "NXCDefs.h"
5	7139	159		add __PlaySound_7qG2_i_7qG2_001, __PlaySound_7qG2_i_7qG2_001, __constVal1
5	7139	163	#line 7139 "NXCDefs.h"
5	7140	163		jmp __ASM_Label_89
5	7139	165	#line 7139 "NXCDefs.h"
5	7140	165		set __signed_stack_001PlaySound, 523
5	7139	168	#line 7139 "NXCDefs.h"
5	7139	168	#line 7139 "NXCDefs.h"
5	7140	168		mov __D0PlaySound, __PlaySound_7qG2_i_7qG2_001
5	7139	170	#line 7139 "NXCDefs.h"
5	7140	170		mul __signed_stack_001PlaySound, __signed_stack_001PlaySound, __D0PlaySound
5	7139	174	#line 7139 "NXCDefs.h"
5	7139	174	#line 7139 "NXCDefs.h"
5	7140	174		set __D0PlaySound, 4
5	7139	177	#line 7139 "NXCDefs.h"
5	7140	177		div __signed_stack_001PlaySound, __signed_stack_001PlaySound, __D0PlaySound
5	7139	181	#line 7139 "NXCDefs.h"
5	7139	181	#line 7139 "NXCDefs.h"
5	7140	181		set __signed_stack_002PlaySound, 100
5	7139	184	#line 7139 "NXCDefs.h"
5	7139	184	#line 7139 "NXCDefs.h"
5	7140	184		set __signed_stack_003PlaySound, 4
5	7139	187	#line 7139 "NXCDefs.h"
5	7139	187	#line 7139 "NXCDefs.h"
5	7140	187		set __D0PlaySound, 0
5	7140	190	#line 7140 "NXCDefs.h"
5	7141	190		acquire __SPTArgsMutex
5	7140	191	#line 7140 "NXCDefs.h"
5	7141	191		mov __SPTArgs.Frequency, __signed_stack_001PlaySound
5	7140	194	#line 7140 "NXCDefs.h"
5	7141	194		mov __SPTArgs.Duration, __signed_stack_002PlaySound
5	7140	197	#line 7140 "NXCDefs.h"
5	7141	197		mov __SPTArgs.Volume, __signed_stack_003PlaySound
5	7140	200	#line 7140 "NXCDefs.h"
5	7141	200		mov __SPTArgs.Loop, __D0PlaySound
5	7140	203	#line 7140 "NXCDefs.h"
5	7141	203		syscall 10, __SPTArgs
5	7140	206	#line 7140 "NXCDefs.h"
5	7141	206		mov __D0PlaySound, __SPTArgs.Result
5	7140	209	#line 7140 "NXCDefs.h"
5	7141	209		release __SPTArgsMutex
5	7140	210	#line 7140 "NXCDefs.h"
5	7140	210	#line 7140 "NXCDefs.h"
5	7141	210		wait2 NA, __constVal100
5	7140	213	#line 7140 "NXCDefs.h"
5	7140	213	#line 7140 "NXCDefs.h"
5	7142	213	#line 7142 "NXCDefs.h"
5	7143	213		jmp __ASM_Label_92
5	7142	215	#line 7142 "NXCDefs.h"
5	7142	215	#line 7142 "NXCDefs.h"
5	7143	215		jmp __ASM_Label_105
5	7142	217	#line 7142 "NXCDefs.h"
5	7143	217		mov __signed_stack_001PlaySound, __PlaySound_7qG2_aCode_7qG2_000
5	7142	219	#line 7142 "NXCDefs.h"
5	7143	219	#line 7143 "NXCDefs.h"
5	7144	219		set __D0PlaySound, 2
5	7143	222	#line 7143 "NXCDefs.h"
5	7144	222		cmp 4, __D0PlaySound, __signed_stack_001PlaySound, __D0PlaySound
5	7143	226	#line 7143 "NXCDefs.h"
5	7144	226		brtst 4, __ASM_Label_108, __D0PlaySound
5	7143	229	#line 7143 "NXCDefs.h"
5	7144	229		set __PlaySound_7qG2_i_7qG2_001, 7
5	7143	232	#line 7143 "NXCDefs.h"
5	7143	232	#line 7143 "NXCDefs.h"
5	7144	232		mov __signed_stack_001PlaySound, __PlaySound_7qG2_i_7qG2_001
5	7143	234	#line 7143 "NXCDefs.h"
5	7143	234	#line 7143 "NXCDefs.h"
5	7144	234		set __D0PlaySound, 3
5	7143	237	#line 7143 "NXCDefs.h"
5	7144	237		cmp 1, __D0PlaySound, __signed_stack_001PlaySound, __D0PlaySound
5	7143	241	#line 7143 "NXCDefs.h"
5	7144	241		brtst 4, __ASM_Label_110, __D0PlaySound
5	7143	244	#line 7143 "NXCDefs.h"
5	7144	244		jmp __ASM_Label_111
5	7144	246	#line 7144 "NXCDefs.h"
5	7145	246		sub __PlaySound_7qG2_i_7qG2_001, __PlaySound_7qG2_i_7qG2_001, __constVal1
5	7145	250	#line 7145 "NXCDefs.h"
5	7146	250		jmp __ASM_Label_109
5	7145	252	#line 7145 "NXCDefs.h"
5	7146	252		set __signed_stack_001PlaySound, 523
5	7145	255	#line 7145 "NXCDefs.h"
5	7145	255	#line 7145 "NXCDefs.h"
5	7146	255		mov __D0PlaySound, __PlaySound_7qG2_i_7qG2_001
5	7145	257	#line 7145 "NXCDefs.h"
5	7146	257		mul __signed_stack_001PlaySound, __signed_stack_001PlaySound, __D0PlaySound
5	7145	261	#line 7145 "NXCDefs.h"
5	7145	261	#line 7145 "NXCDefs.h"
5	7146	261		set __D0PlaySound, 4
5	7145	264	#line 7145 "NXCDefs.h"
5	7146	264		div __signed_stack_001PlaySound, __signed_stack_001PlaySound, __D0PlaySound
5	7145	268	#line 7145 "NXCDefs.h"
5	7145	268	#line 7145 "NXCDefs.h"
5	7146	268		set __signed_stack_002PlaySound, 100
5	7145	271	#line 7145 "NXCDefs.h"
5	7145	271	#line 7145 "NXCDefs.h"
5	7146	271		set __signed_stack_003PlaySound, 4
5	7145	274	#line 7145 "NXCDefs.h"
5	7145	274	#line 7145 "NXCDefs.h"
5	7146	274		set __D0PlaySound, 0
5	7146	277	#line 7146 "NXCDefs.h"
5	7147	277		acquire __SPTArgsMutex
5	7146	278	#line 7146 "NXCDefs.h"
5	7147	278		mov __SPTArgs.Frequency, __signed_stack_001PlaySound
5	7146	281	#line 7146 "NXCDefs.h"
5	7147	281		mov __SPTArgs.Duration, __signed_stack_002PlaySound
5	7146	284	#line 7146 "NXCDefs.h"
5	7147	284		mov __SPTArgs.Volume, __signed_stack_003PlaySound
5	7146	287	#line 7146 "NXCDefs.h"
5	7147	287		mov __SPTArgs.Loop, __D0PlaySound
5	7146	290	#line 7146 "NXCDefs.h"
5	7147	290		syscall 10, __SPTArgs
5	7146	293	#line 7146 "NXCDefs.h"
5	7147	293		mov __D0PlaySound, __SPTArgs.Result
5	7146	296	#line 7146 "NXCDefs.h"
5	7147	296		release __SPTArgsMutex
5	7146	297	#line 7146 "NXCDefs.h"
5	7146	297	#line 7146 "NXCDefs.h"
5	7147	297		wait2 NA, __constVal100
5	7146	300	#line 7146 "NXCDefs.h"
5	7146	300	#line 7146 "NXCDefs.h"
5	7148	300	#line 7148 "NXCDefs.h"
5	7149	300		jmp __ASM_Label_112
5	7148	302	#line 7148 "NXCDefs.h"
5	7148	302	#line 7148 "NXCDefs.h"
5	7149	302		jmp __ASM_Label_125
5	7148	304	#line 7148 "NXCDefs.h"
5	7149	304		mov __signed_stack_001PlaySound, __PlaySound_7qG2_aCode_7qG2_000
5	7148	306	#line 7148 "NXCDefs.h"
5	7149	306	#line 7149 "NXCDefs.h"
5	7150	306		set __D0PlaySound, 4
5	7149	309	#line 7149 "NXCDefs.h"
5	7150	309		cmp 4, __D0PlaySound, __signed_stack_001PlaySound, __D0PlaySound
5	7150	313	#line 7150 "NXCDefs.h"
5	7151	313		brtst 4, __ASM_Label_128, __D0PlaySound
5	7150	316	#line 7150 "NXCDefs.h"
5	7151	316		set __signed_stack_001PlaySound, 100
5	7150	319	#line 7150 "NXCDefs.h"
5	7150	319	#line 7150 "NXCDefs.h"
5	7151	319		set __signed_stack_002PlaySound, 500
5	7150	322	#line 7150 "NXCDefs.h"
5	7150	322	#line 7150 "NXCDefs.h"
5	7151	322		set __signed_stack_003PlaySound, 4
5	7150	325	#line 7150 "NXCDefs.h"
5	7150	325	#line 7150 "NXCDefs.h"
5	7151	325		set __D0PlaySound, 0
5	7151	328	#line 7151 "NXCDefs.h"
5	7152	328		acquire __SPTArgsMutex
5	7151	329	#line 7151 "NXCDefs.h"
5	7152	329		mov __SPTArgs.Frequency, __signed_stack_001PlaySound
5	7151	332	#line 7151 "NXCDefs.h"
5	7152	332		mov __SPTArgs.Duration, __signed_stack_002PlaySound
5	7151	335	#line 7151 "NXCDefs.h"
5	7152	335		mov __SPTArgs.Volume, __signed_stack_003PlaySound
5	7151	338	#line 7151 "NXCDefs.h"
5	7152	338		mov __SPTArgs.Loop, __D0PlaySound
5	7151	341	#line 7151 "NXCDefs.h"
5	7152	341		syscall 10, __SPTArgs
5	7151	344	#line 7151 "NXCDefs.h"
5	7152	344		mov __D0PlaySound, __SPTArgs.Result
5	7151	347	#line 7151 "NXCDefs.h"
5	7152	347		release __SPTArgsMutex
5	7151	348	#line 7151 "NXCDefs.h"
5	7151	348	#line 7151 "NXCDefs.h"
5	7152	348		wait2 NA, __constVal500
5	7151	351	#line 7151 "NXCDefs.h"
5	7151	351	#line 7151 "NXCDefs.h"
5	7153	351	#line 7153 "NXCDefs.h"
5	7154	351		jmp __ASM_Label_137
5	7153	353	#line 7153 "NXCDefs.h"
5	7154	353		mov __signed_stack_001PlaySound, __PlaySound_7qG2_aCode_7qG2_000
5	7153	355	#line 7153 "NXCDefs.h"
5	7154	355	#line 7154 "NXCDefs.h"
5	7155	355		set __D0PlaySound, 5
5	7154	358	#line 7154 "NXCDefs.h"
5	7155	358		cmp 4, __D0PlaySound, __signed_stack_001PlaySound, __D0PlaySound
5	7154	362	#line 7154 "NXCDefs.h"
5	7155	362		brtst 4, __ASM_Label_140, __D0PlaySound
5	7154	365	#line 7154 "NXCDefs.h"
5	7155	365		set __PlaySound_7qG2_i_7qG2_001, 4
5	7154	368	#line 7154 "NXCDefs.h"
5	7154	368	#line 7154 "NXCDefs.h"
5	7155	368		mov __signed_stack_001PlaySound, __PlaySound_7qG2_i_7qG2_001
5	7154	370	#line 7154 "NXCDefs.h"
5	7154	370	#line 7154 "NXCDefs.h"
5	7155	370		set __D0PlaySound, 8
5	7154	373	#line 7154 "NXCDefs.h"
5	7155	373		cmp 0, __D0PlaySound, __signed_stack_001PlaySound, __D0PlaySound
5	7154	377	#line 7154 "NXCDefs.h"
5	7155	377		brtst 4, __ASM_Label_142, __D0PlaySound
5	7154	380	#line 7154 "NXCDefs.h"
5	7155	380		jmp __ASM_Label_143
5	7155	382	#line 7155 "NXCDefs.h"
5	7156	382		add __PlaySound_7qG2_i_7qG2_001, __PlaySound_7qG2_i_7qG2_001, __constVal1
5	7156	386	#line 7156 "NXCDefs.h"
5	7157	386		jmp __ASM_Label_141
5	7156	388	#line 7156 "NXCDefs.h"
5	7157	388		set __signed_stack_001PlaySound, 523
5	7156	391	#line 7156 "NXCDefs.h"
5	7156	391	#line 7156 "NXCDefs.h"
5	7157	391		mov __D0PlaySound, __PlaySound_7qG2_i_7qG2_001
5	7156	393	#line 7156 "NXCDefs.h"
5	7157	393		mul __signed_stack_001PlaySound, __signed_stack_001PlaySound, __D0PlaySound
5	7156	397	#line 7156 "NXCDefs.h"
5	7156	397	#line 7156 "NXCDefs.h"
5	7157	397		set __D0PlaySound, 4
5	7156	400	#line 7156 "NXCDefs.h"
5	7157	400		div __signed_stack_001PlaySound, __signed_stack_001PlaySound, __D0PlaySound
5	7156	404	#line 7156 "NXCDefs.h"
5	7156	404	#line 7156 "NXCDefs.h"
5	7157	404		set __signed_stack_002PlaySound, 50
5	7156	407	#line 7156 "NXCDefs.h"
5	7156	407	#line 7156 "NXCDefs.h"
5	7157	407		set __signed_stack_003PlaySound, 4
5	7156	410	#line 7156 "NXCDefs.h"
5	7156	410	#line 7156 "NXCDefs.h"
5	7157	410		set __D0PlaySound, 0
5	7157	413	#line 7157 "NXCDefs.h"
5	7158	413		acquire __SPTArgsMutex
5	7157	414	#line 7157 "NXCDefs.h"
5	7158	414		mov __SPTArgs.Frequency, __signed_stack_001PlaySound
5	7157	417	#line 7157 "NXCDefs.h"
5	7158	417		mov __SPTArgs.Duration, __signed_stack_002PlaySound
5	7157	420	#line 7157 "NXCDefs.h"
5	7158	420		mov __SPTArgs.Volume, __signed_stack_003PlaySound
5	7157	423	#line 7157 "NXCDefs.h"
5	7158	423		mov __SPTArgs.Loop, __D0PlaySound
5	7157	426	#line 7157 "NXCDefs.h"
5	7158	426		syscall 10, __SPTArgs
5	7157	429	#line 7157 "NXCDefs.h"
5	7158	429		mov __D0PlaySound, __SPTArgs.Result
5	7157	432	#line 7157 "NXCDefs.h"
5	7158	432		release __SPTArgsMutex
5	7157	433	#line 7157 "NXCDefs.h"
5	7157	433	#line 7157 "NXCDefs.h"
5	7158	433		wait2 NA, __constVal50
5	7157	436	#line 7157 "NXCDefs.h"
5	7157	436	#line 7157 "NXCDefs.h"
5	7169	436	#line 7169 "NXCDefs.h"
5	7170	436		jmp __ASM_Label_144
5	7169	438	#line 7169 "NXCDefs.h"
5	7169	438	#line 7169 "NXCDefs.h"
5	7169	438	#line 7169 "NXCDefs.h"
5	7169	438	#line 7169 "NXCDefs.h"
5	7169	438	#line 7169 "NXCDefs.h"
5	7169	438	#line 7169 "NXCDefs.h"
5	7169	438	#line 7169 "NXCDefs.h"
5	7169	438	#line 7169 "NXCDefs.h"
5	7170	438		subret __PlaySound_return
6	113	0	#line 113 "C:\Users\luan\Documents\GitHub\Droid\sekksi2016\executivo\Funcionando\principal_executivo.nxc"
6	114	0		subcall desligaBlue, __desligaBlue_return
6	113	2	#line 113 "C:\Users\luan\Documents\GitHub\Droid\sekksi2016\executivo\Funcionando\principal_executivo.nxc"
6	114	2	#line 114 "C:\Users\luan\Documents\GitHub\Droid\sekksi2016\executivo\Funcionando\principal_executivo.nxc"
6	115	2		subcall inicializaSensores, __inicializaSensores_return
6	114	4	#line 114 "C:\Users\luan\Documents\GitHub\Droid\sekksi2016\executivo\Funcionando\principal_executivo.nxc"
6	116	4	#line 116 "C:\Users\luan\Documents\GitHub\Droid\sekksi2016\executivo\Funcionando\principal_executivo.nxc"
6	117	4		subcall iniciaBlue, __iniciaBlue_return
6	116	6	#line 116 "C:\Users\luan\Documents\GitHub\Droid\sekksi2016\executivo\Funcionando\principal_executivo.nxc"
6	116	6	#line 116 "C:\Users\luan\Documents\GitHub\Droid\sekksi2016\executivo\Funcionando\principal_executivo.nxc"
6	117	6		mov __IniciaCorDoChao_7qG2_corEsq_7qG2_000, corEsq
6	116	8	#line 116 "C:\Users\luan\Documents\GitHub\Droid\sekksi2016\executivo\Funcionando\principal_executivo.nxc"
6	116	8	#line 116 "C:\Users\luan\Documents\GitHub\Droid\sekksi2016\executivo\Funcionando\principal_executivo.nxc"
6	117	8		mov __IniciaCorDoChao_7qG2_corDir_7qG2_000, corDir
6	116	10	#line 116 "C:\Users\luan\Documents\GitHub\Droid\sekksi2016\executivo\Funcionando\principal_executivo.nxc"
6	118	10	#line 118 "C:\Users\luan\Documents\GitHub\Droid\sekksi2016\executivo\Funcionando\principal_executivo.nxc"
6	119	10		subcall IniciaCorDoChao, __IniciaCorDoChao_return
6	118	12	#line 118 "C:\Users\luan\Documents\GitHub\Droid\sekksi2016\executivo\Funcionando\principal_executivo.nxc"
6	118	12	#line 118 "C:\Users\luan\Documents\GitHub\Droid\sekksi2016\executivo\Funcionando\principal_executivo.nxc"
6	119	12		set __andaRetoDireita_7qG2_distParede_7qG2_000, 8
6	118	15	#line 118 "C:\Users\luan\Documents\GitHub\Droid\sekksi2016\executivo\Funcionando\principal_executivo.nxc"
6	118	15	#line 118 "C:\Users\luan\Documents\GitHub\Droid\sekksi2016\executivo\Funcionando\principal_executivo.nxc"
6	119	15		set __andaRetoDireita_7qG2_distAndar_7qG2_000, 50
6	118	18	#line 118 "C:\Users\luan\Documents\GitHub\Droid\sekksi2016\executivo\Funcionando\principal_executivo.nxc"
6	119	18	#line 119 "C:\Users\luan\Documents\GitHub\Droid\sekksi2016\executivo\Funcionando\principal_executivo.nxc"
6	120	18		subcall andaRetoDireita, __andaRetoDireita_return
6	119	20	#line 119 "C:\Users\luan\Documents\GitHub\Droid\sekksi2016\executivo\Funcionando\principal_executivo.nxc"
6	119	20	#line 119 "C:\Users\luan\Documents\GitHub\Droid\sekksi2016\executivo\Funcionando\principal_executivo.nxc"
6	120	20		set __vira_7qG2_angulo_7qG2_000, 90
6	119	23	#line 119 "C:\Users\luan\Documents\GitHub\Droid\sekksi2016\executivo\Funcionando\principal_executivo.nxc"
6	119	23	#line 119 "C:\Users\luan\Documents\GitHub\Droid\sekksi2016\executivo\Funcionando\principal_executivo.nxc"
6	120	23		set __vira_7qG2_direcao_7qG2_000, 1
6	119	26	#line 119 "C:\Users\luan\Documents\GitHub\Droid\sekksi2016\executivo\Funcionando\principal_executivo.nxc"
6	120	26	#line 120 "C:\Users\luan\Documents\GitHub\Droid\sekksi2016\executivo\Funcionando\principal_executivo.nxc"
6	121	26		subcall vira, __vira_return
6	120	28	#line 120 "C:\Users\luan\Documents\GitHub\Droid\sekksi2016\executivo\Funcionando\principal_executivo.nxc"
6	121	28	#line 121 "C:\Users\luan\Documents\GitHub\Droid\sekksi2016\executivo\Funcionando\principal_executivo.nxc"
6	122	28		set __andaRetoDireita_7qG2_distParede_7qG2_000, 8
6	121	31	#line 121 "C:\Users\luan\Documents\GitHub\Droid\sekksi2016\executivo\Funcionando\principal_executivo.nxc"
6	121	31	#line 121 "C:\Users\luan\Documents\GitHub\Droid\sekksi2016\executivo\Funcionando\principal_executivo.nxc"
6	122	31		set __andaRetoDireita_7qG2_distAndar_7qG2_000, 50
6	121	34	#line 121 "C:\Users\luan\Documents\GitHub\Droid\sekksi2016\executivo\Funcionando\principal_executivo.nxc"
6	122	34	#line 122 "C:\Users\luan\Documents\GitHub\Droid\sekksi2016\executivo\Funcionando\principal_executivo.nxc"
6	123	34		subcall andaRetoDireita, __andaRetoDireita_return
6	122	36	#line 122 "C:\Users\luan\Documents\GitHub\Droid\sekksi2016\executivo\Funcionando\principal_executivo.nxc"
6	122	36	#line 122 "C:\Users\luan\Documents\GitHub\Droid\sekksi2016\executivo\Funcionando\principal_executivo.nxc"
6	123	36		set __D0executivo, 1
6	123	39	#line 123 "C:\Users\luan\Documents\GitHub\Droid\sekksi2016\executivo\Funcionando\principal_executivo.nxc"
6	124	39		tst 5, __D0executivo, __D0executivo
6	123	42	#line 123 "C:\Users\luan\Documents\GitHub\Droid\sekksi2016\executivo\Funcionando\principal_executivo.nxc"
6	124	42		brtst 4, __ASM_Label_502, __D0executivo
6	123	45	#line 123 "C:\Users\luan\Documents\GitHub\Droid\sekksi2016\executivo\Funcionando\principal_executivo.nxc"
6	124	45		jmp __ASM_Label_501
6	123	47	#line 123 "C:\Users\luan\Documents\GitHub\Droid\sekksi2016\executivo\Funcionando\principal_executivo.nxc"
6	123	47	#line 123 "C:\Users\luan\Documents\GitHub\Droid\sekksi2016\executivo\Funcionando\principal_executivo.nxc"
6	125	47	#line 125 "C:\Users\luan\Documents\GitHub\Droid\sekksi2016\executivo\Funcionando\principal_executivo.nxc"
6	126	47		subret __executivo_return
7	127	0	#line 127 "C:\Users\luan\Documents\GitHub\Droid\sekksi2016\executivo\Funcionando\principal_executivo.nxc"
7	128	0	#pragma macro 7
7	128	0		setout __constVal1, 2, __constVal0, 1, __constVal3, 8, __constVal0, 6, __constVal32, 7, __constVal0, 5, __constVal0, 10, __constVal96, 11, __constVal32, 12, __constVal32, 0, __constVal63
7	4940	23	#line 4940 "C:\Users\luan\Documents\GitHub\Droid\sekksi2016\executivo\Funcionando\principal_executivo.nxc"
7	127	23	#line 127 "C:\Users\luan\Documents\GitHub\Droid\sekksi2016\executivo\Funcionando\principal_executivo.nxc"
7	128	23	#line 128 "C:\Users\luan\Documents\GitHub\Droid\sekksi2016\executivo\Funcionando\principal_executivo.nxc"
7	129	23	#pragma macro 7
7	129	23		setout __constVal0, 2, __constVal0, 1, __constVal3, 8, __constVal0, 6, __constVal32, 7, __constVal0, 5, __constVal0, 10, __constVal96, 11, __constVal32, 12, __constVal32, 0, __constVal63
7	4943	46	#line 4943 "C:\Users\luan\Documents\GitHub\Droid\sekksi2016\executivo\Funcionando\principal_executivo.nxc"
7	128	46	#line 128 "C:\Users\luan\Documents\GitHub\Droid\sekksi2016\executivo\Funcionando\principal_executivo.nxc"
7	130	46	#line 130 "C:\Users\luan\Documents\GitHub\Droid\sekksi2016\executivo\Funcionando\principal_executivo.nxc"
7	131	46		subret __Para_return
8	131	0	#line 131 "C:\Users\luan\Documents\GitHub\Droid\sekksi2016\executivo\Funcionando\principal_executivo.nxc"
8	132	0		set __signed_stack_001distanciaTachoCount, 3
8	131	3	#line 131 "C:\Users\luan\Documents\GitHub\Droid\sekksi2016\executivo\Funcionando\principal_executivo.nxc"
8	131	3	#line 131 "C:\Users\luan\Documents\GitHub\Droid\sekksi2016\executivo\Funcionando\principal_executivo.nxc"
8	132	3		mov __D0distanciaTachoCount, __distanciaTachoCount_7qG2_grau_7qG2_000
8	131	5	#line 131 "C:\Users\luan\Documents\GitHub\Droid\sekksi2016\executivo\Funcionando\principal_executivo.nxc"
8	132	5		mul __D0distanciaTachoCount, __signed_stack_001distanciaTachoCount, __D0distanciaTachoCount
8	132	9	#line 132 "C:\Users\luan\Documents\GitHub\Droid\sekksi2016\executivo\Funcionando\principal_executivo.nxc"
8	133	9		subret __distanciaTachoCount_return
8	132	11	#line 132 "C:\Users\luan\Documents\GitHub\Droid\sekksi2016\executivo\Funcionando\principal_executivo.nxc"
8	135	11	#line 135 "C:\Users\luan\Documents\GitHub\Droid\sekksi2016\executivo\Funcionando\principal_executivo.nxc"
8	136	11		subret __distanciaTachoCount_return
9	136	0	#line 136 "C:\Users\luan\Documents\GitHub\Droid\sekksi2016\executivo\Funcionando\principal_executivo.nxc"
9	137	0		mov __signed_stack_001distanciaGiro, __distanciaGiro_7qG2_grau_7qG2_000
9	136	2	#line 136 "C:\Users\luan\Documents\GitHub\Droid\sekksi2016\executivo\Funcionando\principal_executivo.nxc"
9	136	2	#line 136 "C:\Users\luan\Documents\GitHub\Droid\sekksi2016\executivo\Funcionando\principal_executivo.nxc"
9	137	2		set __D0distanciaGiro, 172
9	136	5	#line 136 "C:\Users\luan\Documents\GitHub\Droid\sekksi2016\executivo\Funcionando\principal_executivo.nxc"
9	137	5		mul __signed_stack_001distanciaGiro, __signed_stack_001distanciaGiro, __D0distanciaGiro
9	136	9	#line 136 "C:\Users\luan\Documents\GitHub\Droid\sekksi2016\executivo\Funcionando\principal_executivo.nxc"
9	136	9	#line 136 "C:\Users\luan\Documents\GitHub\Droid\sekksi2016\executivo\Funcionando\principal_executivo.nxc"
9	137	9		set __D0distanciaGiro, 1420
9	136	12	#line 136 "C:\Users\luan\Documents\GitHub\Droid\sekksi2016\executivo\Funcionando\principal_executivo.nxc"
9	137	12		div __D0distanciaGiro, __signed_stack_001distanciaGiro, __D0distanciaGiro
9	137	16	#line 137 "C:\Users\luan\Documents\GitHub\Droid\sekksi2016\executivo\Funcionando\principal_executivo.nxc"
9	138	16		subret __distanciaGiro_return
9	137	18	#line 137 "C:\Users\luan\Documents\GitHub\Droid\sekksi2016\executivo\Funcionando\principal_executivo.nxc"
9	140	18	#line 140 "C:\Users\luan\Documents\GitHub\Droid\sekksi2016\executivo\Funcionando\principal_executivo.nxc"
9	141	18		subret __distanciaGiro_return
10	142	0	#line 142 "C:\Users\luan\Documents\GitHub\Droid\sekksi2016\executivo\Funcionando\principal_executivo.nxc"
10	143	0		set __SetSensorLowspeed_7qG2_port_7qG2_000_inline_inicializaSensores, 0
10	142	3	#line 142 "C:\Users\luan\Documents\GitHub\Droid\sekksi2016\executivo\Funcionando\principal_executivo.nxc"
10	143	3	#line 143 "C:\Users\luan\Documents\GitHub\Droid\sekksi2016\executivo\Funcionando\principal_executivo.nxc"
10	144	3		mov __SetSensorLowspeed_7qG2_bIsPowered_7qG2_000_inline_inicializaSensores, __constVal1
10	4342	5	#line 4342 "NXCDefs.h"
10	4343	5		mov __SetSensorType_7qG2_port_7qG2_000_inline_SetSensorLowspeed_inline_inicializaSensores, __SetSensorLowspeed_7qG2_port_7qG2_000_inline_inicializaSensores
10	4342	7	#line 4342 "NXCDefs.h"
10	4342	7	#line 4342 "NXCDefs.h"
10	4343	7		mov __DU0SetSensorLowspeed_inline_inicializaSensores, __SetSensorLowspeed_7qG2_bIsPowered_7qG2_000_inline_inicializaSensores
10	4342	9	#line 4342 "NXCDefs.h"
10	4343	9		tst 5, __D0SetSensorLowspeed_inline_inicializaSensores, __DU0SetSensorLowspeed_inline_inicializaSensores
10	4342	12	#line 4342 "NXCDefs.h"
10	4343	12		brtst 4, __004__ASM_Label_36, __D0SetSensorLowspeed_inline_inicializaSensores
10	4342	15	#line 4342 "NXCDefs.h"
10	4343	15		set __DU0SetSensorLowspeed_inline_inicializaSensores, 11
10	4342	18	#line 4342 "NXCDefs.h"
10	4342	18	#line 4342 "NXCDefs.h"
10	4343	18		jmp __004__ASM_Label_37
10	4342	20	#line 4342 "NXCDefs.h"
10	4343	20		set __DU0SetSensorLowspeed_inline_inicializaSensores, 10
10	4342	23	#line 4342 "NXCDefs.h"
10	4342	23	#line 4342 "NXCDefs.h"
10	4343	23		mov __SetSensorType_7qG2_type_7qG2_000_inline_SetSensorLowspeed_inline_inicializaSensores, __DU0SetSensorLowspeed_inline_inicializaSensores
10	4247	25	#line 4247 "NXCDefs.h"
10	4248	25		setin __SetSensorType_7qG2_type_7qG2_000_inline_SetSensorLowspeed_inline_inicializaSensores, __SetSensorType_7qG2_port_7qG2_000_inline_SetSensorLowspeed_inline_inicializaSensores, 0
10	4247	29	#line 4247 "NXCDefs.h"
10	4343	29	#line 4343 "NXCDefs.h"
10	4343	29	#line 4343 "NXCDefs.h"
10	4344	29		mov __SetSensorMode_7qG2_port_7qG2_000_inline_SetSensorLowspeed_inline_inicializaSensores, __SetSensorLowspeed_7qG2_port_7qG2_000_inline_inicializaSensores
10	4343	31	#line 4343 "NXCDefs.h"
10	4343	31	#line 4343 "NXCDefs.h"
10	4344	31		set __SetSensorMode_7qG2_mode_7qG2_000_inline_SetSensorLowspeed_inline_inicializaSensores, 0
10	4343	34	#line 4343 "NXCDefs.h"
10	4260	34	#line 4260 "NXCDefs.h"
10	4261	34		setin __SetSensorMode_7qG2_mode_7qG2_000_inline_SetSensorLowspeed_inline_inicializaSensores, __SetSensorMode_7qG2_port_7qG2_000_inline_SetSensorLowspeed_inline_inicializaSensores, 1
10	4260	38	#line 4260 "NXCDefs.h"
10	4344	38	#line 4344 "NXCDefs.h"
10	4344	38	#line 4344 "NXCDefs.h"
10	4345	38		mov __ResetSensor_7qG2_port_7qG2_000_inline_SetSensorLowspeed_inline_inicializaSensores, __SetSensorLowspeed_7qG2_port_7qG2_000_inline_inicializaSensores
10	4344	40	#line 4344 "NXCDefs.h"
10	4278	40	#line 4278 "NXCDefs.h"
10	4279	40	#pragma macro 4
10	4279	40		mov __ResetSensorPort, __SetSensorLowspeed_7qG2_port_7qG2_000_inline_inicializaSensores
10	4279	42		subcall __ResetSensorSubroutine, ____ResetSensorSubroutine_return
10	5093	45	#line 5093 "NXCDefs.h"
10	4278	45	#line 4278 "NXCDefs.h"
10	4345	45	#line 4345 "NXCDefs.h"
10	143	45	#line 143 "C:\Users\luan\Documents\GitHub\Droid\sekksi2016\executivo\Funcionando\principal_executivo.nxc"
10	143	45	#line 143 "C:\Users\luan\Documents\GitHub\Droid\sekksi2016\executivo\Funcionando\principal_executivo.nxc"
10	144	45		set __SetSensorLowspeed_7qG2_port_7qG2_000_inline_inicializaSensores, 1
10	143	48	#line 143 "C:\Users\luan\Documents\GitHub\Droid\sekksi2016\executivo\Funcionando\principal_executivo.nxc"
10	144	48	#line 144 "C:\Users\luan\Documents\GitHub\Droid\sekksi2016\executivo\Funcionando\principal_executivo.nxc"
10	145	48		mov __SetSensorLowspeed_7qG2_bIsPowered_7qG2_000_inline_inicializaSensores, __constVal1
10	4342	50	#line 4342 "NXCDefs.h"
10	4343	50		mov __SetSensorType_7qG2_port_7qG2_000_inline_SetSensorLowspeed_inline_inicializaSensores, __SetSensorLowspeed_7qG2_port_7qG2_000_inline_inicializaSensores
10	4342	52	#line 4342 "NXCDefs.h"
10	4342	52	#line 4342 "NXCDefs.h"
10	4343	52		mov __DU0SetSensorLowspeed_inline_inicializaSensores, __SetSensorLowspeed_7qG2_bIsPowered_7qG2_000_inline_inicializaSensores
10	4342	54	#line 4342 "NXCDefs.h"
10	4343	54		tst 5, __D0SetSensorLowspeed_inline_inicializaSensores, __DU0SetSensorLowspeed_inline_inicializaSensores
10	4342	57	#line 4342 "NXCDefs.h"
10	4343	57		brtst 4, __005__ASM_Label_36, __D0SetSensorLowspeed_inline_inicializaSensores
10	4342	60	#line 4342 "NXCDefs.h"
10	4343	60		set __DU0SetSensorLowspeed_inline_inicializaSensores, 11
10	4342	63	#line 4342 "NXCDefs.h"
10	4342	63	#line 4342 "NXCDefs.h"
10	4343	63		jmp __005__ASM_Label_37
10	4342	65	#line 4342 "NXCDefs.h"
10	4343	65		set __DU0SetSensorLowspeed_inline_inicializaSensores, 10
10	4342	68	#line 4342 "NXCDefs.h"
10	4342	68	#line 4342 "NXCDefs.h"
10	4343	68		mov __SetSensorType_7qG2_type_7qG2_000_inline_SetSensorLowspeed_inline_inicializaSensores, __DU0SetSensorLowspeed_inline_inicializaSensores
10	4247	70	#line 4247 "NXCDefs.h"
10	4248	70		setin __SetSensorType_7qG2_type_7qG2_000_inline_SetSensorLowspeed_inline_inicializaSensores, __SetSensorType_7qG2_port_7qG2_000_inline_SetSensorLowspeed_inline_inicializaSensores, 0
10	4247	74	#line 4247 "NXCDefs.h"
10	4343	74	#line 4343 "NXCDefs.h"
10	4343	74	#line 4343 "NXCDefs.h"
10	4344	74		mov __SetSensorMode_7qG2_port_7qG2_000_inline_SetSensorLowspeed_inline_inicializaSensores, __SetSensorLowspeed_7qG2_port_7qG2_000_inline_inicializaSensores
10	4343	76	#line 4343 "NXCDefs.h"
10	4343	76	#line 4343 "NXCDefs.h"
10	4344	76		set __SetSensorMode_7qG2_mode_7qG2_000_inline_SetSensorLowspeed_inline_inicializaSensores, 0
10	4343	79	#line 4343 "NXCDefs.h"
10	4260	79	#line 4260 "NXCDefs.h"
10	4261	79		setin __SetSensorMode_7qG2_mode_7qG2_000_inline_SetSensorLowspeed_inline_inicializaSensores, __SetSensorMode_7qG2_port_7qG2_000_inline_SetSensorLowspeed_inline_inicializaSensores, 1
10	4260	83	#line 4260 "NXCDefs.h"
10	4344	83	#line 4344 "NXCDefs.h"
10	4344	83	#line 4344 "NXCDefs.h"
10	4345	83		mov __ResetSensor_7qG2_port_7qG2_000_inline_SetSensorLowspeed_inline_inicializaSensores, __SetSensorLowspeed_7qG2_port_7qG2_000_inline_inicializaSensores
10	4344	85	#line 4344 "NXCDefs.h"
10	4278	85	#line 4278 "NXCDefs.h"
10	4279	85	#pragma macro 4
10	4279	85		mov __ResetSensorPort, __SetSensorLowspeed_7qG2_port_7qG2_000_inline_inicializaSensores
10	4279	87		subcall __ResetSensorSubroutine, ____ResetSensorSubroutine_return
10	5156	90	#line 5156 "NXCDefs.h"
10	4278	90	#line 4278 "NXCDefs.h"
10	4345	90	#line 4345 "NXCDefs.h"
10	144	90	#line 144 "C:\Users\luan\Documents\GitHub\Droid\sekksi2016\executivo\Funcionando\principal_executivo.nxc"
10	144	90	#line 144 "C:\Users\luan\Documents\GitHub\Droid\sekksi2016\executivo\Funcionando\principal_executivo.nxc"
10	145	90		set __SetSensorLowspeed_7qG2_port_7qG2_000_inline_inicializaSensores, 2
10	144	93	#line 144 "C:\Users\luan\Documents\GitHub\Droid\sekksi2016\executivo\Funcionando\principal_executivo.nxc"
10	145	93	#line 145 "C:\Users\luan\Documents\GitHub\Droid\sekksi2016\executivo\Funcionando\principal_executivo.nxc"
10	146	93		mov __SetSensorLowspeed_7qG2_bIsPowered_7qG2_000_inline_inicializaSensores, __constVal1
10	4342	95	#line 4342 "NXCDefs.h"
10	4343	95		mov __SetSensorType_7qG2_port_7qG2_000_inline_SetSensorLowspeed_inline_inicializaSensores, __SetSensorLowspeed_7qG2_port_7qG2_000_inline_inicializaSensores
10	4342	97	#line 4342 "NXCDefs.h"
10	4342	97	#line 4342 "NXCDefs.h"
10	4343	97		mov __DU0SetSensorLowspeed_inline_inicializaSensores, __SetSensorLowspeed_7qG2_bIsPowered_7qG2_000_inline_inicializaSensores
10	4342	99	#line 4342 "NXCDefs.h"
10	4343	99		tst 5, __D0SetSensorLowspeed_inline_inicializaSensores, __DU0SetSensorLowspeed_inline_inicializaSensores
10	4342	102	#line 4342 "NXCDefs.h"
10	4343	102		brtst 4, __006__ASM_Label_36, __D0SetSensorLowspeed_inline_inicializaSensores
10	4342	105	#line 4342 "NXCDefs.h"
10	4343	105		set __DU0SetSensorLowspeed_inline_inicializaSensores, 11
10	4342	108	#line 4342 "NXCDefs.h"
10	4342	108	#line 4342 "NXCDefs.h"
10	4343	108		jmp __006__ASM_Label_37
10	4342	110	#line 4342 "NXCDefs.h"
10	4343	110		set __DU0SetSensorLowspeed_inline_inicializaSensores, 10
10	4342	113	#line 4342 "NXCDefs.h"
10	4342	113	#line 4342 "NXCDefs.h"
10	4343	113		mov __SetSensorType_7qG2_type_7qG2_000_inline_SetSensorLowspeed_inline_inicializaSensores, __DU0SetSensorLowspeed_inline_inicializaSensores
10	4247	115	#line 4247 "NXCDefs.h"
10	4248	115		setin __SetSensorType_7qG2_type_7qG2_000_inline_SetSensorLowspeed_inline_inicializaSensores, __SetSensorType_7qG2_port_7qG2_000_inline_SetSensorLowspeed_inline_inicializaSensores, 0
10	4247	119	#line 4247 "NXCDefs.h"
10	4343	119	#line 4343 "NXCDefs.h"
10	4343	119	#line 4343 "NXCDefs.h"
10	4344	119		mov __SetSensorMode_7qG2_port_7qG2_000_inline_SetSensorLowspeed_inline_inicializaSensores, __SetSensorLowspeed_7qG2_port_7qG2_000_inline_inicializaSensores
10	4343	121	#line 4343 "NXCDefs.h"
10	4343	121	#line 4343 "NXCDefs.h"
10	4344	121		set __SetSensorMode_7qG2_mode_7qG2_000_inline_SetSensorLowspeed_inline_inicializaSensores, 0
10	4343	124	#line 4343 "NXCDefs.h"
10	4260	124	#line 4260 "NXCDefs.h"
10	4261	124		setin __SetSensorMode_7qG2_mode_7qG2_000_inline_SetSensorLowspeed_inline_inicializaSensores, __SetSensorMode_7qG2_port_7qG2_000_inline_SetSensorLowspeed_inline_inicializaSensores, 1
10	4260	128	#line 4260 "NXCDefs.h"
10	4344	128	#line 4344 "NXCDefs.h"
10	4344	128	#line 4344 "NXCDefs.h"
10	4345	128		mov __ResetSensor_7qG2_port_7qG2_000_inline_SetSensorLowspeed_inline_inicializaSensores, __SetSensorLowspeed_7qG2_port_7qG2_000_inline_inicializaSensores
10	4344	130	#line 4344 "NXCDefs.h"
10	4278	130	#line 4278 "NXCDefs.h"
10	4279	130	#pragma macro 4
10	4279	130		mov __ResetSensorPort, __SetSensorLowspeed_7qG2_port_7qG2_000_inline_inicializaSensores
10	4279	132		subcall __ResetSensorSubroutine, ____ResetSensorSubroutine_return
10	5219	135	#line 5219 "NXCDefs.h"
10	4278	135	#line 4278 "NXCDefs.h"
10	4345	135	#line 4345 "NXCDefs.h"
10	145	135	#line 145 "C:\Users\luan\Documents\GitHub\Droid\sekksi2016\executivo\Funcionando\principal_executivo.nxc"
10	145	135	#line 145 "C:\Users\luan\Documents\GitHub\Droid\sekksi2016\executivo\Funcionando\principal_executivo.nxc"
10	146	135		set __SetSensorLowspeed_7qG2_port_7qG2_000_inline_inicializaSensores, 3
10	145	138	#line 145 "C:\Users\luan\Documents\GitHub\Droid\sekksi2016\executivo\Funcionando\principal_executivo.nxc"
10	146	138	#line 146 "C:\Users\luan\Documents\GitHub\Droid\sekksi2016\executivo\Funcionando\principal_executivo.nxc"
10	147	138		mov __SetSensorLowspeed_7qG2_bIsPowered_7qG2_000_inline_inicializaSensores, __constVal1
10	4342	140	#line 4342 "NXCDefs.h"
10	4343	140		mov __SetSensorType_7qG2_port_7qG2_000_inline_SetSensorLowspeed_inline_inicializaSensores, __SetSensorLowspeed_7qG2_port_7qG2_000_inline_inicializaSensores
10	4342	142	#line 4342 "NXCDefs.h"
10	4342	142	#line 4342 "NXCDefs.h"
10	4343	142		mov __DU0SetSensorLowspeed_inline_inicializaSensores, __SetSensorLowspeed_7qG2_bIsPowered_7qG2_000_inline_inicializaSensores
10	4342	144	#line 4342 "NXCDefs.h"
10	4343	144		tst 5, __D0SetSensorLowspeed_inline_inicializaSensores, __DU0SetSensorLowspeed_inline_inicializaSensores
10	4342	147	#line 4342 "NXCDefs.h"
10	4343	147		brtst 4, __007__ASM_Label_36, __D0SetSensorLowspeed_inline_inicializaSensores
10	4342	150	#line 4342 "NXCDefs.h"
10	4343	150		set __DU0SetSensorLowspeed_inline_inicializaSensores, 11
10	4342	153	#line 4342 "NXCDefs.h"
10	4342	153	#line 4342 "NXCDefs.h"
10	4343	153		jmp __007__ASM_Label_37
10	4342	155	#line 4342 "NXCDefs.h"
10	4343	155		set __DU0SetSensorLowspeed_inline_inicializaSensores, 10
10	4342	158	#line 4342 "NXCDefs.h"
10	4342	158	#line 4342 "NXCDefs.h"
10	4343	158		mov __SetSensorType_7qG2_type_7qG2_000_inline_SetSensorLowspeed_inline_inicializaSensores, __DU0SetSensorLowspeed_inline_inicializaSensores
10	4247	160	#line 4247 "NXCDefs.h"
10	4248	160		setin __SetSensorType_7qG2_type_7qG2_000_inline_SetSensorLowspeed_inline_inicializaSensores, __SetSensorType_7qG2_port_7qG2_000_inline_SetSensorLowspeed_inline_inicializaSensores, 0
10	4247	164	#line 4247 "NXCDefs.h"
10	4343	164	#line 4343 "NXCDefs.h"
10	4343	164	#line 4343 "NXCDefs.h"
10	4344	164		mov __SetSensorMode_7qG2_port_7qG2_000_inline_SetSensorLowspeed_inline_inicializaSensores, __SetSensorLowspeed_7qG2_port_7qG2_000_inline_inicializaSensores
10	4343	166	#line 4343 "NXCDefs.h"
10	4343	166	#line 4343 "NXCDefs.h"
10	4344	166		set __SetSensorMode_7qG2_mode_7qG2_000_inline_SetSensorLowspeed_inline_inicializaSensores, 0
10	4343	169	#line 4343 "NXCDefs.h"
10	4260	169	#line 4260 "NXCDefs.h"
10	4261	169		setin __SetSensorMode_7qG2_mode_7qG2_000_inline_SetSensorLowspeed_inline_inicializaSensores, __SetSensorMode_7qG2_port_7qG2_000_inline_SetSensorLowspeed_inline_inicializaSensores, 1
10	4260	173	#line 4260 "NXCDefs.h"
10	4344	173	#line 4344 "NXCDefs.h"
10	4344	173	#line 4344 "NXCDefs.h"
10	4345	173		mov __ResetSensor_7qG2_port_7qG2_000_inline_SetSensorLowspeed_inline_inicializaSensores, __SetSensorLowspeed_7qG2_port_7qG2_000_inline_inicializaSensores
10	4344	175	#line 4344 "NXCDefs.h"
10	4278	175	#line 4278 "NXCDefs.h"
10	4279	175	#pragma macro 4
10	4279	175		mov __ResetSensorPort, __SetSensorLowspeed_7qG2_port_7qG2_000_inline_inicializaSensores
10	4279	177		subcall __ResetSensorSubroutine, ____ResetSensorSubroutine_return
10	5282	180	#line 5282 "NXCDefs.h"
10	4278	180	#line 4278 "NXCDefs.h"
10	4345	180	#line 4345 "NXCDefs.h"
10	146	180	#line 146 "C:\Users\luan\Documents\GitHub\Droid\sekksi2016\executivo\Funcionando\principal_executivo.nxc"
10	148	180	#line 148 "C:\Users\luan\Documents\GitHub\Droid\sekksi2016\executivo\Funcionando\principal_executivo.nxc"
10	149	180		subret __inicializaSensores_return
11	149	0	#line 149 "C:\Users\luan\Documents\GitHub\Droid\sekksi2016\executivo\Funcionando\principal_executivo.nxc"
11	150	0		mov __signed_stack_001vira, __vira_7qG2_direcao_7qG2_000
11	149	2	#line 149 "C:\Users\luan\Documents\GitHub\Droid\sekksi2016\executivo\Funcionando\principal_executivo.nxc"
11	149	2	#line 149 "C:\Users\luan\Documents\GitHub\Droid\sekksi2016\executivo\Funcionando\principal_executivo.nxc"
11	150	2		set __D0vira, 2
11	149	5	#line 149 "C:\Users\luan\Documents\GitHub\Droid\sekksi2016\executivo\Funcionando\principal_executivo.nxc"
11	150	5		cmp 4, __D0vira, __signed_stack_001vira, __D0vira
11	150	9	#line 150 "C:\Users\luan\Documents\GitHub\Droid\sekksi2016\executivo\Funcionando\principal_executivo.nxc"
11	151	9		brtst 4, __ASM_Label_531, __D0vira
11	150	12	#line 150 "C:\Users\luan\Documents\GitHub\Droid\sekksi2016\executivo\Funcionando\principal_executivo.nxc"
11	151	12		set __D0vira, 90
11	151	15	#line 151 "C:\Users\luan\Documents\GitHub\Droid\sekksi2016\executivo\Funcionando\principal_executivo.nxc"
11	152	15	#pragma macro 7
11	152	15		setout __constVal1, 2, __D0vira, 1, __constVal3, 8, __constVal0, 6, __constVal32, 7, __constVal0, 5, __constVal0, 10, __constVal96, 11, __constVal32, 12, __constVal32, 0, __constVal63
11	5308	38	#line 5308 "C:\Users\luan\Documents\GitHub\Droid\sekksi2016\executivo\Funcionando\principal_executivo.nxc"
11	151	38	#line 151 "C:\Users\luan\Documents\GitHub\Droid\sekksi2016\executivo\Funcionando\principal_executivo.nxc"
11	151	38	#line 151 "C:\Users\luan\Documents\GitHub\Droid\sekksi2016\executivo\Funcionando\principal_executivo.nxc"
11	152	38		mov __D0vira, __constValNeg90
11	153	40	#line 153 "C:\Users\luan\Documents\GitHub\Droid\sekksi2016\executivo\Funcionando\principal_executivo.nxc"
11	154	40	#pragma macro 7
11	154	40		setout __constVal0, 2, __D0vira, 1, __constVal3, 8, __constVal0, 6, __constVal32, 7, __constVal0, 5, __constVal0, 10, __constVal96, 11, __constVal32, 12, __constVal32, 0, __constVal63
11	5313	63	#line 5313 "C:\Users\luan\Documents\GitHub\Droid\sekksi2016\executivo\Funcionando\principal_executivo.nxc"
11	153	63	#line 153 "C:\Users\luan\Documents\GitHub\Droid\sekksi2016\executivo\Funcionando\principal_executivo.nxc"
11	153	63	#line 153 "C:\Users\luan\Documents\GitHub\Droid\sekksi2016\executivo\Funcionando\principal_executivo.nxc"
11	154	63		getout __signed_stack_001vira, __constVal1, 4
11	153	67	#line 153 "C:\Users\luan\Documents\GitHub\Droid\sekksi2016\executivo\Funcionando\principal_executivo.nxc"
11	153	67	#line 153 "C:\Users\luan\Documents\GitHub\Droid\sekksi2016\executivo\Funcionando\principal_executivo.nxc"
11	154	67		getout __D0vira, __constVal0, 4
11	153	71	#line 153 "C:\Users\luan\Documents\GitHub\Droid\sekksi2016\executivo\Funcionando\principal_executivo.nxc"
11	154	71		sub __signed_stack_001vira, __signed_stack_001vira, __D0vira
11	153	75	#line 153 "C:\Users\luan\Documents\GitHub\Droid\sekksi2016\executivo\Funcionando\principal_executivo.nxc"
11	153	75	#line 153 "C:\Users\luan\Documents\GitHub\Droid\sekksi2016\executivo\Funcionando\principal_executivo.nxc"
11	154	75		set __D0vira, 2
11	153	78	#line 153 "C:\Users\luan\Documents\GitHub\Droid\sekksi2016\executivo\Funcionando\principal_executivo.nxc"
11	154	78		div __distanciaGiro_7qG2_grau_7qG2_000, __signed_stack_001vira, __D0vira
11	153	82	#line 153 "C:\Users\luan\Documents\GitHub\Droid\sekksi2016\executivo\Funcionando\principal_executivo.nxc"
11	153	82	#line 153 "C:\Users\luan\Documents\GitHub\Droid\sekksi2016\executivo\Funcionando\principal_executivo.nxc"
11	154	82		subcall distanciaGiro, __distanciaGiro_return
11	153	84	#line 153 "C:\Users\luan\Documents\GitHub\Droid\sekksi2016\executivo\Funcionando\principal_executivo.nxc"
11	154	84		mov __signed_stack_001vira, __D0distanciaGiro
11	153	86	#line 153 "C:\Users\luan\Documents\GitHub\Droid\sekksi2016\executivo\Funcionando\principal_executivo.nxc"
11	154	86	#line 154 "C:\Users\luan\Documents\GitHub\Droid\sekksi2016\executivo\Funcionando\principal_executivo.nxc"
11	155	86		mov __D0vira, __vira_7qG2_angulo_7qG2_000
11	154	88	#line 154 "C:\Users\luan\Documents\GitHub\Droid\sekksi2016\executivo\Funcionando\principal_executivo.nxc"
11	155	88		cmp 0, __D0vira, __signed_stack_001vira, __D0vira
11	156	92	#line 156 "C:\Users\luan\Documents\GitHub\Droid\sekksi2016\executivo\Funcionando\principal_executivo.nxc"
11	157	92		brtst 4, __ASM_Label_537, __D0vira
11	157	95	#line 157 "C:\Users\luan\Documents\GitHub\Droid\sekksi2016\executivo\Funcionando\principal_executivo.nxc"
11	158	95		jmp __ASM_Label_536
11	157	97	#line 157 "C:\Users\luan\Documents\GitHub\Droid\sekksi2016\executivo\Funcionando\principal_executivo.nxc"
11	158	97	#line 158 "C:\Users\luan\Documents\GitHub\Droid\sekksi2016\executivo\Funcionando\principal_executivo.nxc"
11	159	97	#pragma macro 7
11	159	97		setout __constVal1, 2, __constVal0, 1, __constVal3, 8, __constVal0, 6, __constVal32, 7, __constVal0, 5, __constVal0, 10, __constVal96, 11, __constVal32, 12, __constVal32, 0, __constVal63
11	5361	120	#line 5361 "C:\Users\luan\Documents\GitHub\Droid\sekksi2016\executivo\Funcionando\principal_executivo.nxc"
11	158	120	#line 158 "C:\Users\luan\Documents\GitHub\Droid\sekksi2016\executivo\Funcionando\principal_executivo.nxc"
11	160	120	#line 160 "C:\Users\luan\Documents\GitHub\Droid\sekksi2016\executivo\Funcionando\principal_executivo.nxc"
11	161	120	#pragma macro 7
11	161	120		setout __constVal0, 2, __constVal0, 1, __constVal3, 8, __constVal0, 6, __constVal32, 7, __constVal0, 5, __constVal0, 10, __constVal96, 11, __constVal32, 12, __constVal32, 0, __constVal63
11	5364	143	#line 5364 "C:\Users\luan\Documents\GitHub\Droid\sekksi2016\executivo\Funcionando\principal_executivo.nxc"
11	160	143	#line 160 "C:\Users\luan\Documents\GitHub\Droid\sekksi2016\executivo\Funcionando\principal_executivo.nxc"
11	160	143	#line 160 "C:\Users\luan\Documents\GitHub\Droid\sekksi2016\executivo\Funcionando\principal_executivo.nxc"
11	161	143		jmp __ASM_Label_544
11	160	145	#line 160 "C:\Users\luan\Documents\GitHub\Droid\sekksi2016\executivo\Funcionando\principal_executivo.nxc"
11	161	145		mov __signed_stack_001vira, __vira_7qG2_direcao_7qG2_000
11	160	147	#line 160 "C:\Users\luan\Documents\GitHub\Droid\sekksi2016\executivo\Funcionando\principal_executivo.nxc"
11	160	147	#line 160 "C:\Users\luan\Documents\GitHub\Droid\sekksi2016\executivo\Funcionando\principal_executivo.nxc"
11	161	147		set __D0vira, 1
11	160	150	#line 160 "C:\Users\luan\Documents\GitHub\Droid\sekksi2016\executivo\Funcionando\principal_executivo.nxc"
11	161	150		cmp 4, __D0vira, __signed_stack_001vira, __D0vira
11	161	154	#line 161 "C:\Users\luan\Documents\GitHub\Droid\sekksi2016\executivo\Funcionando\principal_executivo.nxc"
11	162	154		brtst 4, __ASM_Label_547, __D0vira
11	161	157	#line 161 "C:\Users\luan\Documents\GitHub\Droid\sekksi2016\executivo\Funcionando\principal_executivo.nxc"
11	162	157		mov __D0vira, __constValNeg90
11	162	159	#line 162 "C:\Users\luan\Documents\GitHub\Droid\sekksi2016\executivo\Funcionando\principal_executivo.nxc"
11	163	159	#pragma macro 7
11	163	159		setout __constVal1, 2, __D0vira, 1, __constVal3, 8, __constVal0, 6, __constVal32, 7, __constVal0, 5, __constVal0, 10, __constVal96, 11, __constVal32, 12, __constVal32, 0, __constVal63
11	5386	182	#line 5386 "C:\Users\luan\Documents\GitHub\Droid\sekksi2016\executivo\Funcionando\principal_executivo.nxc"
11	162	182	#line 162 "C:\Users\luan\Documents\GitHub\Droid\sekksi2016\executivo\Funcionando\principal_executivo.nxc"
11	162	182	#line 162 "C:\Users\luan\Documents\GitHub\Droid\sekksi2016\executivo\Funcionando\principal_executivo.nxc"
11	163	182		set __D0vira, 90
11	164	185	#line 164 "C:\Users\luan\Documents\GitHub\Droid\sekksi2016\executivo\Funcionando\principal_executivo.nxc"
11	165	185	#pragma macro 7
11	165	185		setout __constVal0, 2, __D0vira, 1, __constVal3, 8, __constVal0, 6, __constVal32, 7, __constVal0, 5, __constVal0, 10, __constVal96, 11, __constVal32, 12, __constVal32, 0, __constVal63
11	5391	208	#line 5391 "C:\Users\luan\Documents\GitHub\Droid\sekksi2016\executivo\Funcionando\principal_executivo.nxc"
11	164	208	#line 164 "C:\Users\luan\Documents\GitHub\Droid\sekksi2016\executivo\Funcionando\principal_executivo.nxc"
11	164	208	#line 164 "C:\Users\luan\Documents\GitHub\Droid\sekksi2016\executivo\Funcionando\principal_executivo.nxc"
11	165	208		set __signed_stack_001vira, 0
11	164	211	#line 164 "C:\Users\luan\Documents\GitHub\Droid\sekksi2016\executivo\Funcionando\principal_executivo.nxc"
11	164	211	#line 164 "C:\Users\luan\Documents\GitHub\Droid\sekksi2016\executivo\Funcionando\principal_executivo.nxc"
11	165	211		getout __D0vira, __constVal1, 4
11	164	215	#line 164 "C:\Users\luan\Documents\GitHub\Droid\sekksi2016\executivo\Funcionando\principal_executivo.nxc"
11	165	215		sub __signed_stack_001vira, __signed_stack_001vira, __D0vira
11	164	219	#line 164 "C:\Users\luan\Documents\GitHub\Droid\sekksi2016\executivo\Funcionando\principal_executivo.nxc"
11	164	219	#line 164 "C:\Users\luan\Documents\GitHub\Droid\sekksi2016\executivo\Funcionando\principal_executivo.nxc"
11	165	219		getout __D0vira, __constVal0, 4
11	164	223	#line 164 "C:\Users\luan\Documents\GitHub\Droid\sekksi2016\executivo\Funcionando\principal_executivo.nxc"
11	165	223		add __signed_stack_001vira, __signed_stack_001vira, __D0vira
11	164	227	#line 164 "C:\Users\luan\Documents\GitHub\Droid\sekksi2016\executivo\Funcionando\principal_executivo.nxc"
11	164	227	#line 164 "C:\Users\luan\Documents\GitHub\Droid\sekksi2016\executivo\Funcionando\principal_executivo.nxc"
11	165	227		set __D0vira, 2
11	164	230	#line 164 "C:\Users\luan\Documents\GitHub\Droid\sekksi2016\executivo\Funcionando\principal_executivo.nxc"
11	165	230		div __distanciaGiro_7qG2_grau_7qG2_000, __signed_stack_001vira, __D0vira
11	164	234	#line 164 "C:\Users\luan\Documents\GitHub\Droid\sekksi2016\executivo\Funcionando\principal_executivo.nxc"
11	164	234	#line 164 "C:\Users\luan\Documents\GitHub\Droid\sekksi2016\executivo\Funcionando\principal_executivo.nxc"
11	165	234		subcall distanciaGiro, __distanciaGiro_return
11	164	236	#line 164 "C:\Users\luan\Documents\GitHub\Droid\sekksi2016\executivo\Funcionando\principal_executivo.nxc"
11	165	236		mov __signed_stack_001vira, __D0distanciaGiro
11	164	238	#line 164 "C:\Users\luan\Documents\GitHub\Droid\sekksi2016\executivo\Funcionando\principal_executivo.nxc"
11	165	238	#line 165 "C:\Users\luan\Documents\GitHub\Droid\sekksi2016\executivo\Funcionando\principal_executivo.nxc"
11	166	238		mov __D0vira, __vira_7qG2_angulo_7qG2_000
11	165	240	#line 165 "C:\Users\luan\Documents\GitHub\Droid\sekksi2016\executivo\Funcionando\principal_executivo.nxc"
11	166	240		cmp 0, __D0vira, __signed_stack_001vira, __D0vira
11	167	244	#line 167 "C:\Users\luan\Documents\GitHub\Droid\sekksi2016\executivo\Funcionando\principal_executivo.nxc"
11	168	244		brtst 4, __ASM_Label_553, __D0vira
11	168	247	#line 168 "C:\Users\luan\Documents\GitHub\Droid\sekksi2016\executivo\Funcionando\principal_executivo.nxc"
11	169	247		jmp __ASM_Label_552
11	168	249	#line 168 "C:\Users\luan\Documents\GitHub\Droid\sekksi2016\executivo\Funcionando\principal_executivo.nxc"
11	169	249	#line 169 "C:\Users\luan\Documents\GitHub\Droid\sekksi2016\executivo\Funcionando\principal_executivo.nxc"
11	170	249	#pragma macro 7
11	170	249		setout __constVal1, 2, __constVal0, 1, __constVal3, 8, __constVal0, 6, __constVal32, 7, __constVal0, 5, __constVal0, 10, __constVal96, 11, __constVal32, 12, __constVal32, 0, __constVal63
11	5447	272	#line 5447 "C:\Users\luan\Documents\GitHub\Droid\sekksi2016\executivo\Funcionando\principal_executivo.nxc"
11	169	272	#line 169 "C:\Users\luan\Documents\GitHub\Droid\sekksi2016\executivo\Funcionando\principal_executivo.nxc"
11	170	272	#line 170 "C:\Users\luan\Documents\GitHub\Droid\sekksi2016\executivo\Funcionando\principal_executivo.nxc"
11	171	272	#pragma macro 7
11	171	272		setout __constVal0, 2, __constVal0, 1, __constVal3, 8, __constVal0, 6, __constVal32, 7, __constVal0, 5, __constVal0, 10, __constVal96, 11, __constVal32, 12, __constVal32, 0, __constVal63
11	5450	295	#line 5450 "C:\Users\luan\Documents\GitHub\Droid\sekksi2016\executivo\Funcionando\principal_executivo.nxc"
11	170	295	#line 170 "C:\Users\luan\Documents\GitHub\Droid\sekksi2016\executivo\Funcionando\principal_executivo.nxc"
11	173	295	#line 173 "C:\Users\luan\Documents\GitHub\Droid\sekksi2016\executivo\Funcionando\principal_executivo.nxc"
11	173	295	#line 173 "C:\Users\luan\Documents\GitHub\Droid\sekksi2016\executivo\Funcionando\principal_executivo.nxc"
11	173	295	#line 173 "C:\Users\luan\Documents\GitHub\Droid\sekksi2016\executivo\Funcionando\principal_executivo.nxc"
11	174	295		subret __vira_return
12	176	0	#line 176 "C:\Users\luan\Documents\GitHub\Droid\sekksi2016\executivo\Funcionando\principal_executivo.nxc"
12	177	0		strcat __strbufiniciaBlue, __constStr0009
12	176	4	#line 176 "C:\Users\luan\Documents\GitHub\Droid\sekksi2016\executivo\Funcionando\principal_executivo.nxc"
12	177	4		mov __iniciaBlue_7qG2_DADOS_BT_7qG2_000.Name, __strbufiniciaBlue
12	176	6	#line 176 "C:\Users\luan\Documents\GitHub\Droid\sekksi2016\executivo\Funcionando\principal_executivo.nxc"
12	177	6	#line 177 "C:\Users\luan\Documents\GitHub\Droid\sekksi2016\executivo\Funcionando\principal_executivo.nxc"
12	178	6		set __iniciaBlue_7qG2_DADOS_BT_7qG2_000.ConnectionSlot, 1
12	177	9	#line 177 "C:\Users\luan\Documents\GitHub\Droid\sekksi2016\executivo\Funcionando\principal_executivo.nxc"
12	177	9	#line 177 "C:\Users\luan\Documents\GitHub\Droid\sekksi2016\executivo\Funcionando\principal_executivo.nxc"
12	185	9	#line 185 "C:\Users\luan\Documents\GitHub\Droid\sekksi2016\executivo\Funcionando\principal_executivo.nxc"
12	186	9		set __iniciaBlue_7qG2_DADOS_BT_7qG2_000.Action, 1
12	185	12	#line 185 "C:\Users\luan\Documents\GitHub\Droid\sekksi2016\executivo\Funcionando\principal_executivo.nxc"
12	185	12	#line 185 "C:\Users\luan\Documents\GitHub\Droid\sekksi2016\executivo\Funcionando\principal_executivo.nxc"
12	186	12	#line 186 "C:\Users\luan\Documents\GitHub\Droid\sekksi2016\executivo\Funcionando\principal_executivo.nxc"
12	187	12	#pragma macro 4
12	187	12	#line 187 "C:\Users\luan\Documents\GitHub\Droid\sekksi2016\executivo\Funcionando\principal_executivo.nxc"
12	187	12		syscall 36, __iniciaBlue_7qG2_DADOS_BT_7qG2_000
12	185	15	#line 185 "C:\Users\luan\Documents\GitHub\Droid\sekksi2016\executivo\Funcionando\principal_executivo.nxc"
12	185	15	#line 185 "C:\Users\luan\Documents\GitHub\Droid\sekksi2016\executivo\Funcionando\principal_executivo.nxc"
12	185	15	#line 185 "C:\Users\luan\Documents\GitHub\Droid\sekksi2016\executivo\Funcionando\principal_executivo.nxc"
12	185	15	#line 185 "C:\Users\luan\Documents\GitHub\Droid\sekksi2016\executivo\Funcionando\principal_executivo.nxc"
12	186	15	#line 186 "C:\Users\luan\Documents\GitHub\Droid\sekksi2016\executivo\Funcionando\principal_executivo.nxc"
12	186	15	#line 186 "C:\Users\luan\Documents\GitHub\Droid\sekksi2016\executivo\Funcionando\principal_executivo.nxc"
12	186	15	#line 186 "C:\Users\luan\Documents\GitHub\Droid\sekksi2016\executivo\Funcionando\principal_executivo.nxc"
12	187	15		set __Wait_7qG2_ms_7qG2_000_inline_iniciaBlue, 4000
12	186	18	#line 186 "C:\Users\luan\Documents\GitHub\Droid\sekksi2016\executivo\Funcionando\principal_executivo.nxc"
12	8551	18	#line 8551 "NXCDefs.h"
12	8552	18		wait2 NA, __Wait_7qG2_ms_7qG2_000_inline_iniciaBlue
12	8551	21	#line 8551 "NXCDefs.h"
12	187	21	#line 187 "C:\Users\luan\Documents\GitHub\Droid\sekksi2016\executivo\Funcionando\principal_executivo.nxc"
12	187	21	#line 187 "C:\Users\luan\Documents\GitHub\Droid\sekksi2016\executivo\Funcionando\principal_executivo.nxc"
12	188	21		set __signed_stack_001iniciaBlue, 0
12	187	24	#line 187 "C:\Users\luan\Documents\GitHub\Droid\sekksi2016\executivo\Funcionando\principal_executivo.nxc"
12	187	24	#line 187 "C:\Users\luan\Documents\GitHub\Droid\sekksi2016\executivo\Funcionando\principal_executivo.nxc"
12	188	24		set __signed_stack_002iniciaBlue, 48
12	187	27	#line 187 "C:\Users\luan\Documents\GitHub\Droid\sekksi2016\executivo\Funcionando\principal_executivo.nxc"
12	187	27	#line 187 "C:\Users\luan\Documents\GitHub\Droid\sekksi2016\executivo\Funcionando\principal_executivo.nxc"
12	188	27		strcat __strbufiniciaBlue, __constStr0010
12	188	31	#line 188 "C:\Users\luan\Documents\GitHub\Droid\sekksi2016\executivo\Funcionando\principal_executivo.nxc"
12	189	31		acquire __TextOutMutex
12	188	32	#line 188 "C:\Users\luan\Documents\GitHub\Droid\sekksi2016\executivo\Funcionando\principal_executivo.nxc"
12	189	32		mov __TextOutArgs.Location.X, __signed_stack_001iniciaBlue
12	188	35	#line 188 "C:\Users\luan\Documents\GitHub\Droid\sekksi2016\executivo\Funcionando\principal_executivo.nxc"
12	189	35		mov __TextOutArgs.Location.Y, __signed_stack_002iniciaBlue
12	188	38	#line 188 "C:\Users\luan\Documents\GitHub\Droid\sekksi2016\executivo\Funcionando\principal_executivo.nxc"
12	189	38		set __TextOutArgs.Options, 0
12	188	41	#line 188 "C:\Users\luan\Documents\GitHub\Droid\sekksi2016\executivo\Funcionando\principal_executivo.nxc"
12	189	41		mov __TextOutArgs.Text, __strbufiniciaBlue
12	188	43	#line 188 "C:\Users\luan\Documents\GitHub\Droid\sekksi2016\executivo\Funcionando\principal_executivo.nxc"
12	189	43		syscall 13, __TextOutArgs
12	188	46	#line 188 "C:\Users\luan\Documents\GitHub\Droid\sekksi2016\executivo\Funcionando\principal_executivo.nxc"
12	188	46	#line 188 "C:\Users\luan\Documents\GitHub\Droid\sekksi2016\executivo\Funcionando\principal_executivo.nxc"
12	189	46		release __TextOutMutex
12	188	47	#line 188 "C:\Users\luan\Documents\GitHub\Droid\sekksi2016\executivo\Funcionando\principal_executivo.nxc"
12	190	47	#line 190 "C:\Users\luan\Documents\GitHub\Droid\sekksi2016\executivo\Funcionando\principal_executivo.nxc"
12	191	47		subret __iniciaBlue_return
13	193	0	#line 193 "C:\Users\luan\Documents\GitHub\Droid\sekksi2016\executivo\Funcionando\principal_executivo.nxc"
13	194	0		set my_tc_d, 0
13	193	3	#line 193 "C:\Users\luan\Documents\GitHub\Droid\sekksi2016\executivo\Funcionando\principal_executivo.nxc"
13	193	3	#line 193 "C:\Users\luan\Documents\GitHub\Droid\sekksi2016\executivo\Funcionando\principal_executivo.nxc"
13	195	3	#line 195 "C:\Users\luan\Documents\GitHub\Droid\sekksi2016\executivo\Funcionando\principal_executivo.nxc"
13	196	3		set my_tc_e, 0
13	195	6	#line 195 "C:\Users\luan\Documents\GitHub\Droid\sekksi2016\executivo\Funcionando\principal_executivo.nxc"
13	195	6	#line 195 "C:\Users\luan\Documents\GitHub\Droid\sekksi2016\executivo\Funcionando\principal_executivo.nxc"
13	195	6	#line 195 "C:\Users\luan\Documents\GitHub\Droid\sekksi2016\executivo\Funcionando\principal_executivo.nxc"
13	196	6		mov __signed_stack_001andaRetoDireita, my_tc_d
13	195	8	#line 195 "C:\Users\luan\Documents\GitHub\Droid\sekksi2016\executivo\Funcionando\principal_executivo.nxc"
13	195	8	#line 195 "C:\Users\luan\Documents\GitHub\Droid\sekksi2016\executivo\Funcionando\principal_executivo.nxc"
13	196	8		mov __D0andaRetoDireita, my_tc_e
13	195	10	#line 195 "C:\Users\luan\Documents\GitHub\Droid\sekksi2016\executivo\Funcionando\principal_executivo.nxc"
13	196	10		add __signed_stack_001andaRetoDireita, __signed_stack_001andaRetoDireita, __D0andaRetoDireita
13	195	14	#line 195 "C:\Users\luan\Documents\GitHub\Droid\sekksi2016\executivo\Funcionando\principal_executivo.nxc"
13	195	14	#line 195 "C:\Users\luan\Documents\GitHub\Droid\sekksi2016\executivo\Funcionando\principal_executivo.nxc"
13	196	14		set __D0andaRetoDireita, 2
13	195	17	#line 195 "C:\Users\luan\Documents\GitHub\Droid\sekksi2016\executivo\Funcionando\principal_executivo.nxc"
13	196	17		div __distanciaTachoCount_7qG2_grau_7qG2_000, __signed_stack_001andaRetoDireita, __D0andaRetoDireita
13	195	21	#line 195 "C:\Users\luan\Documents\GitHub\Droid\sekksi2016\executivo\Funcionando\principal_executivo.nxc"
13	195	21	#line 195 "C:\Users\luan\Documents\GitHub\Droid\sekksi2016\executivo\Funcionando\principal_executivo.nxc"
13	196	21		subcall distanciaTachoCount, __distanciaTachoCount_return
13	195	23	#line 195 "C:\Users\luan\Documents\GitHub\Droid\sekksi2016\executivo\Funcionando\principal_executivo.nxc"
13	196	23		mov __signed_stack_001andaRetoDireita, __D0distanciaTachoCount
13	195	25	#line 195 "C:\Users\luan\Documents\GitHub\Droid\sekksi2016\executivo\Funcionando\principal_executivo.nxc"
13	195	25	#line 195 "C:\Users\luan\Documents\GitHub\Droid\sekksi2016\executivo\Funcionando\principal_executivo.nxc"
13	196	25		mov __signed_stack_002andaRetoDireita, __andaRetoDireita_7qG2_distAndar_7qG2_000
13	195	27	#line 195 "C:\Users\luan\Documents\GitHub\Droid\sekksi2016\executivo\Funcionando\principal_executivo.nxc"
13	195	27	#line 195 "C:\Users\luan\Documents\GitHub\Droid\sekksi2016\executivo\Funcionando\principal_executivo.nxc"
13	196	27		set __D0andaRetoDireita, 100
13	195	30	#line 195 "C:\Users\luan\Documents\GitHub\Droid\sekksi2016\executivo\Funcionando\principal_executivo.nxc"
13	196	30		mul __D0andaRetoDireita, __signed_stack_002andaRetoDireita, __D0andaRetoDireita
13	195	34	#line 195 "C:\Users\luan\Documents\GitHub\Droid\sekksi2016\executivo\Funcionando\principal_executivo.nxc"
13	196	34		cmp 0, __D0andaRetoDireita, __signed_stack_001andaRetoDireita, __D0andaRetoDireita
13	196	38	#line 196 "C:\Users\luan\Documents\GitHub\Droid\sekksi2016\executivo\Funcionando\principal_executivo.nxc"
13	197	38		brtst 4, __ASM_Label_575, __D0andaRetoDireita
13	196	41	#line 196 "C:\Users\luan\Documents\GitHub\Droid\sekksi2016\executivo\Funcionando\principal_executivo.nxc"
13	197	41	#pragma macro 26
13	197	41		acquire __RLSBmutex0
13	197	42		mov __RLSReadBuf0, __RLSBbufLSWrite1
13	197	44		set __RLSBytesCount0, 1
13	197	47		wait2 NA, __constVal15
13	197	50		subcall __ReadLSBytes0, ____ReadLSBytes0_return
13	197	52		index __D0andaRetoDireita, __RLSReadBuf0, 65535
13	197	56		release __RLSBmutex0
13	5613	57	#line 5613 "C:\Users\luan\Documents\GitHub\Droid\sekksi2016\executivo\Funcionando\principal_executivo.nxc"
13	196	57	#line 196 "C:\Users\luan\Documents\GitHub\Droid\sekksi2016\executivo\Funcionando\principal_executivo.nxc"
13	197	57		mov __andaRetoDireita_7qG2_distanciaAtual_7qG2_000, __D0andaRetoDireita
13	196	59	#line 196 "C:\Users\luan\Documents\GitHub\Droid\sekksi2016\executivo\Funcionando\principal_executivo.nxc"
13	196	59	#line 196 "C:\Users\luan\Documents\GitHub\Droid\sekksi2016\executivo\Funcionando\principal_executivo.nxc"
13	202	59	#line 202 "C:\Users\luan\Documents\GitHub\Droid\sekksi2016\executivo\Funcionando\principal_executivo.nxc"
13	203	59		subcall ChecaParada, __ChecaParada_return
13	202	61	#line 202 "C:\Users\luan\Documents\GitHub\Droid\sekksi2016\executivo\Funcionando\principal_executivo.nxc"
13	202	61	#line 202 "C:\Users\luan\Documents\GitHub\Droid\sekksi2016\executivo\Funcionando\principal_executivo.nxc"
13	203	61		mov __CorDoChao_7qG2_corEsq_7qG2_000, corEsq
13	202	63	#line 202 "C:\Users\luan\Documents\GitHub\Droid\sekksi2016\executivo\Funcionando\principal_executivo.nxc"
13	202	63	#line 202 "C:\Users\luan\Documents\GitHub\Droid\sekksi2016\executivo\Funcionando\principal_executivo.nxc"
13	203	63		mov __CorDoChao_7qG2_corDir_7qG2_000, corDir
13	202	65	#line 202 "C:\Users\luan\Documents\GitHub\Droid\sekksi2016\executivo\Funcionando\principal_executivo.nxc"
13	204	65	#line 204 "C:\Users\luan\Documents\GitHub\Droid\sekksi2016\executivo\Funcionando\principal_executivo.nxc"
13	205	65		subcall CorDoChao, __CorDoChao_return
13	204	67	#line 204 "C:\Users\luan\Documents\GitHub\Droid\sekksi2016\executivo\Funcionando\principal_executivo.nxc"
13	204	67	#line 204 "C:\Users\luan\Documents\GitHub\Droid\sekksi2016\executivo\Funcionando\principal_executivo.nxc"
13	205	67		mov __signed_stack_001andaRetoDireita, __andaRetoDireita_7qG2_distanciaAtual_7qG2_000
13	204	69	#line 204 "C:\Users\luan\Documents\GitHub\Droid\sekksi2016\executivo\Funcionando\principal_executivo.nxc"
13	204	69	#line 204 "C:\Users\luan\Documents\GitHub\Droid\sekksi2016\executivo\Funcionando\principal_executivo.nxc"
13	205	69		mov __D0andaRetoDireita, __andaRetoDireita_7qG2_distParede_7qG2_000
13	204	71	#line 204 "C:\Users\luan\Documents\GitHub\Droid\sekksi2016\executivo\Funcionando\principal_executivo.nxc"
13	205	71		cmp 4, __D0andaRetoDireita, __signed_stack_001andaRetoDireita, __D0andaRetoDireita
13	205	75	#line 205 "C:\Users\luan\Documents\GitHub\Droid\sekksi2016\executivo\Funcionando\principal_executivo.nxc"
13	206	75		brtst 4, __ASM_Label_592, __D0andaRetoDireita
13	206	78	#line 206 "C:\Users\luan\Documents\GitHub\Droid\sekksi2016\executivo\Funcionando\principal_executivo.nxc"
13	207	78		set __andaRetoDireita_7qG2_potd_7qG2_000, 90
13	206	81	#line 206 "C:\Users\luan\Documents\GitHub\Droid\sekksi2016\executivo\Funcionando\principal_executivo.nxc"
13	206	81	#line 206 "C:\Users\luan\Documents\GitHub\Droid\sekksi2016\executivo\Funcionando\principal_executivo.nxc"
13	207	81	#line 207 "C:\Users\luan\Documents\GitHub\Droid\sekksi2016\executivo\Funcionando\principal_executivo.nxc"
13	208	81		set __andaRetoDireita_7qG2_pote_7qG2_000, 90
13	207	84	#line 207 "C:\Users\luan\Documents\GitHub\Droid\sekksi2016\executivo\Funcionando\principal_executivo.nxc"
13	207	84	#line 207 "C:\Users\luan\Documents\GitHub\Droid\sekksi2016\executivo\Funcionando\principal_executivo.nxc"
13	208	84	#line 208 "C:\Users\luan\Documents\GitHub\Droid\sekksi2016\executivo\Funcionando\principal_executivo.nxc"
13	209	84		jmp __ASM_Label_597
13	208	86	#line 208 "C:\Users\luan\Documents\GitHub\Droid\sekksi2016\executivo\Funcionando\principal_executivo.nxc"
13	209	86		mov __signed_stack_001andaRetoDireita, __andaRetoDireita_7qG2_distanciaAtual_7qG2_000
13	208	88	#line 208 "C:\Users\luan\Documents\GitHub\Droid\sekksi2016\executivo\Funcionando\principal_executivo.nxc"
13	208	88	#line 208 "C:\Users\luan\Documents\GitHub\Droid\sekksi2016\executivo\Funcionando\principal_executivo.nxc"
13	209	88		mov __D0andaRetoDireita, __andaRetoDireita_7qG2_distParede_7qG2_000
13	208	90	#line 208 "C:\Users\luan\Documents\GitHub\Droid\sekksi2016\executivo\Funcionando\principal_executivo.nxc"
13	209	90		cmp 1, __D0andaRetoDireita, __signed_stack_001andaRetoDireita, __D0andaRetoDireita
13	209	94	#line 209 "C:\Users\luan\Documents\GitHub\Droid\sekksi2016\executivo\Funcionando\principal_executivo.nxc"
13	210	94		brtst 4, __ASM_Label_600, __D0andaRetoDireita
13	210	97	#line 210 "C:\Users\luan\Documents\GitHub\Droid\sekksi2016\executivo\Funcionando\principal_executivo.nxc"
13	211	97		set __andaRetoDireita_7qG2_pote_7qG2_000, 90
13	210	100	#line 210 "C:\Users\luan\Documents\GitHub\Droid\sekksi2016\executivo\Funcionando\principal_executivo.nxc"
13	210	100	#line 210 "C:\Users\luan\Documents\GitHub\Droid\sekksi2016\executivo\Funcionando\principal_executivo.nxc"
13	211	100	#line 211 "C:\Users\luan\Documents\GitHub\Droid\sekksi2016\executivo\Funcionando\principal_executivo.nxc"
13	212	100		set __andaRetoDireita_7qG2_potd_7qG2_000, 70
13	211	103	#line 211 "C:\Users\luan\Documents\GitHub\Droid\sekksi2016\executivo\Funcionando\principal_executivo.nxc"
13	211	103	#line 211 "C:\Users\luan\Documents\GitHub\Droid\sekksi2016\executivo\Funcionando\principal_executivo.nxc"
13	212	103	#line 212 "C:\Users\luan\Documents\GitHub\Droid\sekksi2016\executivo\Funcionando\principal_executivo.nxc"
13	213	103		jmp __ASM_Label_605
13	212	105	#line 212 "C:\Users\luan\Documents\GitHub\Droid\sekksi2016\executivo\Funcionando\principal_executivo.nxc"
13	213	105		mov __signed_stack_001andaRetoDireita, __andaRetoDireita_7qG2_distanciaAtual_7qG2_000
13	212	107	#line 212 "C:\Users\luan\Documents\GitHub\Droid\sekksi2016\executivo\Funcionando\principal_executivo.nxc"
13	212	107	#line 212 "C:\Users\luan\Documents\GitHub\Droid\sekksi2016\executivo\Funcionando\principal_executivo.nxc"
13	213	107		mov __D0andaRetoDireita, __andaRetoDireita_7qG2_distParede_7qG2_000
13	212	109	#line 212 "C:\Users\luan\Documents\GitHub\Droid\sekksi2016\executivo\Funcionando\principal_executivo.nxc"
13	213	109		cmp 0, __D0andaRetoDireita, __signed_stack_001andaRetoDireita, __D0andaRetoDireita
13	213	113	#line 213 "C:\Users\luan\Documents\GitHub\Droid\sekksi2016\executivo\Funcionando\principal_executivo.nxc"
13	214	113		brtst 4, __ASM_Label_608, __D0andaRetoDireita
13	214	116	#line 214 "C:\Users\luan\Documents\GitHub\Droid\sekksi2016\executivo\Funcionando\principal_executivo.nxc"
13	215	116		set __andaRetoDireita_7qG2_pote_7qG2_000, 70
13	214	119	#line 214 "C:\Users\luan\Documents\GitHub\Droid\sekksi2016\executivo\Funcionando\principal_executivo.nxc"
13	214	119	#line 214 "C:\Users\luan\Documents\GitHub\Droid\sekksi2016\executivo\Funcionando\principal_executivo.nxc"
13	215	119	#line 215 "C:\Users\luan\Documents\GitHub\Droid\sekksi2016\executivo\Funcionando\principal_executivo.nxc"
13	216	119		set __andaRetoDireita_7qG2_potd_7qG2_000, 90
13	215	122	#line 215 "C:\Users\luan\Documents\GitHub\Droid\sekksi2016\executivo\Funcionando\principal_executivo.nxc"
13	215	122	#line 215 "C:\Users\luan\Documents\GitHub\Droid\sekksi2016\executivo\Funcionando\principal_executivo.nxc"
13	217	122	#line 217 "C:\Users\luan\Documents\GitHub\Droid\sekksi2016\executivo\Funcionando\principal_executivo.nxc"
13	217	122	#line 217 "C:\Users\luan\Documents\GitHub\Droid\sekksi2016\executivo\Funcionando\principal_executivo.nxc"
13	217	122	#line 217 "C:\Users\luan\Documents\GitHub\Droid\sekksi2016\executivo\Funcionando\principal_executivo.nxc"
13	218	122	#line 218 "C:\Users\luan\Documents\GitHub\Droid\sekksi2016\executivo\Funcionando\principal_executivo.nxc"
13	219	122		getout __D0andaRetoDireita, __constVal1, 4
13	218	126	#line 218 "C:\Users\luan\Documents\GitHub\Droid\sekksi2016\executivo\Funcionando\principal_executivo.nxc"
13	219	126		add my_tc_d, my_tc_d, __D0andaRetoDireita
13	218	130	#line 218 "C:\Users\luan\Documents\GitHub\Droid\sekksi2016\executivo\Funcionando\principal_executivo.nxc"
13	218	130	#line 218 "C:\Users\luan\Documents\GitHub\Droid\sekksi2016\executivo\Funcionando\principal_executivo.nxc"
13	219	130		mov __D0andaRetoDireita, __andaRetoDireita_7qG2_potd_7qG2_000
13	219	132	#line 219 "C:\Users\luan\Documents\GitHub\Droid\sekksi2016\executivo\Funcionando\principal_executivo.nxc"
13	220	132	#pragma macro 7
13	220	132		setout __constVal1, 2, __D0andaRetoDireita, 1, __constVal3, 8, __constVal0, 6, __constVal32, 7, __constVal0, 5, __constVal0, 10, __constVal96, 11, __constVal32, 12, __constVal32, 0, __constVal63
13	5734	155	#line 5734 "C:\Users\luan\Documents\GitHub\Droid\sekksi2016\executivo\Funcionando\principal_executivo.nxc"
13	219	155	#line 219 "C:\Users\luan\Documents\GitHub\Droid\sekksi2016\executivo\Funcionando\principal_executivo.nxc"
13	220	155	#line 220 "C:\Users\luan\Documents\GitHub\Droid\sekksi2016\executivo\Funcionando\principal_executivo.nxc"
13	221	155		getout __D0andaRetoDireita, __constVal0, 4
13	220	159	#line 220 "C:\Users\luan\Documents\GitHub\Droid\sekksi2016\executivo\Funcionando\principal_executivo.nxc"
13	221	159		add my_tc_e, my_tc_e, __D0andaRetoDireita
13	220	163	#line 220 "C:\Users\luan\Documents\GitHub\Droid\sekksi2016\executivo\Funcionando\principal_executivo.nxc"
13	220	163	#line 220 "C:\Users\luan\Documents\GitHub\Droid\sekksi2016\executivo\Funcionando\principal_executivo.nxc"
13	221	163		mov __D0andaRetoDireita, __andaRetoDireita_7qG2_pote_7qG2_000
13	222	165	#line 222 "C:\Users\luan\Documents\GitHub\Droid\sekksi2016\executivo\Funcionando\principal_executivo.nxc"
13	223	165	#pragma macro 7
13	223	165		setout __constVal0, 2, __D0andaRetoDireita, 1, __constVal3, 8, __constVal0, 6, __constVal32, 7, __constVal0, 5, __constVal0, 10, __constVal96, 11, __constVal32, 12, __constVal32, 0, __constVal63
13	5748	188	#line 5748 "C:\Users\luan\Documents\GitHub\Droid\sekksi2016\executivo\Funcionando\principal_executivo.nxc"
13	222	188	#line 222 "C:\Users\luan\Documents\GitHub\Droid\sekksi2016\executivo\Funcionando\principal_executivo.nxc"
13	224	188	#line 224 "C:\Users\luan\Documents\GitHub\Droid\sekksi2016\executivo\Funcionando\principal_executivo.nxc"
13	225	188		jmp __ASM_Label_574
13	224	190	#line 224 "C:\Users\luan\Documents\GitHub\Droid\sekksi2016\executivo\Funcionando\principal_executivo.nxc"
13	225	190	#line 225 "C:\Users\luan\Documents\GitHub\Droid\sekksi2016\executivo\Funcionando\principal_executivo.nxc"
13	226	190	#pragma macro 7
13	226	190		setout __constVal1, 2, __constVal0, 1, __constVal3, 8, __constVal0, 6, __constVal32, 7, __constVal0, 5, __constVal0, 10, __constVal96, 11, __constVal32, 12, __constVal32, 0, __constVal63
13	5755	213	#line 5755 "C:\Users\luan\Documents\GitHub\Droid\sekksi2016\executivo\Funcionando\principal_executivo.nxc"
13	225	213	#line 225 "C:\Users\luan\Documents\GitHub\Droid\sekksi2016\executivo\Funcionando\principal_executivo.nxc"
13	226	213	#line 226 "C:\Users\luan\Documents\GitHub\Droid\sekksi2016\executivo\Funcionando\principal_executivo.nxc"
13	227	213	#pragma macro 7
13	227	213		setout __constVal0, 2, __constVal0, 1, __constVal3, 8, __constVal0, 6, __constVal32, 7, __constVal0, 5, __constVal0, 10, __constVal96, 11, __constVal32, 12, __constVal32, 0, __constVal63
13	5758	236	#line 5758 "C:\Users\luan\Documents\GitHub\Droid\sekksi2016\executivo\Funcionando\principal_executivo.nxc"
13	226	236	#line 226 "C:\Users\luan\Documents\GitHub\Droid\sekksi2016\executivo\Funcionando\principal_executivo.nxc"
13	228	236	#line 228 "C:\Users\luan\Documents\GitHub\Droid\sekksi2016\executivo\Funcionando\principal_executivo.nxc"
13	229	236		subret __andaRetoDireita_return
14	230	0	#line 230 "C:\Users\luan\Documents\GitHub\Droid\sekksi2016\executivo\Funcionando\principal_executivo.nxc"
14	231	0		mov __ChecaParada_7qG2_acao_7qG2_000, __constValNeg2
14	230	2	#line 230 "C:\Users\luan\Documents\GitHub\Droid\sekksi2016\executivo\Funcionando\principal_executivo.nxc"
14	230	2	#line 230 "C:\Users\luan\Documents\GitHub\Droid\sekksi2016\executivo\Funcionando\principal_executivo.nxc"
14	231	2	#pragma macro 9
14	231	2		acquire __MRMutex
14	231	3		mov __MRArgs.QueueID, __constVal1
14	231	5		mov __MRArgs.Remove, __constVal1
14	231	7		set __RRNTmpVal, 0
14	231	10		syscall 27, __MRArgs
14	231	13		unflatten __RRNTmpVal, __RRNErr, __MRArgs.Message, __RRNTmpVal
14	231	18		mov __ChecaParada_7qG2_acao_7qG2_000, __RRNTmpVal
14	231	20		mov __D0ChecaParada, __MRArgs.Result
14	231	23		release __MRMutex
14	5774	24	#line 5774 "C:\Users\luan\Documents\GitHub\Droid\sekksi2016\executivo\Funcionando\principal_executivo.nxc"
14	230	24	#line 230 "C:\Users\luan\Documents\GitHub\Droid\sekksi2016\executivo\Funcionando\principal_executivo.nxc"
14	230	24	#line 230 "C:\Users\luan\Documents\GitHub\Droid\sekksi2016\executivo\Funcionando\principal_executivo.nxc"
14	231	24	#line 231 "C:\Users\luan\Documents\GitHub\Droid\sekksi2016\executivo\Funcionando\principal_executivo.nxc"
14	232	24		mov __signed_stack_001ChecaParada, __ChecaParada_7qG2_acao_7qG2_000
14	231	26	#line 231 "C:\Users\luan\Documents\GitHub\Droid\sekksi2016\executivo\Funcionando\principal_executivo.nxc"
14	231	26	#line 231 "C:\Users\luan\Documents\GitHub\Droid\sekksi2016\executivo\Funcionando\principal_executivo.nxc"
14	232	26		set __D0ChecaParada, 27
14	231	29	#line 231 "C:\Users\luan\Documents\GitHub\Droid\sekksi2016\executivo\Funcionando\principal_executivo.nxc"
14	232	29		cmp 4, __D0ChecaParada, __signed_stack_001ChecaParada, __D0ChecaParada
14	232	33	#line 232 "C:\Users\luan\Documents\GitHub\Droid\sekksi2016\executivo\Funcionando\principal_executivo.nxc"
14	233	33		brtst 4, __ASM_Label_625, __D0ChecaParada
14	233	36	#line 233 "C:\Users\luan\Documents\GitHub\Droid\sekksi2016\executivo\Funcionando\principal_executivo.nxc"
14	234	36		subcall Para, __Para_return
14	233	38	#line 233 "C:\Users\luan\Documents\GitHub\Droid\sekksi2016\executivo\Funcionando\principal_executivo.nxc"
14	233	38	#line 233 "C:\Users\luan\Documents\GitHub\Droid\sekksi2016\executivo\Funcionando\principal_executivo.nxc"
14	234	38	#pragma macro 14
14	234	38		acquire __RemoteMutex
14	234	39		mov __SRSTmpBuf, __DCMessageWritePacket
14	234	41		replace __SRSTmpBuf, __SRSTmpBuf, __constVal2, __constVal2
14	234	46		replace __SRSTmpBuf, __SRSTmpBuf, __constVal3, __constVal5
14	234	51		mov __SRSTmpLongVal, __constVal27
14	234	53		flatten __SRSFlattenBuf, __SRSTmpLongVal
14	234	56		arrbuild __SRSSendBuf, __SRSTmpBuf, __SRSFlattenBuf
14	234	61		acquire __CBTWMutex
14	234	62		mov __CBTWArgs.Connection, __constVal1
14	234	64		mov __CBTWArgs.Buffer, __SRSSendBuf
14	234	66		syscall 29, __CBTWArgs
14	234	69		mov __D0ChecaParada, __CBTWArgs.Result
14	234	72		release __CBTWMutex
14	234	73		release __RemoteMutex
14	5795	74	#line 5795 "C:\Users\luan\Documents\GitHub\Droid\sekksi2016\executivo\Funcionando\principal_executivo.nxc"
14	233	74	#line 233 "C:\Users\luan\Documents\GitHub\Droid\sekksi2016\executivo\Funcionando\principal_executivo.nxc"
14	233	74	#line 233 "C:\Users\luan\Documents\GitHub\Droid\sekksi2016\executivo\Funcionando\principal_executivo.nxc"
14	235	74	#line 235 "C:\Users\luan\Documents\GitHub\Droid\sekksi2016\executivo\Funcionando\principal_executivo.nxc"
14	236	74	#pragma macro 9
14	236	74		acquire __MRMutex
14	236	75		mov __MRArgs.QueueID, __constVal1
14	236	77		mov __MRArgs.Remove, __constVal1
14	236	79		set __RRNTmpVal, 0
14	236	82		syscall 27, __MRArgs
14	236	85		unflatten __RRNTmpVal, __RRNErr, __MRArgs.Message, __RRNTmpVal
14	236	90		mov __ChecaParada_7qG2_acao_7qG2_000, __RRNTmpVal
14	236	92		mov __D0ChecaParada, __MRArgs.Result
14	236	95		release __MRMutex
14	5800	96	#line 5800 "C:\Users\luan\Documents\GitHub\Droid\sekksi2016\executivo\Funcionando\principal_executivo.nxc"
14	235	96	#line 235 "C:\Users\luan\Documents\GitHub\Droid\sekksi2016\executivo\Funcionando\principal_executivo.nxc"
14	235	96	#line 235 "C:\Users\luan\Documents\GitHub\Droid\sekksi2016\executivo\Funcionando\principal_executivo.nxc"
14	236	96	#line 236 "C:\Users\luan\Documents\GitHub\Droid\sekksi2016\executivo\Funcionando\principal_executivo.nxc"
14	237	96		mov __signed_stack_001ChecaParada, __ChecaParada_7qG2_acao_7qG2_000
14	236	98	#line 236 "C:\Users\luan\Documents\GitHub\Droid\sekksi2016\executivo\Funcionando\principal_executivo.nxc"
14	236	98	#line 236 "C:\Users\luan\Documents\GitHub\Droid\sekksi2016\executivo\Funcionando\principal_executivo.nxc"
14	237	98		set __D0ChecaParada, 27
14	236	101	#line 236 "C:\Users\luan\Documents\GitHub\Droid\sekksi2016\executivo\Funcionando\principal_executivo.nxc"
14	237	101		cmp 4, __D0ChecaParada, __signed_stack_001ChecaParada, __D0ChecaParada
14	237	105	#line 237 "C:\Users\luan\Documents\GitHub\Droid\sekksi2016\executivo\Funcionando\principal_executivo.nxc"
14	238	105		brtst 4, __ASM_Label_627, __D0ChecaParada
14	237	108	#line 237 "C:\Users\luan\Documents\GitHub\Droid\sekksi2016\executivo\Funcionando\principal_executivo.nxc"
14	238	108		jmp __ASM_Label_626
14	237	110	#line 237 "C:\Users\luan\Documents\GitHub\Droid\sekksi2016\executivo\Funcionando\principal_executivo.nxc"
14	237	110	#line 237 "C:\Users\luan\Documents\GitHub\Droid\sekksi2016\executivo\Funcionando\principal_executivo.nxc"
14	237	110	#line 237 "C:\Users\luan\Documents\GitHub\Droid\sekksi2016\executivo\Funcionando\principal_executivo.nxc"
14	238	110		mov __signed_stack_001ChecaParada, __ChecaParada_7qG2_acao_7qG2_000
14	237	112	#line 237 "C:\Users\luan\Documents\GitHub\Droid\sekksi2016\executivo\Funcionando\principal_executivo.nxc"
14	237	112	#line 237 "C:\Users\luan\Documents\GitHub\Droid\sekksi2016\executivo\Funcionando\principal_executivo.nxc"
14	238	112		set __D0ChecaParada, 6
14	237	115	#line 237 "C:\Users\luan\Documents\GitHub\Droid\sekksi2016\executivo\Funcionando\principal_executivo.nxc"
14	238	115		cmp 4, __D0ChecaParada, __signed_stack_001ChecaParada, __D0ChecaParada
14	239	119	#line 239 "C:\Users\luan\Documents\GitHub\Droid\sekksi2016\executivo\Funcionando\principal_executivo.nxc"
14	240	119		brtst 4, __ASM_Label_632, __D0ChecaParada
14	239	122	#line 239 "C:\Users\luan\Documents\GitHub\Droid\sekksi2016\executivo\Funcionando\principal_executivo.nxc"
14	240	122	#pragma macro 14
14	240	122		acquire __RemoteMutex
14	240	123		mov __SRSTmpBuf, __DCMessageWritePacket
14	240	125		replace __SRSTmpBuf, __SRSTmpBuf, __constVal2, __constVal2
14	240	130		replace __SRSTmpBuf, __SRSTmpBuf, __constVal3, __constVal5
14	240	135		mov __SRSTmpLongVal, __constVal6
14	240	138		flatten __SRSFlattenBuf, __SRSTmpLongVal
14	240	141		arrbuild __SRSSendBuf, __SRSTmpBuf, __SRSFlattenBuf
14	240	146		acquire __CBTWMutex
14	240	147		mov __CBTWArgs.Connection, __constVal1
14	240	149		mov __CBTWArgs.Buffer, __SRSSendBuf
14	240	151		syscall 29, __CBTWArgs
14	240	154		mov __D0ChecaParada, __CBTWArgs.Result
14	240	157		release __CBTWMutex
14	240	158		release __RemoteMutex
14	5837	159	#line 5837 "C:\Users\luan\Documents\GitHub\Droid\sekksi2016\executivo\Funcionando\principal_executivo.nxc"
14	239	159	#line 239 "C:\Users\luan\Documents\GitHub\Droid\sekksi2016\executivo\Funcionando\principal_executivo.nxc"
14	239	159	#line 239 "C:\Users\luan\Documents\GitHub\Droid\sekksi2016\executivo\Funcionando\principal_executivo.nxc"
14	244	159	#line 244 "C:\Users\luan\Documents\GitHub\Droid\sekksi2016\executivo\Funcionando\principal_executivo.nxc"
14	245	159		jmp __ASM_Label_633
14	245	161	#line 245 "C:\Users\luan\Documents\GitHub\Droid\sekksi2016\executivo\Funcionando\principal_executivo.nxc"
14	246	161		subcall Rejeitar, __Rejeitar_return
14	245	163	#line 245 "C:\Users\luan\Documents\GitHub\Droid\sekksi2016\executivo\Funcionando\principal_executivo.nxc"
14	246	163	#line 246 "C:\Users\luan\Documents\GitHub\Droid\sekksi2016\executivo\Funcionando\principal_executivo.nxc"
14	246	163	#line 246 "C:\Users\luan\Documents\GitHub\Droid\sekksi2016\executivo\Funcionando\principal_executivo.nxc"
14	247	163		jmp __ASM_Label_634
14	246	165	#line 246 "C:\Users\luan\Documents\GitHub\Droid\sekksi2016\executivo\Funcionando\principal_executivo.nxc"
14	247	165		mov __signed_stack_001ChecaParada, __ChecaParada_7qG2_acao_7qG2_000
14	246	167	#line 246 "C:\Users\luan\Documents\GitHub\Droid\sekksi2016\executivo\Funcionando\principal_executivo.nxc"
14	246	167	#line 246 "C:\Users\luan\Documents\GitHub\Droid\sekksi2016\executivo\Funcionando\principal_executivo.nxc"
14	247	167		set __D0ChecaParada, 1
14	246	170	#line 246 "C:\Users\luan\Documents\GitHub\Droid\sekksi2016\executivo\Funcionando\principal_executivo.nxc"
14	247	170		cmp 4, __D0ChecaParada, __signed_stack_001ChecaParada, __D0ChecaParada
14	247	174	#line 247 "C:\Users\luan\Documents\GitHub\Droid\sekksi2016\executivo\Funcionando\principal_executivo.nxc"
14	248	174		brtst 4, __ASM_Label_637, __D0ChecaParada
14	247	177	#line 247 "C:\Users\luan\Documents\GitHub\Droid\sekksi2016\executivo\Funcionando\principal_executivo.nxc"
14	248	177		set __vira_7qG2_angulo_7qG2_000, 90
14	247	180	#line 247 "C:\Users\luan\Documents\GitHub\Droid\sekksi2016\executivo\Funcionando\principal_executivo.nxc"
14	247	180	#line 247 "C:\Users\luan\Documents\GitHub\Droid\sekksi2016\executivo\Funcionando\principal_executivo.nxc"
14	248	180		set __vira_7qG2_direcao_7qG2_000, 2
14	247	183	#line 247 "C:\Users\luan\Documents\GitHub\Droid\sekksi2016\executivo\Funcionando\principal_executivo.nxc"
14	248	183	#line 248 "C:\Users\luan\Documents\GitHub\Droid\sekksi2016\executivo\Funcionando\principal_executivo.nxc"
14	249	183		subcall vira, __vira_return
14	248	185	#line 248 "C:\Users\luan\Documents\GitHub\Droid\sekksi2016\executivo\Funcionando\principal_executivo.nxc"
14	251	185	#line 251 "C:\Users\luan\Documents\GitHub\Droid\sekksi2016\executivo\Funcionando\principal_executivo.nxc"
14	251	185	#line 251 "C:\Users\luan\Documents\GitHub\Droid\sekksi2016\executivo\Funcionando\principal_executivo.nxc"
14	251	185	#line 251 "C:\Users\luan\Documents\GitHub\Droid\sekksi2016\executivo\Funcionando\principal_executivo.nxc"
14	252	185		subret __ChecaParada_return
15	253	0	#line 253 "C:\Users\luan\Documents\GitHub\Droid\sekksi2016\executivo\Funcionando\principal_executivo.nxc"
15	254	0		set __Rejeitar_7qG2_passei_7qG2_000, 0
15	253	3	#line 253 "C:\Users\luan\Documents\GitHub\Droid\sekksi2016\executivo\Funcionando\principal_executivo.nxc"
15	253	3	#line 253 "C:\Users\luan\Documents\GitHub\Droid\sekksi2016\executivo\Funcionando\principal_executivo.nxc"
15	254	3		set __ViraUmaRoda_7qG2_ang_7qG2_000, 900
15	253	6	#line 253 "C:\Users\luan\Documents\GitHub\Droid\sekksi2016\executivo\Funcionando\principal_executivo.nxc"
15	254	6	#line 254 "C:\Users\luan\Documents\GitHub\Droid\sekksi2016\executivo\Funcionando\principal_executivo.nxc"
15	255	6		subcall ViraUmaRoda, __ViraUmaRoda_return
15	254	8	#line 254 "C:\Users\luan\Documents\GitHub\Droid\sekksi2016\executivo\Funcionando\principal_executivo.nxc"
15	254	8	#line 254 "C:\Users\luan\Documents\GitHub\Droid\sekksi2016\executivo\Funcionando\principal_executivo.nxc"
15	255	8	#pragma macro 14
15	255	8		acquire __RemoteMutex
15	255	9		mov __SRSTmpBuf, __DCMessageWritePacket
15	255	11		replace __SRSTmpBuf, __SRSTmpBuf, __constVal2, __constVal2
15	255	16		replace __SRSTmpBuf, __SRSTmpBuf, __constVal3, __constVal5
15	255	21		mov __SRSTmpLongVal, __constVal7
15	255	23		flatten __SRSFlattenBuf, __SRSTmpLongVal
15	255	26		arrbuild __SRSSendBuf, __SRSTmpBuf, __SRSFlattenBuf
15	255	31		acquire __CBTWMutex
15	255	32		mov __CBTWArgs.Connection, __constVal1
15	255	34		mov __CBTWArgs.Buffer, __SRSSendBuf
15	255	36		syscall 29, __CBTWArgs
15	255	39		mov __D0Rejeitar, __CBTWArgs.Result
15	255	42		release __CBTWMutex
15	255	43		release __RemoteMutex
15	5901	44	#line 5901 "C:\Users\luan\Documents\GitHub\Droid\sekksi2016\executivo\Funcionando\principal_executivo.nxc"
15	254	44	#line 254 "C:\Users\luan\Documents\GitHub\Droid\sekksi2016\executivo\Funcionando\principal_executivo.nxc"
15	254	44	#line 254 "C:\Users\luan\Documents\GitHub\Droid\sekksi2016\executivo\Funcionando\principal_executivo.nxc"
15	256	44	#line 256 "C:\Users\luan\Documents\GitHub\Droid\sekksi2016\executivo\Funcionando\principal_executivo.nxc"
15	257	44	#pragma macro 9
15	257	44		acquire __MRMutex
15	257	45		mov __MRArgs.QueueID, __constVal1
15	257	47		mov __MRArgs.Remove, __constVal1
15	257	49		set __RRNTmpVal, 0
15	257	52		syscall 27, __MRArgs
15	257	55		unflatten __RRNTmpVal, __RRNErr, __MRArgs.Message, __RRNTmpVal
15	257	60		mov __Rejeitar_7qG2_passei_7qG2_000, __RRNTmpVal
15	257	62		mov __D0Rejeitar, __MRArgs.Result
15	257	65		release __MRMutex
15	5906	66	#line 5906 "C:\Users\luan\Documents\GitHub\Droid\sekksi2016\executivo\Funcionando\principal_executivo.nxc"
15	256	66	#line 256 "C:\Users\luan\Documents\GitHub\Droid\sekksi2016\executivo\Funcionando\principal_executivo.nxc"
15	256	66	#line 256 "C:\Users\luan\Documents\GitHub\Droid\sekksi2016\executivo\Funcionando\principal_executivo.nxc"
15	257	66	#line 257 "C:\Users\luan\Documents\GitHub\Droid\sekksi2016\executivo\Funcionando\principal_executivo.nxc"
15	258	66		set __Wait_7qG2_ms_7qG2_000_inline_Rejeitar, 30
15	257	69	#line 257 "C:\Users\luan\Documents\GitHub\Droid\sekksi2016\executivo\Funcionando\principal_executivo.nxc"
15	8551	69	#line 8551 "NXCDefs.h"
15	8552	69		wait2 NA, __Wait_7qG2_ms_7qG2_000_inline_Rejeitar
15	8551	72	#line 8551 "NXCDefs.h"
15	258	72	#line 258 "C:\Users\luan\Documents\GitHub\Droid\sekksi2016\executivo\Funcionando\principal_executivo.nxc"
15	258	72	#line 258 "C:\Users\luan\Documents\GitHub\Droid\sekksi2016\executivo\Funcionando\principal_executivo.nxc"
15	259	72		mov __signed_stack_001Rejeitar, __Rejeitar_7qG2_passei_7qG2_000
15	258	74	#line 258 "C:\Users\luan\Documents\GitHub\Droid\sekksi2016\executivo\Funcionando\principal_executivo.nxc"
15	258	74	#line 258 "C:\Users\luan\Documents\GitHub\Droid\sekksi2016\executivo\Funcionando\principal_executivo.nxc"
15	259	74		set __D0Rejeitar, 8
15	258	77	#line 258 "C:\Users\luan\Documents\GitHub\Droid\sekksi2016\executivo\Funcionando\principal_executivo.nxc"
15	259	77		cmp 5, __D0Rejeitar, __signed_stack_001Rejeitar, __D0Rejeitar
15	259	81	#line 259 "C:\Users\luan\Documents\GitHub\Droid\sekksi2016\executivo\Funcionando\principal_executivo.nxc"
15	260	81		brtst 4, __ASM_Label_647, __D0Rejeitar
15	259	84	#line 259 "C:\Users\luan\Documents\GitHub\Droid\sekksi2016\executivo\Funcionando\principal_executivo.nxc"
15	260	84		jmp __ASM_Label_646
15	259	86	#line 259 "C:\Users\luan\Documents\GitHub\Droid\sekksi2016\executivo\Funcionando\principal_executivo.nxc"
15	259	86	#line 259 "C:\Users\luan\Documents\GitHub\Droid\sekksi2016\executivo\Funcionando\principal_executivo.nxc"
15	259	86	#line 259 "C:\Users\luan\Documents\GitHub\Droid\sekksi2016\executivo\Funcionando\principal_executivo.nxc"
15	260	86		mov __ViraUmaRoda_7qG2_ang_7qG2_000, __constValNeg900
15	259	88	#line 259 "C:\Users\luan\Documents\GitHub\Droid\sekksi2016\executivo\Funcionando\principal_executivo.nxc"
15	260	88	#line 260 "C:\Users\luan\Documents\GitHub\Droid\sekksi2016\executivo\Funcionando\principal_executivo.nxc"
15	261	88		subcall ViraUmaRoda, __ViraUmaRoda_return
15	260	90	#line 260 "C:\Users\luan\Documents\GitHub\Droid\sekksi2016\executivo\Funcionando\principal_executivo.nxc"
15	260	90	#line 260 "C:\Users\luan\Documents\GitHub\Droid\sekksi2016\executivo\Funcionando\principal_executivo.nxc"
15	261	90	#pragma macro 14
15	261	90		acquire __RemoteMutex
15	261	91		mov __SRSTmpBuf, __DCMessageWritePacket
15	261	93		replace __SRSTmpBuf, __SRSTmpBuf, __constVal2, __constVal2
15	261	98		replace __SRSTmpBuf, __SRSTmpBuf, __constVal3, __constVal5
15	261	103		mov __SRSTmpLongVal, __constVal8
15	261	105		flatten __SRSFlattenBuf, __SRSTmpLongVal
15	261	108		arrbuild __SRSSendBuf, __SRSTmpBuf, __SRSFlattenBuf
15	261	113		acquire __CBTWMutex
15	261	114		mov __CBTWArgs.Connection, __constVal1
15	261	116		mov __CBTWArgs.Buffer, __SRSSendBuf
15	261	118		syscall 29, __CBTWArgs
15	261	121		mov __D0Rejeitar, __CBTWArgs.Result
15	261	124		release __CBTWMutex
15	261	125		release __RemoteMutex
15	5948	126	#line 5948 "C:\Users\luan\Documents\GitHub\Droid\sekksi2016\executivo\Funcionando\principal_executivo.nxc"
15	260	126	#line 260 "C:\Users\luan\Documents\GitHub\Droid\sekksi2016\executivo\Funcionando\principal_executivo.nxc"
15	260	126	#line 260 "C:\Users\luan\Documents\GitHub\Droid\sekksi2016\executivo\Funcionando\principal_executivo.nxc"
15	263	126	#line 263 "C:\Users\luan\Documents\GitHub\Droid\sekksi2016\executivo\Funcionando\principal_executivo.nxc"
15	264	126		subret __Rejeitar_return
16	265	0	#line 265 "C:\Users\luan\Documents\GitHub\Droid\sekksi2016\executivo\Funcionando\principal_executivo.nxc"
16	266	0	#pragma macro 24
16	266	0		acquire __RLSBmutex3
16	266	1		mov __RLSReadBuf3, __RLSBbufLSWrite1
16	266	3		set __RLSBytesCount3, 1
16	266	6		subcall __ReadLSBytes3, ____ReadLSBytes3_return
16	266	9		index __D0IniciaCorDoChao, __RLSReadBuf3, 65535
16	266	13		release __RLSBmutex3
16	5957	14	#line 5957 "C:\Users\luan\Documents\GitHub\Droid\sekksi2016\executivo\Funcionando\principal_executivo.nxc"
16	265	14	#line 265 "C:\Users\luan\Documents\GitHub\Droid\sekksi2016\executivo\Funcionando\principal_executivo.nxc"
16	266	14		mov __IniciaCorDoChao_7qG2_corEsq_7qG2_000, __D0IniciaCorDoChao
16	265	16	#line 265 "C:\Users\luan\Documents\GitHub\Droid\sekksi2016\executivo\Funcionando\principal_executivo.nxc"
16	265	16	#line 265 "C:\Users\luan\Documents\GitHub\Droid\sekksi2016\executivo\Funcionando\principal_executivo.nxc"
16	266	16	#line 266 "C:\Users\luan\Documents\GitHub\Droid\sekksi2016\executivo\Funcionando\principal_executivo.nxc"
16	267	16	#pragma macro 24
16	267	16		acquire __RLSBmutex2
16	267	17		mov __RLSReadBuf2, __RLSBbufLSWrite1
16	267	19		set __RLSBytesCount2, 1
16	267	22		subcall __ReadLSBytes2, ____ReadLSBytes2_return
16	267	25		index __D0IniciaCorDoChao, __RLSReadBuf2, 65535
16	267	29		release __RLSBmutex2
16	5965	30	#line 5965 "C:\Users\luan\Documents\GitHub\Droid\sekksi2016\executivo\Funcionando\principal_executivo.nxc"
16	266	30	#line 266 "C:\Users\luan\Documents\GitHub\Droid\sekksi2016\executivo\Funcionando\principal_executivo.nxc"
16	267	30		mov __IniciaCorDoChao_7qG2_corDir_7qG2_000, __D0IniciaCorDoChao
16	266	32	#line 266 "C:\Users\luan\Documents\GitHub\Droid\sekksi2016\executivo\Funcionando\principal_executivo.nxc"
16	266	32	#line 266 "C:\Users\luan\Documents\GitHub\Droid\sekksi2016\executivo\Funcionando\principal_executivo.nxc"
16	270	32	#line 270 "C:\Users\luan\Documents\GitHub\Droid\sekksi2016\executivo\Funcionando\principal_executivo.nxc"
16	271	32		mov __signed_stack_001IniciaCorDoChao, __IniciaCorDoChao_7qG2_corDir_7qG2_000
16	270	34	#line 270 "C:\Users\luan\Documents\GitHub\Droid\sekksi2016\executivo\Funcionando\principal_executivo.nxc"
16	270	34	#line 270 "C:\Users\luan\Documents\GitHub\Droid\sekksi2016\executivo\Funcionando\principal_executivo.nxc"
16	271	34		set __D0IniciaCorDoChao, 5
16	270	37	#line 270 "C:\Users\luan\Documents\GitHub\Droid\sekksi2016\executivo\Funcionando\principal_executivo.nxc"
16	271	37		cmp 4, __D0IniciaCorDoChao, __signed_stack_001IniciaCorDoChao, __D0IniciaCorDoChao
16	270	41	#line 270 "C:\Users\luan\Documents\GitHub\Droid\sekksi2016\executivo\Funcionando\principal_executivo.nxc"
16	271	41		brtst 5, __ASM_Label_658, __D0IniciaCorDoChao
16	270	44	#line 270 "C:\Users\luan\Documents\GitHub\Droid\sekksi2016\executivo\Funcionando\principal_executivo.nxc"
16	271	44		mov __signed_stack_001IniciaCorDoChao, __IniciaCorDoChao_7qG2_corEsq_7qG2_000
16	270	46	#line 270 "C:\Users\luan\Documents\GitHub\Droid\sekksi2016\executivo\Funcionando\principal_executivo.nxc"
16	270	46	#line 270 "C:\Users\luan\Documents\GitHub\Droid\sekksi2016\executivo\Funcionando\principal_executivo.nxc"
16	271	46		set __D0IniciaCorDoChao, 5
16	270	49	#line 270 "C:\Users\luan\Documents\GitHub\Droid\sekksi2016\executivo\Funcionando\principal_executivo.nxc"
16	271	49		cmp 4, __D0IniciaCorDoChao, __signed_stack_001IniciaCorDoChao, __D0IniciaCorDoChao
16	272	53	#line 272 "C:\Users\luan\Documents\GitHub\Droid\sekksi2016\executivo\Funcionando\principal_executivo.nxc"
16	273	53		brtst 4, __ASM_Label_665, __D0IniciaCorDoChao
16	272	56	#line 272 "C:\Users\luan\Documents\GitHub\Droid\sekksi2016\executivo\Funcionando\principal_executivo.nxc"
16	273	56		set __RetornaBoneco_7qG2_cor_7qG2_000, 5
16	272	59	#line 272 "C:\Users\luan\Documents\GitHub\Droid\sekksi2016\executivo\Funcionando\principal_executivo.nxc"
16	273	59	#line 273 "C:\Users\luan\Documents\GitHub\Droid\sekksi2016\executivo\Funcionando\principal_executivo.nxc"
16	274	59		subcall RetornaBoneco, __RetornaBoneco_return
16	273	61	#line 273 "C:\Users\luan\Documents\GitHub\Droid\sekksi2016\executivo\Funcionando\principal_executivo.nxc"
16	276	61	#line 276 "C:\Users\luan\Documents\GitHub\Droid\sekksi2016\executivo\Funcionando\principal_executivo.nxc"
16	277	61		jmp __ASM_Label_668
16	276	63	#line 276 "C:\Users\luan\Documents\GitHub\Droid\sekksi2016\executivo\Funcionando\principal_executivo.nxc"
16	277	63		set __RetornaBoneco_7qG2_cor_7qG2_000, 3
16	276	66	#line 276 "C:\Users\luan\Documents\GitHub\Droid\sekksi2016\executivo\Funcionando\principal_executivo.nxc"
16	277	66	#line 277 "C:\Users\luan\Documents\GitHub\Droid\sekksi2016\executivo\Funcionando\principal_executivo.nxc"
16	278	66		subcall RetornaBoneco, __RetornaBoneco_return
16	277	68	#line 277 "C:\Users\luan\Documents\GitHub\Droid\sekksi2016\executivo\Funcionando\principal_executivo.nxc"
16	280	68	#line 280 "C:\Users\luan\Documents\GitHub\Droid\sekksi2016\executivo\Funcionando\principal_executivo.nxc"
16	280	68	#line 280 "C:\Users\luan\Documents\GitHub\Droid\sekksi2016\executivo\Funcionando\principal_executivo.nxc"
16	281	68		subret __IniciaCorDoChao_return
17	282	0	#line 282 "C:\Users\luan\Documents\GitHub\Droid\sekksi2016\executivo\Funcionando\principal_executivo.nxc"
17	283	0	#pragma macro 24
17	283	0		acquire __RLSBmutex3
17	283	1		mov __RLSReadBuf3, __RLSBbufLSWrite1
17	283	3		set __RLSBytesCount3, 1
17	283	6		subcall __ReadLSBytes3, ____ReadLSBytes3_return
17	283	9		index __D0CorDoChao, __RLSReadBuf3, 65535
17	283	13		release __RLSBmutex3
17	6028	14	#line 6028 "C:\Users\luan\Documents\GitHub\Droid\sekksi2016\executivo\Funcionando\principal_executivo.nxc"
17	282	14	#line 282 "C:\Users\luan\Documents\GitHub\Droid\sekksi2016\executivo\Funcionando\principal_executivo.nxc"
17	283	14		mov __CorDoChao_7qG2_corEsq_7qG2_000, __D0CorDoChao
17	282	16	#line 282 "C:\Users\luan\Documents\GitHub\Droid\sekksi2016\executivo\Funcionando\principal_executivo.nxc"
17	282	16	#line 282 "C:\Users\luan\Documents\GitHub\Droid\sekksi2016\executivo\Funcionando\principal_executivo.nxc"
17	283	16	#line 283 "C:\Users\luan\Documents\GitHub\Droid\sekksi2016\executivo\Funcionando\principal_executivo.nxc"
17	284	16	#pragma macro 24
17	284	16		acquire __RLSBmutex2
17	284	17		mov __RLSReadBuf2, __RLSBbufLSWrite1
17	284	19		set __RLSBytesCount2, 1
17	284	22		subcall __ReadLSBytes2, ____ReadLSBytes2_return
17	284	25		index __D0CorDoChao, __RLSReadBuf2, 65535
17	284	29		release __RLSBmutex2
17	6036	30	#line 6036 "C:\Users\luan\Documents\GitHub\Droid\sekksi2016\executivo\Funcionando\principal_executivo.nxc"
17	283	30	#line 283 "C:\Users\luan\Documents\GitHub\Droid\sekksi2016\executivo\Funcionando\principal_executivo.nxc"
17	284	30		mov __CorDoChao_7qG2_corDir_7qG2_000, __D0CorDoChao
17	283	32	#line 283 "C:\Users\luan\Documents\GitHub\Droid\sekksi2016\executivo\Funcionando\principal_executivo.nxc"
17	283	32	#line 283 "C:\Users\luan\Documents\GitHub\Droid\sekksi2016\executivo\Funcionando\principal_executivo.nxc"
17	285	32	#line 285 "C:\Users\luan\Documents\GitHub\Droid\sekksi2016\executivo\Funcionando\principal_executivo.nxc"
17	286	32		mov __signed_stack_001CorDoChao, __CorDoChao_7qG2_corDir_7qG2_000
17	285	34	#line 285 "C:\Users\luan\Documents\GitHub\Droid\sekksi2016\executivo\Funcionando\principal_executivo.nxc"
17	285	34	#line 285 "C:\Users\luan\Documents\GitHub\Droid\sekksi2016\executivo\Funcionando\principal_executivo.nxc"
17	286	34		set __D0CorDoChao, 12
17	285	37	#line 285 "C:\Users\luan\Documents\GitHub\Droid\sekksi2016\executivo\Funcionando\principal_executivo.nxc"
17	286	37		cmp 4, __D0CorDoChao, __signed_stack_001CorDoChao, __D0CorDoChao
17	285	41	#line 285 "C:\Users\luan\Documents\GitHub\Droid\sekksi2016\executivo\Funcionando\principal_executivo.nxc"
17	286	41		brtst 5, __ASM_Label_675, __D0CorDoChao
17	285	44	#line 285 "C:\Users\luan\Documents\GitHub\Droid\sekksi2016\executivo\Funcionando\principal_executivo.nxc"
17	286	44		mov __signed_stack_001CorDoChao, __CorDoChao_7qG2_corEsq_7qG2_000
17	285	46	#line 285 "C:\Users\luan\Documents\GitHub\Droid\sekksi2016\executivo\Funcionando\principal_executivo.nxc"
17	285	46	#line 285 "C:\Users\luan\Documents\GitHub\Droid\sekksi2016\executivo\Funcionando\principal_executivo.nxc"
17	286	46		set __D0CorDoChao, 12
17	285	49	#line 285 "C:\Users\luan\Documents\GitHub\Droid\sekksi2016\executivo\Funcionando\principal_executivo.nxc"
17	286	49		cmp 4, __D0CorDoChao, __signed_stack_001CorDoChao, __D0CorDoChao
17	286	53	#line 286 "C:\Users\luan\Documents\GitHub\Droid\sekksi2016\executivo\Funcionando\principal_executivo.nxc"
17	287	53		brtst 4, __ASM_Label_682, __D0CorDoChao
17	287	56	#line 287 "C:\Users\luan\Documents\GitHub\Droid\sekksi2016\executivo\Funcionando\principal_executivo.nxc"
17	288	56		subcall DaReh, __DaReh_return
17	287	58	#line 287 "C:\Users\luan\Documents\GitHub\Droid\sekksi2016\executivo\Funcionando\principal_executivo.nxc"
17	290	58	#line 290 "C:\Users\luan\Documents\GitHub\Droid\sekksi2016\executivo\Funcionando\principal_executivo.nxc"
17	290	58	#line 290 "C:\Users\luan\Documents\GitHub\Droid\sekksi2016\executivo\Funcionando\principal_executivo.nxc"
17	291	58		subret __CorDoChao_return
18	292	0	#line 292 "C:\Users\luan\Documents\GitHub\Droid\sekksi2016\executivo\Funcionando\principal_executivo.nxc"
18	293	0		set __RetornaBoneco_7qG2_passei_7qG2_000, 0
18	292	3	#line 292 "C:\Users\luan\Documents\GitHub\Droid\sekksi2016\executivo\Funcionando\principal_executivo.nxc"
18	6678	3	#line 6678 "NXCDefs.h"
18	6679	3	#pragma macro 6
18	6679	3		acquire __PointOutMutex
18	6679	4		mov __PointOutArgs.Location.X, __constVal200
18	6679	7		mov __PointOutArgs.Location.Y, __constVal200
18	6679	10		mov __PointOutArgs.Options, __constVal1
18	6679	12		syscall 14, __PointOutArgs
18	6679	15		release __PointOutMutex
18	6093	16	#line 6093 "NXCDefs.h"
18	6678	16	#line 6678 "NXCDefs.h"
18	293	16	#line 293 "C:\Users\luan\Documents\GitHub\Droid\sekksi2016\executivo\Funcionando\principal_executivo.nxc"
18	295	16	#line 295 "C:\Users\luan\Documents\GitHub\Droid\sekksi2016\executivo\Funcionando\principal_executivo.nxc"
18	296	16		mov __signed_stack_001RetornaBoneco, __RetornaBoneco_7qG2_cor_7qG2_000
18	295	18	#line 295 "C:\Users\luan\Documents\GitHub\Droid\sekksi2016\executivo\Funcionando\principal_executivo.nxc"
18	295	18	#line 295 "C:\Users\luan\Documents\GitHub\Droid\sekksi2016\executivo\Funcionando\principal_executivo.nxc"
18	296	18		set __D0RetornaBoneco, 3
18	295	21	#line 295 "C:\Users\luan\Documents\GitHub\Droid\sekksi2016\executivo\Funcionando\principal_executivo.nxc"
18	296	21		cmp 4, __D0RetornaBoneco, __signed_stack_001RetornaBoneco, __D0RetornaBoneco
18	297	25	#line 297 "C:\Users\luan\Documents\GitHub\Droid\sekksi2016\executivo\Funcionando\principal_executivo.nxc"
18	298	25		brtst 4, __ASM_Label_689, __D0RetornaBoneco
18	297	28	#line 297 "C:\Users\luan\Documents\GitHub\Droid\sekksi2016\executivo\Funcionando\principal_executivo.nxc"
18	298	28	#pragma macro 14
18	298	28		acquire __RemoteMutex
18	298	29		mov __SRSTmpBuf, __DCMessageWritePacket
18	298	31		replace __SRSTmpBuf, __SRSTmpBuf, __constVal2, __constVal2
18	298	36		replace __SRSTmpBuf, __SRSTmpBuf, __constVal3, __constVal5
18	298	41		mov __SRSTmpLongVal, __constVal4
18	298	44		flatten __SRSFlattenBuf, __SRSTmpLongVal
18	298	47		arrbuild __SRSSendBuf, __SRSTmpBuf, __SRSFlattenBuf
18	298	52		acquire __CBTWMutex
18	298	53		mov __CBTWArgs.Connection, __constVal1
18	298	55		mov __CBTWArgs.Buffer, __SRSSendBuf
18	298	57		syscall 29, __CBTWArgs
18	298	60		mov __D0RetornaBoneco, __CBTWArgs.Result
18	298	63		release __CBTWMutex
18	298	64		release __RemoteMutex
18	6112	65	#line 6112 "C:\Users\luan\Documents\GitHub\Droid\sekksi2016\executivo\Funcionando\principal_executivo.nxc"
18	297	65	#line 297 "C:\Users\luan\Documents\GitHub\Droid\sekksi2016\executivo\Funcionando\principal_executivo.nxc"
18	297	65	#line 297 "C:\Users\luan\Documents\GitHub\Droid\sekksi2016\executivo\Funcionando\principal_executivo.nxc"
18	298	65	#line 298 "C:\Users\luan\Documents\GitHub\Droid\sekksi2016\executivo\Funcionando\principal_executivo.nxc"
18	299	65		set __Wait_7qG2_ms_7qG2_000_inline_RetornaBoneco, 30
18	298	68	#line 298 "C:\Users\luan\Documents\GitHub\Droid\sekksi2016\executivo\Funcionando\principal_executivo.nxc"
18	8551	68	#line 8551 "NXCDefs.h"
18	8552	68		wait2 NA, __Wait_7qG2_ms_7qG2_000_inline_RetornaBoneco
18	8551	71	#line 8551 "NXCDefs.h"
18	299	71	#line 299 "C:\Users\luan\Documents\GitHub\Droid\sekksi2016\executivo\Funcionando\principal_executivo.nxc"
18	300	71	#line 300 "C:\Users\luan\Documents\GitHub\Droid\sekksi2016\executivo\Funcionando\principal_executivo.nxc"
18	301	71		subcall bip, __bip_return
18	300	73	#line 300 "C:\Users\luan\Documents\GitHub\Droid\sekksi2016\executivo\Funcionando\principal_executivo.nxc"
18	300	73	#line 300 "C:\Users\luan\Documents\GitHub\Droid\sekksi2016\executivo\Funcionando\principal_executivo.nxc"
18	301	73		jmp __ASM_Label_692
18	300	75	#line 300 "C:\Users\luan\Documents\GitHub\Droid\sekksi2016\executivo\Funcionando\principal_executivo.nxc"
18	301	75		mov __signed_stack_001RetornaBoneco, __RetornaBoneco_7qG2_cor_7qG2_000
18	300	77	#line 300 "C:\Users\luan\Documents\GitHub\Droid\sekksi2016\executivo\Funcionando\principal_executivo.nxc"
18	300	77	#line 300 "C:\Users\luan\Documents\GitHub\Droid\sekksi2016\executivo\Funcionando\principal_executivo.nxc"
18	301	77		set __D0RetornaBoneco, 5
18	300	80	#line 300 "C:\Users\luan\Documents\GitHub\Droid\sekksi2016\executivo\Funcionando\principal_executivo.nxc"
18	301	80		cmp 4, __D0RetornaBoneco, __signed_stack_001RetornaBoneco, __D0RetornaBoneco
18	301	84	#line 301 "C:\Users\luan\Documents\GitHub\Droid\sekksi2016\executivo\Funcionando\principal_executivo.nxc"
18	302	84		brtst 4, __ASM_Label_695, __D0RetornaBoneco
18	301	87	#line 301 "C:\Users\luan\Documents\GitHub\Droid\sekksi2016\executivo\Funcionando\principal_executivo.nxc"
18	302	87	#pragma macro 14
18	302	87		acquire __RemoteMutex
18	302	88		mov __SRSTmpBuf, __DCMessageWritePacket
18	302	90		replace __SRSTmpBuf, __SRSTmpBuf, __constVal2, __constVal2
18	302	95		replace __SRSTmpBuf, __SRSTmpBuf, __constVal3, __constVal5
18	302	100		mov __SRSTmpLongVal, __constVal12
18	302	102		flatten __SRSFlattenBuf, __SRSTmpLongVal
18	302	105		arrbuild __SRSSendBuf, __SRSTmpBuf, __SRSFlattenBuf
18	302	110		acquire __CBTWMutex
18	302	111		mov __CBTWArgs.Connection, __constVal1
18	302	113		mov __CBTWArgs.Buffer, __SRSSendBuf
18	302	115		syscall 29, __CBTWArgs
18	302	118		mov __D0RetornaBoneco, __CBTWArgs.Result
18	302	121		release __CBTWMutex
18	302	122		release __RemoteMutex
18	6148	123	#line 6148 "C:\Users\luan\Documents\GitHub\Droid\sekksi2016\executivo\Funcionando\principal_executivo.nxc"
18	301	123	#line 301 "C:\Users\luan\Documents\GitHub\Droid\sekksi2016\executivo\Funcionando\principal_executivo.nxc"
18	301	123	#line 301 "C:\Users\luan\Documents\GitHub\Droid\sekksi2016\executivo\Funcionando\principal_executivo.nxc"
18	302	123	#line 302 "C:\Users\luan\Documents\GitHub\Droid\sekksi2016\executivo\Funcionando\principal_executivo.nxc"
18	303	123		set __Wait_7qG2_ms_7qG2_000_inline_RetornaBoneco, 30
18	302	126	#line 302 "C:\Users\luan\Documents\GitHub\Droid\sekksi2016\executivo\Funcionando\principal_executivo.nxc"
18	8551	126	#line 8551 "NXCDefs.h"
18	8552	126		wait2 NA, __Wait_7qG2_ms_7qG2_000_inline_RetornaBoneco
18	8551	129	#line 8551 "NXCDefs.h"
18	303	129	#line 303 "C:\Users\luan\Documents\GitHub\Droid\sekksi2016\executivo\Funcionando\principal_executivo.nxc"
18	304	129	#line 304 "C:\Users\luan\Documents\GitHub\Droid\sekksi2016\executivo\Funcionando\principal_executivo.nxc"
18	304	129	#line 304 "C:\Users\luan\Documents\GitHub\Droid\sekksi2016\executivo\Funcionando\principal_executivo.nxc"
18	304	129	#line 304 "C:\Users\luan\Documents\GitHub\Droid\sekksi2016\executivo\Funcionando\principal_executivo.nxc"
18	305	129		set __signed_stack_001RetornaBoneco, 0
18	304	132	#line 304 "C:\Users\luan\Documents\GitHub\Droid\sekksi2016\executivo\Funcionando\principal_executivo.nxc"
18	304	132	#line 304 "C:\Users\luan\Documents\GitHub\Droid\sekksi2016\executivo\Funcionando\principal_executivo.nxc"
18	305	132		set __signed_stack_002RetornaBoneco, 32
18	304	135	#line 304 "C:\Users\luan\Documents\GitHub\Droid\sekksi2016\executivo\Funcionando\principal_executivo.nxc"
18	304	135	#line 304 "C:\Users\luan\Documents\GitHub\Droid\sekksi2016\executivo\Funcionando\principal_executivo.nxc"
18	305	135		strcat __strbufRetornaBoneco, __constStr0011
18	305	139	#line 305 "C:\Users\luan\Documents\GitHub\Droid\sekksi2016\executivo\Funcionando\principal_executivo.nxc"
18	306	139		acquire __TextOutMutex
18	305	140	#line 305 "C:\Users\luan\Documents\GitHub\Droid\sekksi2016\executivo\Funcionando\principal_executivo.nxc"
18	306	140		mov __TextOutArgs.Location.X, __signed_stack_001RetornaBoneco
18	305	143	#line 305 "C:\Users\luan\Documents\GitHub\Droid\sekksi2016\executivo\Funcionando\principal_executivo.nxc"
18	306	143		mov __TextOutArgs.Location.Y, __signed_stack_002RetornaBoneco
18	305	146	#line 305 "C:\Users\luan\Documents\GitHub\Droid\sekksi2016\executivo\Funcionando\principal_executivo.nxc"
18	306	146		set __TextOutArgs.Options, 0
18	305	149	#line 305 "C:\Users\luan\Documents\GitHub\Droid\sekksi2016\executivo\Funcionando\principal_executivo.nxc"
18	306	149		mov __TextOutArgs.Text, __strbufRetornaBoneco
18	305	151	#line 305 "C:\Users\luan\Documents\GitHub\Droid\sekksi2016\executivo\Funcionando\principal_executivo.nxc"
18	306	151		syscall 13, __TextOutArgs
18	305	154	#line 305 "C:\Users\luan\Documents\GitHub\Droid\sekksi2016\executivo\Funcionando\principal_executivo.nxc"
18	306	154		mov __D0RetornaBoneco, __TextOutArgs.Result
18	305	157	#line 305 "C:\Users\luan\Documents\GitHub\Droid\sekksi2016\executivo\Funcionando\principal_executivo.nxc"
18	306	157		release __TextOutMutex
18	305	158	#line 305 "C:\Users\luan\Documents\GitHub\Droid\sekksi2016\executivo\Funcionando\principal_executivo.nxc"
18	305	158	#line 305 "C:\Users\luan\Documents\GitHub\Droid\sekksi2016\executivo\Funcionando\principal_executivo.nxc"
18	306	158	#pragma macro 9
18	306	158		acquire __MRMutex
18	306	159		mov __MRArgs.QueueID, __constVal1
18	306	161		mov __MRArgs.Remove, __constVal1
18	306	163		set __RRNTmpVal, 0
18	306	166		syscall 27, __MRArgs
18	306	169		unflatten __RRNTmpVal, __RRNErr, __MRArgs.Message, __RRNTmpVal
18	306	174		mov __RetornaBoneco_7qG2_passei_7qG2_000, __RRNTmpVal
18	306	176		mov __D0RetornaBoneco, __MRArgs.Result
18	306	179		release __MRMutex
18	6195	180	#line 6195 "C:\Users\luan\Documents\GitHub\Droid\sekksi2016\executivo\Funcionando\principal_executivo.nxc"
18	305	180	#line 305 "C:\Users\luan\Documents\GitHub\Droid\sekksi2016\executivo\Funcionando\principal_executivo.nxc"
18	305	180	#line 305 "C:\Users\luan\Documents\GitHub\Droid\sekksi2016\executivo\Funcionando\principal_executivo.nxc"
18	307	180	#line 307 "C:\Users\luan\Documents\GitHub\Droid\sekksi2016\executivo\Funcionando\principal_executivo.nxc"
18	308	180		mov __signed_stack_001RetornaBoneco, __RetornaBoneco_7qG2_passei_7qG2_000
18	307	182	#line 307 "C:\Users\luan\Documents\GitHub\Droid\sekksi2016\executivo\Funcionando\principal_executivo.nxc"
18	307	182	#line 307 "C:\Users\luan\Documents\GitHub\Droid\sekksi2016\executivo\Funcionando\principal_executivo.nxc"
18	308	182		set __D0RetornaBoneco, 5
18	307	185	#line 307 "C:\Users\luan\Documents\GitHub\Droid\sekksi2016\executivo\Funcionando\principal_executivo.nxc"
18	308	185		cmp 5, __D0RetornaBoneco, __signed_stack_001RetornaBoneco, __D0RetornaBoneco
18	308	189	#line 308 "C:\Users\luan\Documents\GitHub\Droid\sekksi2016\executivo\Funcionando\principal_executivo.nxc"
18	309	189		brtst 4, __ASM_Label_686, __D0RetornaBoneco
18	308	192	#line 308 "C:\Users\luan\Documents\GitHub\Droid\sekksi2016\executivo\Funcionando\principal_executivo.nxc"
18	309	192		jmp __ASM_Label_685
18	308	194	#line 308 "C:\Users\luan\Documents\GitHub\Droid\sekksi2016\executivo\Funcionando\principal_executivo.nxc"
18	308	194	#line 308 "C:\Users\luan\Documents\GitHub\Droid\sekksi2016\executivo\Funcionando\principal_executivo.nxc"
18	312	194	#line 312 "C:\Users\luan\Documents\GitHub\Droid\sekksi2016\executivo\Funcionando\principal_executivo.nxc"
18	313	194		subret __RetornaBoneco_return
19	326	0	#line 326 "C:\Users\luan\Documents\GitHub\Droid\sekksi2016\executivo\Funcionando\principal_executivo.nxc"
19	327	0		mov __D0DaReh, potdGlobal
19	327	2	#line 327 "C:\Users\luan\Documents\GitHub\Droid\sekksi2016\executivo\Funcionando\principal_executivo.nxc"
19	328	2	#pragma macro 10
19	328	2		neg __OnRev_Tmp, __D0DaReh
19	328	5		setout __constVal1, 2, __OnRev_Tmp, 1, __constVal3, 8, __constVal0, 6, __constVal32, 7, __constVal0, 5, __constVal0, 10, __constVal96, 11, __constVal32, 12, __constVal32, 0, __constVal63
19	6508	28	#line 6508 "C:\Users\luan\Documents\GitHub\Droid\sekksi2016\executivo\Funcionando\principal_executivo.nxc"
19	327	28	#line 327 "C:\Users\luan\Documents\GitHub\Droid\sekksi2016\executivo\Funcionando\principal_executivo.nxc"
19	327	28	#line 327 "C:\Users\luan\Documents\GitHub\Droid\sekksi2016\executivo\Funcionando\principal_executivo.nxc"
19	328	28		mov __D0DaReh, poteGlobal
19	328	30	#line 328 "C:\Users\luan\Documents\GitHub\Droid\sekksi2016\executivo\Funcionando\principal_executivo.nxc"
19	329	30	#pragma macro 10
19	329	30		neg __OnRev_Tmp, __D0DaReh
19	329	33		setout __constVal0, 2, __OnRev_Tmp, 1, __constVal3, 8, __constVal0, 6, __constVal32, 7, __constVal0, 5, __constVal0, 10, __constVal96, 11, __constVal32, 12, __constVal32, 0, __constVal63
19	6515	56	#line 6515 "C:\Users\luan\Documents\GitHub\Droid\sekksi2016\executivo\Funcionando\principal_executivo.nxc"
19	328	56	#line 328 "C:\Users\luan\Documents\GitHub\Droid\sekksi2016\executivo\Funcionando\principal_executivo.nxc"
19	328	56	#line 328 "C:\Users\luan\Documents\GitHub\Droid\sekksi2016\executivo\Funcionando\principal_executivo.nxc"
19	329	56		set __Wait_7qG2_ms_7qG2_000_inline_DaReh, 500
19	328	59	#line 328 "C:\Users\luan\Documents\GitHub\Droid\sekksi2016\executivo\Funcionando\principal_executivo.nxc"
19	8551	59	#line 8551 "NXCDefs.h"
19	8552	59		wait2 NA, __Wait_7qG2_ms_7qG2_000_inline_DaReh
19	8551	62	#line 8551 "NXCDefs.h"
19	329	62	#line 329 "C:\Users\luan\Documents\GitHub\Droid\sekksi2016\executivo\Funcionando\principal_executivo.nxc"
19	331	62	#line 331 "C:\Users\luan\Documents\GitHub\Droid\sekksi2016\executivo\Funcionando\principal_executivo.nxc"
19	332	62		subret __DaReh_return
20	334	0	#line 334 "C:\Users\luan\Documents\GitHub\Droid\sekksi2016\executivo\Funcionando\principal_executivo.nxc"
20	335	0		set my_tc_d, 0
20	334	3	#line 334 "C:\Users\luan\Documents\GitHub\Droid\sekksi2016\executivo\Funcionando\principal_executivo.nxc"
20	334	3	#line 334 "C:\Users\luan\Documents\GitHub\Droid\sekksi2016\executivo\Funcionando\principal_executivo.nxc"
20	334	3	#line 334 "C:\Users\luan\Documents\GitHub\Droid\sekksi2016\executivo\Funcionando\principal_executivo.nxc"
20	335	3		set __D0ViraUmaRoda, 50
20	335	6	#line 335 "C:\Users\luan\Documents\GitHub\Droid\sekksi2016\executivo\Funcionando\principal_executivo.nxc"
20	336	6	#pragma macro 7
20	336	6		setout __constVal1, 2, __D0ViraUmaRoda, 1, __constVal3, 8, __constVal0, 6, __constVal32, 7, __constVal0, 5, __constVal0, 10, __constVal96, 11, __constVal32, 12, __constVal32, 0, __constVal63
20	6542	29	#line 6542 "C:\Users\luan\Documents\GitHub\Droid\sekksi2016\executivo\Funcionando\principal_executivo.nxc"
20	335	29	#line 335 "C:\Users\luan\Documents\GitHub\Droid\sekksi2016\executivo\Funcionando\principal_executivo.nxc"
20	338	29	#line 338 "C:\Users\luan\Documents\GitHub\Droid\sekksi2016\executivo\Funcionando\principal_executivo.nxc"
20	339	29		getout __signed_stack_001ViraUmaRoda, __constVal1, 4
20	338	33	#line 338 "C:\Users\luan\Documents\GitHub\Droid\sekksi2016\executivo\Funcionando\principal_executivo.nxc"
20	338	33	#line 338 "C:\Users\luan\Documents\GitHub\Droid\sekksi2016\executivo\Funcionando\principal_executivo.nxc"
20	339	33		mov __D0ViraUmaRoda, __ViraUmaRoda_7qG2_ang_7qG2_000
20	338	35	#line 338 "C:\Users\luan\Documents\GitHub\Droid\sekksi2016\executivo\Funcionando\principal_executivo.nxc"
20	339	35		cmp 0, __D0ViraUmaRoda, __signed_stack_001ViraUmaRoda, __D0ViraUmaRoda
20	339	39	#line 339 "C:\Users\luan\Documents\GitHub\Droid\sekksi2016\executivo\Funcionando\principal_executivo.nxc"
20	340	39		brtst 4, __ASM_Label_757, __D0ViraUmaRoda
20	339	42	#line 339 "C:\Users\luan\Documents\GitHub\Droid\sekksi2016\executivo\Funcionando\principal_executivo.nxc"
20	340	42		jmp __ASM_Label_756
20	339	44	#line 339 "C:\Users\luan\Documents\GitHub\Droid\sekksi2016\executivo\Funcionando\principal_executivo.nxc"
20	339	44	#line 339 "C:\Users\luan\Documents\GitHub\Droid\sekksi2016\executivo\Funcionando\principal_executivo.nxc"
20	340	44	#line 340 "C:\Users\luan\Documents\GitHub\Droid\sekksi2016\executivo\Funcionando\principal_executivo.nxc"
20	341	44		subcall Para, __Para_return
20	340	46	#line 340 "C:\Users\luan\Documents\GitHub\Droid\sekksi2016\executivo\Funcionando\principal_executivo.nxc"
20	340	46	#line 340 "C:\Users\luan\Documents\GitHub\Droid\sekksi2016\executivo\Funcionando\principal_executivo.nxc"
20	341	46		set __D0ViraUmaRoda, 1
20	341	49	#line 341 "C:\Users\luan\Documents\GitHub\Droid\sekksi2016\executivo\Funcionando\principal_executivo.nxc"
20	342	49		tst 5, __D0ViraUmaRoda, __D0ViraUmaRoda
20	341	52	#line 341 "C:\Users\luan\Documents\GitHub\Droid\sekksi2016\executivo\Funcionando\principal_executivo.nxc"
20	342	52		brtst 4, __ASM_Label_761, __D0ViraUmaRoda
20	341	55	#line 341 "C:\Users\luan\Documents\GitHub\Droid\sekksi2016\executivo\Funcionando\principal_executivo.nxc"
20	341	55	#line 341 "C:\Users\luan\Documents\GitHub\Droid\sekksi2016\executivo\Funcionando\principal_executivo.nxc"
20	342	55		jmp __ASM_Label_760
20	341	57	#line 341 "C:\Users\luan\Documents\GitHub\Droid\sekksi2016\executivo\Funcionando\principal_executivo.nxc"
20	344	57	#line 344 "C:\Users\luan\Documents\GitHub\Droid\sekksi2016\executivo\Funcionando\principal_executivo.nxc"
20	345	57		subret __ViraUmaRoda_return
21	357	0	#line 357 "C:\Users\luan\Documents\GitHub\Droid\sekksi2016\executivo\Funcionando\principal_executivo.nxc"
21	358	0		set __PlaySound_7qG2_aCode_7qG2_000, 3
21	357	3	#line 357 "C:\Users\luan\Documents\GitHub\Droid\sekksi2016\executivo\Funcionando\principal_executivo.nxc"
21	358	3	#line 358 "C:\Users\luan\Documents\GitHub\Droid\sekksi2016\executivo\Funcionando\principal_executivo.nxc"
21	359	3		subcall PlaySound, __PlaySound_return
21	358	6	#line 358 "C:\Users\luan\Documents\GitHub\Droid\sekksi2016\executivo\Funcionando\principal_executivo.nxc"
21	360	6	#line 360 "C:\Users\luan\Documents\GitHub\Droid\sekksi2016\executivo\Funcionando\principal_executivo.nxc"
21	361	6		subret __bip_return
22	363	0	#line 363 "C:\Users\luan\Documents\GitHub\Droid\sekksi2016\executivo\Funcionando\principal_executivo.nxc"
22	364	0		strcat __strbufdesligaBlue, __constStr0009
22	363	4	#line 363 "C:\Users\luan\Documents\GitHub\Droid\sekksi2016\executivo\Funcionando\principal_executivo.nxc"
22	364	4		mov __desligaBlue_7qG2_DADOS_BT_7qG2_000.Name, __strbufdesligaBlue
22	363	6	#line 363 "C:\Users\luan\Documents\GitHub\Droid\sekksi2016\executivo\Funcionando\principal_executivo.nxc"
22	364	6	#line 364 "C:\Users\luan\Documents\GitHub\Droid\sekksi2016\executivo\Funcionando\principal_executivo.nxc"
22	365	6		set __desligaBlue_7qG2_DADOS_BT_7qG2_000.ConnectionSlot, 1
22	364	9	#line 364 "C:\Users\luan\Documents\GitHub\Droid\sekksi2016\executivo\Funcionando\principal_executivo.nxc"
22	364	9	#line 364 "C:\Users\luan\Documents\GitHub\Droid\sekksi2016\executivo\Funcionando\principal_executivo.nxc"
22	365	9	#line 365 "C:\Users\luan\Documents\GitHub\Droid\sekksi2016\executivo\Funcionando\principal_executivo.nxc"
22	366	9		set __desligaBlue_7qG2_DADOS_BT_7qG2_000.Action, 0
22	365	12	#line 365 "C:\Users\luan\Documents\GitHub\Droid\sekksi2016\executivo\Funcionando\principal_executivo.nxc"
22	365	12	#line 365 "C:\Users\luan\Documents\GitHub\Droid\sekksi2016\executivo\Funcionando\principal_executivo.nxc"
22	367	12	#line 367 "C:\Users\luan\Documents\GitHub\Droid\sekksi2016\executivo\Funcionando\principal_executivo.nxc"
22	368	12	#pragma macro 4
22	368	12	#line 368 "C:\Users\luan\Documents\GitHub\Droid\sekksi2016\executivo\Funcionando\principal_executivo.nxc"
22	368	12		syscall 36, __desligaBlue_7qG2_DADOS_BT_7qG2_000
22	366	15	#line 366 "C:\Users\luan\Documents\GitHub\Droid\sekksi2016\executivo\Funcionando\principal_executivo.nxc"
22	366	15	#line 366 "C:\Users\luan\Documents\GitHub\Droid\sekksi2016\executivo\Funcionando\principal_executivo.nxc"
22	366	15	#line 366 "C:\Users\luan\Documents\GitHub\Droid\sekksi2016\executivo\Funcionando\principal_executivo.nxc"
22	366	15	#line 366 "C:\Users\luan\Documents\GitHub\Droid\sekksi2016\executivo\Funcionando\principal_executivo.nxc"
22	368	15	#line 368 "C:\Users\luan\Documents\GitHub\Droid\sekksi2016\executivo\Funcionando\principal_executivo.nxc"
22	367	15	#line 367 "C:\Users\luan\Documents\GitHub\Droid\sekksi2016\executivo\Funcionando\principal_executivo.nxc"
22	368	15	#line 368 "C:\Users\luan\Documents\GitHub\Droid\sekksi2016\executivo\Funcionando\principal_executivo.nxc"
22	369	15		set __Wait_7qG2_ms_7qG2_000_inline_desligaBlue, 30
22	368	18	#line 368 "C:\Users\luan\Documents\GitHub\Droid\sekksi2016\executivo\Funcionando\principal_executivo.nxc"
22	8551	18	#line 8551 "NXCDefs.h"
22	8552	18		wait2 NA, __Wait_7qG2_ms_7qG2_000_inline_desligaBlue
22	8551	21	#line 8551 "NXCDefs.h"
22	370	21	#line 370 "C:\Users\luan\Documents\GitHub\Droid\sekksi2016\executivo\Funcionando\principal_executivo.nxc"
22	370	21	#line 370 "C:\Users\luan\Documents\GitHub\Droid\sekksi2016\executivo\Funcionando\principal_executivo.nxc"
22	371	21	#pragma macro 5
22	371	21		mov __CBTCSArgs.Connection, __constVal1
22	371	23		syscall 28, __CBTCSArgs
22	371	26		mov __signed_stack_001desligaBlue, __CBTCSArgs.Result
22	6702	29	#line 6702 "C:\Users\luan\Documents\GitHub\Droid\sekksi2016\executivo\Funcionando\principal_executivo.nxc"
22	370	29	#line 370 "C:\Users\luan\Documents\GitHub\Droid\sekksi2016\executivo\Funcionando\principal_executivo.nxc"
22	370	29	#line 370 "C:\Users\luan\Documents\GitHub\Droid\sekksi2016\executivo\Funcionando\principal_executivo.nxc"
22	371	29		set __D0desligaBlue, 0
22	370	32	#line 370 "C:\Users\luan\Documents\GitHub\Droid\sekksi2016\executivo\Funcionando\principal_executivo.nxc"
22	371	32		cmp 4, __D0desligaBlue, __signed_stack_001desligaBlue, __D0desligaBlue
22	371	36	#line 371 "C:\Users\luan\Documents\GitHub\Droid\sekksi2016\executivo\Funcionando\principal_executivo.nxc"
22	372	36		brtst 4, __ASM_Label_783, __D0desligaBlue
22	371	39	#line 371 "C:\Users\luan\Documents\GitHub\Droid\sekksi2016\executivo\Funcionando\principal_executivo.nxc"
22	372	39		jmp __ASM_Label_782
22	371	41	#line 371 "C:\Users\luan\Documents\GitHub\Droid\sekksi2016\executivo\Funcionando\principal_executivo.nxc"
22	371	41	#line 371 "C:\Users\luan\Documents\GitHub\Droid\sekksi2016\executivo\Funcionando\principal_executivo.nxc"
22	371	41	#line 371 "C:\Users\luan\Documents\GitHub\Droid\sekksi2016\executivo\Funcionando\principal_executivo.nxc"
22	372	41		set __signed_stack_001desligaBlue, 0
22	371	44	#line 371 "C:\Users\luan\Documents\GitHub\Droid\sekksi2016\executivo\Funcionando\principal_executivo.nxc"
22	371	44	#line 371 "C:\Users\luan\Documents\GitHub\Droid\sekksi2016\executivo\Funcionando\principal_executivo.nxc"
22	372	44		set __signed_stack_002desligaBlue, 56
22	371	47	#line 371 "C:\Users\luan\Documents\GitHub\Droid\sekksi2016\executivo\Funcionando\principal_executivo.nxc"
22	371	47	#line 371 "C:\Users\luan\Documents\GitHub\Droid\sekksi2016\executivo\Funcionando\principal_executivo.nxc"
22	372	47		strcat __strbufdesligaBlue, __constStr0016
22	372	51	#line 372 "C:\Users\luan\Documents\GitHub\Droid\sekksi2016\executivo\Funcionando\principal_executivo.nxc"
22	373	51		acquire __TextOutMutex
22	372	52	#line 372 "C:\Users\luan\Documents\GitHub\Droid\sekksi2016\executivo\Funcionando\principal_executivo.nxc"
22	373	52		mov __TextOutArgs.Location.X, __signed_stack_001desligaBlue
22	372	55	#line 372 "C:\Users\luan\Documents\GitHub\Droid\sekksi2016\executivo\Funcionando\principal_executivo.nxc"
22	373	55		mov __TextOutArgs.Location.Y, __signed_stack_002desligaBlue
22	372	58	#line 372 "C:\Users\luan\Documents\GitHub\Droid\sekksi2016\executivo\Funcionando\principal_executivo.nxc"
22	373	58		set __TextOutArgs.Options, 0
22	372	61	#line 372 "C:\Users\luan\Documents\GitHub\Droid\sekksi2016\executivo\Funcionando\principal_executivo.nxc"
22	373	61		mov __TextOutArgs.Text, __strbufdesligaBlue
22	372	63	#line 372 "C:\Users\luan\Documents\GitHub\Droid\sekksi2016\executivo\Funcionando\principal_executivo.nxc"
22	373	63		syscall 13, __TextOutArgs
22	372	66	#line 372 "C:\Users\luan\Documents\GitHub\Droid\sekksi2016\executivo\Funcionando\principal_executivo.nxc"
22	373	66		mov __D0desligaBlue, __TextOutArgs.Result
22	372	69	#line 372 "C:\Users\luan\Documents\GitHub\Droid\sekksi2016\executivo\Funcionando\principal_executivo.nxc"
22	373	69		release __TextOutMutex
22	372	70	#line 372 "C:\Users\luan\Documents\GitHub\Droid\sekksi2016\executivo\Funcionando\principal_executivo.nxc"
22	374	70	#line 374 "C:\Users\luan\Documents\GitHub\Droid\sekksi2016\executivo\Funcionando\principal_executivo.nxc"
22	375	70		subret __desligaBlue_return
23	375	0	#line 375 "C:\Users\luan\Documents\GitHub\Droid\sekksi2016\executivo\Funcionando\principal_executivo.nxc"
23	376	0		subret ____initialize_global_data_return
#CLUMPS
Clump	Name	Offset	File
0	main	0	C:\Users\luan\Documents\GitHub\Droid\sekksi2016\executivo\Funcionando\principal_executivo.nxc
1	__ResetSensorSubroutine	7	NXTDefs.h
2	__ReadLSBytes0	20	NXTDefs.h
3	__ReadLSBytes2	106	NXTDefs.h
4	__ReadLSBytes3	192	NXTDefs.h
5	PlaySound	278	NXCDefs.h
6	executivo	718	C:\Users\luan\Documents\GitHub\Droid\sekksi2016\executivo\Funcionando\principal_executivo.nxc
7	Para	767	C:\Users\luan\Documents\GitHub\Droid\sekksi2016\executivo\Funcionando\principal_executivo.nxc
8	distanciaTachoCount	815	C:\Users\luan\Documents\GitHub\Droid\sekksi2016\executivo\Funcionando\principal_executivo.nxc
9	distanciaGiro	828	C:\Users\luan\Documents\GitHub\Droid\sekksi2016\executivo\Funcionando\principal_executivo.nxc
10	inicializaSensores	848	C:\Users\luan\Documents\GitHub\Droid\sekksi2016\executivo\Funcionando\principal_executivo.nxc
11	vira	1030	C:\Users\luan\Documents\GitHub\Droid\sekksi2016\executivo\Funcionando\principal_executivo.nxc
12	iniciaBlue	1327	C:\Users\luan\Documents\GitHub\Droid\sekksi2016\executivo\Funcionando\principal_executivo.nxc
13	andaRetoDireita	1376	C:\Users\luan\Documents\GitHub\Droid\sekksi2016\executivo\Funcionando\principal_executivo.nxc
14	ChecaParada	1614	C:\Users\luan\Documents\GitHub\Droid\sekksi2016\executivo\Funcionando\principal_executivo.nxc
15	Rejeitar	1801	C:\Users\luan\Documents\GitHub\Droid\sekksi2016\executivo\Funcionando\principal_executivo.nxc
16	IniciaCorDoChao	1929	C:\Users\luan\Documents\GitHub\Droid\sekksi2016\executivo\Funcionando\principal_executivo.nxc
17	CorDoChao	1999	C:\Users\luan\Documents\GitHub\Droid\sekksi2016\executivo\Funcionando\principal_executivo.nxc
18	RetornaBoneco	2059	C:\Users\luan\Documents\GitHub\Droid\sekksi2016\executivo\Funcionando\principal_executivo.nxc
19	DaReh	2255	C:\Users\luan\Documents\GitHub\Droid\sekksi2016\executivo\Funcionando\principal_executivo.nxc
20	ViraUmaRoda	2319	C:\Users\luan\Documents\GitHub\Droid\sekksi2016\executivo\Funcionando\principal_executivo.nxc
21	bip	2378	C:\Users\luan\Documents\GitHub\Droid\sekksi2016\executivo\Funcionando\principal_executivo.nxc
22	desligaBlue	2386	C:\Users\luan\Documents\GitHub\Droid\sekksi2016\executivo\Funcionando\principal_executivo.nxc
23	__initialize_global_data	2458	C:\Users\luan\Documents\GitHub\Droid\sekksi2016\executivo\Funcionando\principal_executivo.nxc
