#SYMBOLS
Index	Identifier	Type	Flag	Data	Size	RefCount
0	__CLSRMutex3	9	0	0	4	2
1	__signed_stack_001andaRetoDireita	6	1	4	4	10
2	__signed_stack_001distanciaGiro	6	1	8	4	4
3	__signed_stack_002andaRetoDireita	6	1	12	4	2
4	__CLSWMutex3	9	0	16	4	2
5	__MRMutex	9	0	20	4	4
6	__CLSRMutex2	9	0	24	4	2
7	__DU0SetSensorLowspeed_inline_inicializaSensores	5	1	28	4	20
8	__CLSCSMutex3	9	0	32	4	2
9	__TextOutMutex	9	0	36	4	2
10	__signed_stack_001RetornaBoneco	6	1	40	4	6
11	__signed_stack_001IniciaCorDoChao	6	1	44	4	8
12	__RLSBmutex2	9	0	48	4	2
13	__signed_stack_001vira	6	1	52	4	18
14	__signed_stack_002iniciaBlue	6	1	56	4	2
15	__signed_stack_001distanciaTachoCount	6	1	60	4	2
16	__RLSBmutex3	9	0	64	4	2
17	__signed_stack_001iniciaBlue	6	1	68	4	2
18	__RLSBmutex0	9	0	72	4	2
19	__D0SetSensorLowspeed_inline_inicializaSensores	6	1	76	4	8
20	__D0distanciaGiro	6	1	80	4	7
21	__SRSTmpLongVal	6	1	84	4	4
22	__Wait_7qG2_ms_7qG2_000_inline_RetornaBoneco	5	1	88	4	4
23	__D0andaRetoDireita	6	1	92	4	31
24	__D0IniciaCorDoChao	6	1	96	4	21
25	__D0distanciaTachoCount	6	1	100	4	2
26	__Wait_7qG2_ms_7qG2_000_inline_iniciaBlue	5	1	104	4	2
27	__RemoteMutex	9	0	108	4	4
28	__CHSWMutex	9	0	112	4	4
29	__CLSCSMutex2	9	0	116	4	2
30	__D0vira	6	1	120	4	34
31	__CLSWMutex2	9	0	124	4	2
32	__RRNTmpVal	6	1	128	4	8
33	__CLSRMutex0	9	0	132	4	2
34	__CBTWMutex	9	0	136	4	4
35	__CLSCSMutex0	9	0	140	4	2
36	__D0RetornaBoneco	6	1	144	4	18
37	__CLSWMutex0	9	0	148	4	2
38	__andaRetoDireita_7qG2_distanciaAtual_7qG2_000	4	1	152	2	3
39	__RetornaBoneco_7qG2_passei_7qG2_000	4	1	154	2	3
40	__andaRetoDireita_7qG2_potd_7qG2_000	4	1	156	2	4
41	__andaRetoDireita_7qG2_pote_7qG2_000	4	1	158	2	4
42	__vira_7qG2_direcao_7qG2_000	4	1	160	2	3
43	__vira_7qG2_angulo_7qG2_000	4	1	162	2	3
44	__andaRetoDireita_7qG2_distAndar_7qG2_000	4	1	164	2	2
45	__RetornaBoneco_7qG2_cor_7qG2_000	4	1	166	2	4
46	__IniciaCorDoChao_7qG2_corDir_7qG2_000	4	1	168	2	3
47	__IniciaCorDoChao_7qG2_corEsq_7qG2_000	4	1	170	2	4
48	__teste2COMUNICA_7qG2_corEsq_7qG2_000	4	1	172	2	2
49	__distanciaGiro_7qG2_grau_7qG2_000	4	1	174	2	3
50	my_tc_e	4	1	176	2	4
51	my_tc_d	4	1	178	2	4
52	__andaRetoDireita_7qG2_distParede_7qG2_000	4	1	180	2	4
53	__teste2COMUNICA_7qG2_corDir_7qG2_000	4	1	182	2	2
54	__distanciaTachoCount_7qG2_grau_7qG2_000	4	1	184	2	2
55	__constValNeg90	2	0	186	1	2
56	__iniciaBlue_return	1	1	187	1	3
57	__ResetSensor_7qG2_port_7qG2_000_inline_SetSensorLowspeed_inline_inicializaSensores	1	1	188	1	4
58	__constVal63	2	0	189	1	12
59	__vira_return	1	1	190	1	3
60	__distanciaGiro_return	1	1	191	1	5
61	__constVal96	2	0	192	1	12
62	__SetSensorMode_7qG2_mode_7qG2_000_inline_SetSensorLowspeed_inline_inicializaSensores	1	1	193	1	8
63	__SetSensorLowspeed_7qG2_port_7qG2_000_inline_inicializaSensores	1	1	194	1	20
64	__inicializaSensores_return	1	1	195	1	3
65	__distanciaTachoCount_return	1	1	196	1	4
66	__SetSensorLowspeed_7qG2_bIsPowered_7qG2_000_inline_inicializaSensores	1	1	197	1	8
67	__SetSensorMode_7qG2_port_7qG2_000_inline_SetSensorLowspeed_inline_inicializaSensores	1	1	198	1	8
68	__SetSensorType_7qG2_type_7qG2_000_inline_SetSensorLowspeed_inline_inicializaSensores	1	1	199	1	8
69	__SetSensorType_7qG2_port_7qG2_000_inline_SetSensorLowspeed_inline_inicializaSensores	1	1	200	1	8
70	____ReadLSBytes0_return	1	1	201	1	3
71	__RLSBResult0	2	1	202	1	7
72	____initialize_global_data_return	1	1	203	1	3
73	__LSWriteOptionsVar	1	1	204	1	6
74	__teste2COMUNICA_return	1	1	205	1	3
75	____ReadLSBytes2_return	1	1	206	1	3
76	__RLSBytesCount0	1	1	207	1	7
77	__RLSBIterations0	1	1	208	1	4
78	____ResetSensorSubroutine_return	1	1	209	1	6
79	__constVal0	2	1	210	1	56
80	__constVal3	2	0	211	1	16
81	__constVal32	2	0	212	1	36
82	__constVal1	2	0	213	1	27
83	__ResetSensorPort	1	1	214	1	6
84	__ResetSensorTmp	1	1	215	1	2
85	__constVal4	2	0	216	1	5
86	__constVal5	2	0	217	1	3
87	__WFRRTmpByte	1	1	218	1	4
88	__RLSBIterations3	1	1	219	1	4
89	__RLSBytesCount3	1	1	220	1	7
90	__IniciaCorDoChao_return	1	1	221	1	3
91	__andaRetoDireita_return	1	1	222	1	3
92	__RRNErr	1	1	223	1	2
93	__RetornaBoneco_return	1	1	224	1	4
94	__RLSBIterations2	1	1	225	1	4
95	__constVal2	2	0	226	1	6
96	__RLSBResult2	2	1	227	1	7
97	__RLSBytesCount2	1	1	228	1	7
98	____ReadLSBytes3_return	1	1	229	1	3
99	__RLSBResult3	2	1	230	1	7
100	__constVal15	2	0	231	1	1
101	__MRArgs	8	0	4	8	10
102	__MRArgs.Result	2	1	232	1	10
103	__MRArgs.QueueID	1	1	233	1	10
104	__MRArgs.Remove	1	1	234	1	10
105	__MRArgs.Message	7	0	236	4	10
106	__MRArgs.Message.Message_type	1	0	0	1	0
107	__CBTWArgs	8	0	3	8	8
108	__CBTWArgs.Result	2	1	240	1	8
109	__CBTWArgs.Connection	1	1	241	1	8
110	__CBTWArgs.Buffer	7	0	242	4	8
111	__CBTWArgs.Buffer.Buffer_type	1	0	0	1	0
112	__CHSWArgs	8	0	3	12	6
113	__CHSWArgs.Status	2	1	244	1	6
114	__CHSWArgs.Buffer	7	0	246	4	6
115	__CHSWArgs.Buffer.Buffer_type	1	0	0	1	0
116	__CHSWArgs.BufferLen	1	1	248	1	6
117	__desligaBlue_7qG2_DADOS_BT_7qG2_000	8	0	4	12	1
118	__desligaBlue_7qG2_DADOS_BT_7qG2_000.Result	3	1	252	2	1
119	__desligaBlue_7qG2_DADOS_BT_7qG2_000.Action	1	1	254	1	1
120	__desligaBlue_7qG2_DADOS_BT_7qG2_000.Name	7	0	256	4	1
121	__desligaBlue_7qG2_DADOS_BT_7qG2_000.Name.Name_type	1	0	0	1	0
122	__desligaBlue_7qG2_DADOS_BT_7qG2_000.ConnectionSlot	1	1	258	1	1
123	__iniciaBlue_7qG2_DADOS_BT_7qG2_000	8	0	4	12	5
124	__iniciaBlue_7qG2_DADOS_BT_7qG2_000.Result	3	1	260	2	5
125	__iniciaBlue_7qG2_DADOS_BT_7qG2_000.Action	1	1	262	1	5
126	__iniciaBlue_7qG2_DADOS_BT_7qG2_000.Name	7	0	264	4	5
127	__iniciaBlue_7qG2_DADOS_BT_7qG2_000.Name.Name_type	1	0	0	1	0
128	__iniciaBlue_7qG2_DADOS_BT_7qG2_000.ConnectionSlot	1	1	266	1	5
129	__CLSCSArgs3	8	0	3	4	4
130	__CLSCSArgs3.Result	2	1	268	1	4
131	__CLSCSArgs3.Port	1	1	269	1	4
132	__CLSCSArgs3.BytesReady	1	1	270	1	4
133	__CLSRArgs2	8	0	4	12	5
134	__CLSRArgs2.Result	2	1	272	1	5
135	__CLSRArgs2.Port	1	1	273	1	5
136	__CLSRArgs2.Buffer	7	0	274	4	5
137	__CLSRArgs2.Buffer.Buffer_type	1	0	0	1	0
138	__CLSRArgs2.BufferLen	1	1	276	1	5
139	__CLSWArgs3	8	0	4	12	5
140	__CLSWArgs3.Result	2	1	280	1	5
141	__CLSWArgs3.Port	1	1	281	1	5
142	__CLSWArgs3.Buffer	7	0	282	4	5
143	__CLSWArgs3.Buffer.Buffer_type	1	0	0	1	0
144	__CLSWArgs3.ReturnLen	1	1	284	1	5
145	__TextOutArgs	8	0	4	16	5
146	__TextOutArgs.Result	2	1	288	1	5
147	__TextOutArgs.Location	8	0	2	4	5
148	__TextOutArgs.Location.X	4	1	292	2	5
149	__TextOutArgs.Location.Y	4	1	294	2	5
150	__TextOutArgs.Text	7	0	296	4	5
151	__TextOutArgs.Text.Text_type	1	0	0	1	0
152	__TextOutArgs.Options	5	1	300	4	5
153	__CLSRArgs3	8	0	4	12	5
154	__CLSRArgs3.Result	2	1	304	1	5
155	__CLSRArgs3.Port	1	1	305	1	5
156	__CLSRArgs3.Buffer	7	0	306	4	5
157	__CLSRArgs3.Buffer.Buffer_type	1	0	0	1	0
158	__CLSRArgs3.BufferLen	1	1	308	1	5
159	__CLSWArgs0	8	0	4	12	5
160	__CLSWArgs0.Result	2	1	312	1	5
161	__CLSWArgs0.Port	1	1	313	1	5
162	__CLSWArgs0.Buffer	7	0	314	4	5
163	__CLSWArgs0.Buffer.Buffer_type	1	0	0	1	0
164	__CLSWArgs0.ReturnLen	1	1	316	1	5
165	__CLSCSArgs0	8	0	3	4	4
166	__CLSCSArgs0.Result	2	1	320	1	4
167	__CLSCSArgs0.Port	1	1	321	1	4
168	__CLSCSArgs0.BytesReady	1	1	322	1	4
169	__CLSRArgs0	8	0	4	12	5
170	__CLSRArgs0.Result	2	1	324	1	5
171	__CLSRArgs0.Port	1	1	325	1	5
172	__CLSRArgs0.Buffer	7	0	326	4	5
173	__CLSRArgs0.Buffer.Buffer_type	1	0	0	1	0
174	__CLSRArgs0.BufferLen	1	1	328	1	5
175	__CLSWArgs2	8	0	4	12	5
176	__CLSWArgs2.Result	2	1	332	1	5
177	__CLSWArgs2.Port	1	1	333	1	5
178	__CLSWArgs2.Buffer	7	0	334	4	5
179	__CLSWArgs2.Buffer.Buffer_type	1	0	0	1	0
180	__CLSWArgs2.ReturnLen	1	1	336	1	5
181	__CLSCSArgs2	8	0	3	4	4
182	__CLSCSArgs2.Result	2	1	340	1	4
183	__CLSCSArgs2.Port	1	1	341	1	4
184	__CLSCSArgs2.BytesReady	1	1	342	1	4
185	__RLSLastGoodRead2	7	0	344	4	2
186	__RLSLastGoodRead2.__RLSLastGoodRead2_type	1	0	0	1	0
187	__RLSReadBuf2	7	0	346	4	8
188	__RLSReadBuf2.__RLSReadBuf2_type	1	0	0	1	0
189	__RLSLastGoodRead3	7	0	348	4	2
190	__RLSLastGoodRead3.__RLSLastGoodRead3_type	1	0	0	1	0
191	__RLSReadBuf0	7	0	350	4	8
192	__RLSReadBuf0.__RLSReadBuf0_type	1	0	0	1	0
193	__LSWriteOptions	7	0	352	4	3
194	__LSWriteOptions.__LSWriteOptions_type	1	0	0	1	0
195	__RLSBbufLSWrite1	7	0	354	4	3
196	__RLSBbufLSWrite1.__RLSBbufLSWrite1_type	1	0	0	1	0
197	__RLSLastGoodRead0	7	0	356	4	2
198	__RLSLastGoodRead0.__RLSLastGoodRead0_type	1	0	0	1	0
199	__RLSReadBuf3	7	0	358	4	8
200	__RLSReadBuf3.__RLSReadBuf3_type	1	0	0	1	0
201	__strbufiniciaBlue	7	0	360	4	4
202	__strbufiniciaBlue.__strbufiniciaBlue_type	1	0	0	1	0
203	__constStr0009	7	0	362	4	1
204	__constStr0009.__constStr0009_type	1	1	0	1	0
205	__constStr0010	7	0	364	4	1
206	__constStr0010.__constStr0010_type	1	1	0	1	0
207	__DCMessageWritePacket	7	0	366	4	2
208	__DCMessageWritePacket.__DCMessageWritePacket_type	1	0	0	1	0
209	__SRSTmpBuf	7	0	368	4	12
210	__SRSTmpBuf.__SRSTmpBuf_type	1	0	0	1	0
211	__SRSSendBuf	7	0	370	4	6
212	__SRSSendBuf.__SRSSendBuf_type	1	0	0	1	0
213	__SRSFlattenBuf	7	0	372	4	4
214	__SRSFlattenBuf.__SRSFlattenBuf_type	1	0	0	1	0
#SOURCES
Clump	Line	PC	Source
0	436	0	#line 436 "C:\Users\Lucas\Desktop\UnB\Droid\sekksi2016\executivo\Executivo_MAIN_mark001.nxc"
0	437	0		subcall __initialize_global_data, ____initialize_global_data_return
0	436	2	#line 436 "C:\Users\Lucas\Desktop\UnB\Droid\sekksi2016\executivo\Executivo_MAIN_mark001.nxc"
0	436	2	#line 436 "C:\Users\Lucas\Desktop\UnB\Droid\sekksi2016\executivo\Executivo_MAIN_mark001.nxc"
0	437	2		subcall teste2COMUNICA, __teste2COMUNICA_return
0	436	4	#line 436 "C:\Users\Lucas\Desktop\UnB\Droid\sekksi2016\executivo\Executivo_MAIN_mark001.nxc"
0	437	4		exit -1, -1
1	5724	0		setin __constVal1, __ResetSensorPort, 5
1	5726	4		getin __ResetSensorTmp, __ResetSensorPort, 5
1	5727	8		brtst 5, __SensorStillInvalid, __ResetSensorTmp
1	5728	11		subret ____ResetSensorSubroutine_return
2	6520	0	#pragma macro 27
2	6520	0		acquire __CLSWMutex0
2	6520	1		index __LSWriteOptionsVar, __LSWriteOptions, __constVal0
2	6520	5		or __CLSWArgs0.Port, __constVal0, __LSWriteOptionsVar
2	6520	9		mov __CLSWArgs0.ReturnLen, __RLSBytesCount0
2	6520	11		mov __CLSWArgs0.Buffer, __RLSReadBuf0
2	6520	13		syscall 21, __CLSWArgs0
2	6520	16		mov __RLSBResult0, __CLSWArgs0.Result
2	6520	18		release __CLSWMutex0
2	6521	19	#line 6521 "NXTDefs.h"
2	6522	19		brtst 5, __RLSBError0, __RLSBResult0
2	6523	22		set __RLSBIterations0, 60
2	6525	25	#pragma macro 23
2	6525	25		acquire __CLSCSMutex0
2	6525	26		set __CLSCSArgs0.Port, 0
2	6525	29		syscall 23, __CLSCSArgs0
2	6525	32		mov __RLSBytesCount0, __CLSCSArgs0.BytesReady
2	6525	34		mov __RLSBResult0, __CLSCSArgs0.Result
2	6525	36		release __CLSCSMutex0
2	6525	37	#line 6525 "NXTDefs.h"
2	6526	37		sub __RLSBIterations0, __RLSBIterations0, __constVal1
2	6527	41		brtst 2, __RLSBError0, __RLSBIterations0
2	6528	44		brtst 0, __RLSBError0, __RLSBResult0
2	6529	47		brtst 4, __RLSBReadyToRead0, __RLSBResult0
2	6531	50		wait 1
2	6532	52		jmp __RLSBDoCheckStatus0
2	6534	54		brtst 4, __RLSBReturn0, __RLSBytesCount0
2	6535	57		arrinit __RLSReadBuf0, __constVal0, __RLSBytesCount0
2	6537	61	#pragma macro 25
2	6537	61		acquire __CLSRMutex0
2	6537	62		set __CLSRArgs0.Port, 0
2	6537	65		mov __CLSRArgs0.BufferLen, __RLSBytesCount0
2	6537	67		syscall 22, __CLSRArgs0
2	6537	70		mov __RLSReadBuf0, __CLSRArgs0.Buffer
2	6537	72		mov __RLSBResult0, __CLSRArgs0.Result
2	6537	74		release __CLSRMutex0
2	6537	75	#line 6537 "NXTDefs.h"
2	6538	75		brtst 5, __RLSBError0, __RLSBResult0
2	6539	78		mov __RLSLastGoodRead0, __RLSReadBuf0
2	6540	80		jmp __RLSBDone0
2	6542	82		mov __RLSReadBuf0, __RLSLastGoodRead0
2	6544	84		arrsize __RLSBytesCount0, __RLSReadBuf0
2	6546	87		subret ____ReadLSBytes0_return
3	6595	0	#pragma macro 27
3	6595	0		acquire __CLSWMutex2
3	6595	1		index __LSWriteOptionsVar, __LSWriteOptions, __constVal2
3	6595	5		or __CLSWArgs2.Port, __constVal2, __LSWriteOptionsVar
3	6595	9		mov __CLSWArgs2.ReturnLen, __RLSBytesCount2
3	6595	11		mov __CLSWArgs2.Buffer, __RLSReadBuf2
3	6595	13		syscall 21, __CLSWArgs2
3	6595	16		mov __RLSBResult2, __CLSWArgs2.Result
3	6595	18		release __CLSWMutex2
3	6595	19	#line 6595 "NXTDefs.h"
3	6596	19		brtst 5, __RLSBError2, __RLSBResult2
3	6597	22		set __RLSBIterations2, 60
3	6599	25	#pragma macro 23
3	6599	25		acquire __CLSCSMutex2
3	6599	26		set __CLSCSArgs2.Port, 2
3	6599	29		syscall 23, __CLSCSArgs2
3	6599	32		mov __RLSBytesCount2, __CLSCSArgs2.BytesReady
3	6599	34		mov __RLSBResult2, __CLSCSArgs2.Result
3	6599	36		release __CLSCSMutex2
3	6599	37	#line 6599 "NXTDefs.h"
3	6600	37		sub __RLSBIterations2, __RLSBIterations2, __constVal1
3	6601	41		brtst 2, __RLSBError2, __RLSBIterations2
3	6602	44		brtst 0, __RLSBError2, __RLSBResult2
3	6603	47		brtst 4, __RLSBReadyToRead2, __RLSBResult2
3	6605	50		wait 1
3	6606	52		jmp __RLSBDoCheckStatus2
3	6608	54		brtst 4, __RLSBReturn2, __RLSBytesCount2
3	6609	57		arrinit __RLSReadBuf2, __constVal0, __RLSBytesCount2
3	6611	61	#pragma macro 25
3	6611	61		acquire __CLSRMutex2
3	6611	62		set __CLSRArgs2.Port, 2
3	6611	65		mov __CLSRArgs2.BufferLen, __RLSBytesCount2
3	6611	67		syscall 22, __CLSRArgs2
3	6611	70		mov __RLSReadBuf2, __CLSRArgs2.Buffer
3	6611	72		mov __RLSBResult2, __CLSRArgs2.Result
3	6611	74		release __CLSRMutex2
3	6611	75	#line 6611 "NXTDefs.h"
3	6612	75		brtst 5, __RLSBError2, __RLSBResult2
3	6613	78		mov __RLSLastGoodRead2, __RLSReadBuf2
3	6614	80		jmp __RLSBDone2
3	6616	82		mov __RLSReadBuf2, __RLSLastGoodRead2
3	6618	84		arrsize __RLSBytesCount2, __RLSReadBuf2
3	6620	87		subret ____ReadLSBytes2_return
4	6632	0	#pragma macro 27
4	6632	0		acquire __CLSWMutex3
4	6632	1		index __LSWriteOptionsVar, __LSWriteOptions, __constVal3
4	6632	5		or __CLSWArgs3.Port, __constVal3, __LSWriteOptionsVar
4	6632	9		mov __CLSWArgs3.ReturnLen, __RLSBytesCount3
4	6632	11		mov __CLSWArgs3.Buffer, __RLSReadBuf3
4	6632	13		syscall 21, __CLSWArgs3
4	6632	16		mov __RLSBResult3, __CLSWArgs3.Result
4	6632	18		release __CLSWMutex3
4	6632	19	#line 6632 "NXTDefs.h"
4	6633	19		brtst 5, __RLSBError3, __RLSBResult3
4	6634	22		set __RLSBIterations3, 60
4	6636	25	#pragma macro 23
4	6636	25		acquire __CLSCSMutex3
4	6636	26		set __CLSCSArgs3.Port, 3
4	6636	29		syscall 23, __CLSCSArgs3
4	6636	32		mov __RLSBytesCount3, __CLSCSArgs3.BytesReady
4	6636	34		mov __RLSBResult3, __CLSCSArgs3.Result
4	6636	36		release __CLSCSMutex3
4	6636	37	#line 6636 "NXTDefs.h"
4	6637	37		sub __RLSBIterations3, __RLSBIterations3, __constVal1
4	6638	41		brtst 2, __RLSBError3, __RLSBIterations3
4	6639	44		brtst 0, __RLSBError3, __RLSBResult3
4	6640	47		brtst 4, __RLSBReadyToRead3, __RLSBResult3
4	6642	50		wait 1
4	6643	52		jmp __RLSBDoCheckStatus3
4	6645	54		brtst 4, __RLSBReturn3, __RLSBytesCount3
4	6646	57		arrinit __RLSReadBuf3, __constVal0, __RLSBytesCount3
4	6648	61	#pragma macro 25
4	6648	61		acquire __CLSRMutex3
4	6648	62		set __CLSRArgs3.Port, 3
4	6648	65		mov __CLSRArgs3.BufferLen, __RLSBytesCount3
4	6648	67		syscall 22, __CLSRArgs3
4	6648	70		mov __RLSReadBuf3, __CLSRArgs3.Buffer
4	6648	72		mov __RLSBResult3, __CLSRArgs3.Result
4	6648	74		release __CLSRMutex3
4	6648	75	#line 6648 "NXTDefs.h"
4	6649	75		brtst 5, __RLSBError3, __RLSBResult3
4	6650	78		mov __RLSLastGoodRead3, __RLSReadBuf3
4	6651	80		jmp __RLSBDone3
4	6653	82		mov __RLSReadBuf3, __RLSLastGoodRead3
4	6655	84		arrsize __RLSBytesCount3, __RLSReadBuf3
4	6657	87		subret ____ReadLSBytes3_return
5	102	0	#line 102 "C:\Users\Lucas\Desktop\UnB\Droid\sekksi2016\executivo\Executivo_MAIN_mark001.nxc"
5	103	0		set __signed_stack_001distanciaTachoCount, 3
5	102	3	#line 102 "C:\Users\Lucas\Desktop\UnB\Droid\sekksi2016\executivo\Executivo_MAIN_mark001.nxc"
5	102	3	#line 102 "C:\Users\Lucas\Desktop\UnB\Droid\sekksi2016\executivo\Executivo_MAIN_mark001.nxc"
5	102	3	#line 102 "C:\Users\Lucas\Desktop\UnB\Droid\sekksi2016\executivo\Executivo_MAIN_mark001.nxc"
5	103	3		mul __D0distanciaTachoCount, __signed_stack_001distanciaTachoCount, __distanciaTachoCount_7qG2_grau_7qG2_000
5	102	7	#line 102 "C:\Users\Lucas\Desktop\UnB\Droid\sekksi2016\executivo\Executivo_MAIN_mark001.nxc"
5	103	7		subret __distanciaTachoCount_return
5	102	9	#line 102 "C:\Users\Lucas\Desktop\UnB\Droid\sekksi2016\executivo\Executivo_MAIN_mark001.nxc"
5	105	9	#line 105 "C:\Users\Lucas\Desktop\UnB\Droid\sekksi2016\executivo\Executivo_MAIN_mark001.nxc"
5	106	9		subret __distanciaTachoCount_return
6	107	0	#line 107 "C:\Users\Lucas\Desktop\UnB\Droid\sekksi2016\executivo\Executivo_MAIN_mark001.nxc"
6	108	0		set __SetSensorLowspeed_7qG2_port_7qG2_000_inline_inicializaSensores, 0
6	107	3	#line 107 "C:\Users\Lucas\Desktop\UnB\Droid\sekksi2016\executivo\Executivo_MAIN_mark001.nxc"
6	107	3	#line 107 "C:\Users\Lucas\Desktop\UnB\Droid\sekksi2016\executivo\Executivo_MAIN_mark001.nxc"
6	108	3		mov __SetSensorLowspeed_7qG2_bIsPowered_7qG2_000_inline_inicializaSensores, __constVal1
6	4523	5	#line 4523 "NXCDefs.h"
6	4524	5		mov __SetSensorType_7qG2_port_7qG2_000_inline_SetSensorLowspeed_inline_inicializaSensores, __SetSensorLowspeed_7qG2_port_7qG2_000_inline_inicializaSensores
6	4523	7	#line 4523 "NXCDefs.h"
6	4523	7	#line 4523 "NXCDefs.h"
6	4524	7		mov __DU0SetSensorLowspeed_inline_inicializaSensores, __SetSensorLowspeed_7qG2_bIsPowered_7qG2_000_inline_inicializaSensores
6	4523	9	#line 4523 "NXCDefs.h"
6	4524	9		tst 5, __D0SetSensorLowspeed_inline_inicializaSensores, __DU0SetSensorLowspeed_inline_inicializaSensores
6	4523	12	#line 4523 "NXCDefs.h"
6	4524	12		brtst 4, __004__ASM_Label_36, __D0SetSensorLowspeed_inline_inicializaSensores
6	4523	15	#line 4523 "NXCDefs.h"
6	4524	15		set __DU0SetSensorLowspeed_inline_inicializaSensores, 11
6	4523	18	#line 4523 "NXCDefs.h"
6	4523	18	#line 4523 "NXCDefs.h"
6	4524	18		jmp __004__ASM_Label_37
6	4523	20	#line 4523 "NXCDefs.h"
6	4524	20		set __DU0SetSensorLowspeed_inline_inicializaSensores, 10
6	4523	23	#line 4523 "NXCDefs.h"
6	4523	23	#line 4523 "NXCDefs.h"
6	4524	23		mov __SetSensorType_7qG2_type_7qG2_000_inline_SetSensorLowspeed_inline_inicializaSensores, __DU0SetSensorLowspeed_inline_inicializaSensores
6	4428	25	#line 4428 "NXCDefs.h"
6	4429	25		setin __SetSensorType_7qG2_type_7qG2_000_inline_SetSensorLowspeed_inline_inicializaSensores, __SetSensorType_7qG2_port_7qG2_000_inline_SetSensorLowspeed_inline_inicializaSensores, 0
6	4428	29	#line 4428 "NXCDefs.h"
6	4523	29	#line 4523 "NXCDefs.h"
6	4524	29	#line 4524 "NXCDefs.h"
6	4525	29		mov __SetSensorMode_7qG2_port_7qG2_000_inline_SetSensorLowspeed_inline_inicializaSensores, __SetSensorLowspeed_7qG2_port_7qG2_000_inline_inicializaSensores
6	4524	31	#line 4524 "NXCDefs.h"
6	4524	31	#line 4524 "NXCDefs.h"
6	4525	31		set __SetSensorMode_7qG2_mode_7qG2_000_inline_SetSensorLowspeed_inline_inicializaSensores, 0
6	4524	34	#line 4524 "NXCDefs.h"
6	4441	34	#line 4441 "NXCDefs.h"
6	4442	34		setin __SetSensorMode_7qG2_mode_7qG2_000_inline_SetSensorLowspeed_inline_inicializaSensores, __SetSensorMode_7qG2_port_7qG2_000_inline_SetSensorLowspeed_inline_inicializaSensores, 1
6	4441	38	#line 4441 "NXCDefs.h"
6	4524	38	#line 4524 "NXCDefs.h"
6	4525	38	#line 4525 "NXCDefs.h"
6	4526	38		mov __ResetSensor_7qG2_port_7qG2_000_inline_SetSensorLowspeed_inline_inicializaSensores, __SetSensorLowspeed_7qG2_port_7qG2_000_inline_inicializaSensores
6	4525	40	#line 4525 "NXCDefs.h"
6	4459	40	#line 4459 "NXCDefs.h"
6	4460	40	#pragma macro 4
6	4460	40		mov __ResetSensorPort, __SetSensorLowspeed_7qG2_port_7qG2_000_inline_inicializaSensores
6	4460	42		subcall __ResetSensorSubroutine, ____ResetSensorSubroutine_return
6	8476	44	#line 8476 "NXCDefs.h"
6	4459	44	#line 4459 "NXCDefs.h"
6	4525	44	#line 4525 "NXCDefs.h"
6	107	44	#line 107 "C:\Users\Lucas\Desktop\UnB\Droid\sekksi2016\executivo\Executivo_MAIN_mark001.nxc"
6	108	44	#line 108 "C:\Users\Lucas\Desktop\UnB\Droid\sekksi2016\executivo\Executivo_MAIN_mark001.nxc"
6	109	44		set __SetSensorLowspeed_7qG2_port_7qG2_000_inline_inicializaSensores, 1
6	108	47	#line 108 "C:\Users\Lucas\Desktop\UnB\Droid\sekksi2016\executivo\Executivo_MAIN_mark001.nxc"
6	108	47	#line 108 "C:\Users\Lucas\Desktop\UnB\Droid\sekksi2016\executivo\Executivo_MAIN_mark001.nxc"
6	109	47		mov __SetSensorLowspeed_7qG2_bIsPowered_7qG2_000_inline_inicializaSensores, __constVal1
6	4523	49	#line 4523 "NXCDefs.h"
6	4524	49		mov __SetSensorType_7qG2_port_7qG2_000_inline_SetSensorLowspeed_inline_inicializaSensores, __SetSensorLowspeed_7qG2_port_7qG2_000_inline_inicializaSensores
6	4523	51	#line 4523 "NXCDefs.h"
6	4523	51	#line 4523 "NXCDefs.h"
6	4524	51		mov __DU0SetSensorLowspeed_inline_inicializaSensores, __SetSensorLowspeed_7qG2_bIsPowered_7qG2_000_inline_inicializaSensores
6	4523	53	#line 4523 "NXCDefs.h"
6	4524	53		tst 5, __D0SetSensorLowspeed_inline_inicializaSensores, __DU0SetSensorLowspeed_inline_inicializaSensores
6	4523	56	#line 4523 "NXCDefs.h"
6	4524	56		brtst 4, __005__ASM_Label_36, __D0SetSensorLowspeed_inline_inicializaSensores
6	4523	59	#line 4523 "NXCDefs.h"
6	4524	59		set __DU0SetSensorLowspeed_inline_inicializaSensores, 11
6	4523	62	#line 4523 "NXCDefs.h"
6	4523	62	#line 4523 "NXCDefs.h"
6	4524	62		jmp __005__ASM_Label_37
6	4523	64	#line 4523 "NXCDefs.h"
6	4524	64		set __DU0SetSensorLowspeed_inline_inicializaSensores, 10
6	4523	67	#line 4523 "NXCDefs.h"
6	4523	67	#line 4523 "NXCDefs.h"
6	4524	67		mov __SetSensorType_7qG2_type_7qG2_000_inline_SetSensorLowspeed_inline_inicializaSensores, __DU0SetSensorLowspeed_inline_inicializaSensores
6	4428	69	#line 4428 "NXCDefs.h"
6	4429	69		setin __SetSensorType_7qG2_type_7qG2_000_inline_SetSensorLowspeed_inline_inicializaSensores, __SetSensorType_7qG2_port_7qG2_000_inline_SetSensorLowspeed_inline_inicializaSensores, 0
6	4428	73	#line 4428 "NXCDefs.h"
6	4523	73	#line 4523 "NXCDefs.h"
6	4524	73	#line 4524 "NXCDefs.h"
6	4525	73		mov __SetSensorMode_7qG2_port_7qG2_000_inline_SetSensorLowspeed_inline_inicializaSensores, __SetSensorLowspeed_7qG2_port_7qG2_000_inline_inicializaSensores
6	4524	75	#line 4524 "NXCDefs.h"
6	4524	75	#line 4524 "NXCDefs.h"
6	4525	75		set __SetSensorMode_7qG2_mode_7qG2_000_inline_SetSensorLowspeed_inline_inicializaSensores, 0
6	4524	78	#line 4524 "NXCDefs.h"
6	4441	78	#line 4441 "NXCDefs.h"
6	4442	78		setin __SetSensorMode_7qG2_mode_7qG2_000_inline_SetSensorLowspeed_inline_inicializaSensores, __SetSensorMode_7qG2_port_7qG2_000_inline_SetSensorLowspeed_inline_inicializaSensores, 1
6	4441	82	#line 4441 "NXCDefs.h"
6	4524	82	#line 4524 "NXCDefs.h"
6	4525	82	#line 4525 "NXCDefs.h"
6	4526	82		mov __ResetSensor_7qG2_port_7qG2_000_inline_SetSensorLowspeed_inline_inicializaSensores, __SetSensorLowspeed_7qG2_port_7qG2_000_inline_inicializaSensores
6	4525	84	#line 4525 "NXCDefs.h"
6	4459	84	#line 4459 "NXCDefs.h"
6	4460	84	#pragma macro 4
6	4460	84		mov __ResetSensorPort, __SetSensorLowspeed_7qG2_port_7qG2_000_inline_inicializaSensores
6	4460	86		subcall __ResetSensorSubroutine, ____ResetSensorSubroutine_return
6	8539	88	#line 8539 "NXCDefs.h"
6	4459	88	#line 4459 "NXCDefs.h"
6	4525	88	#line 4525 "NXCDefs.h"
6	108	88	#line 108 "C:\Users\Lucas\Desktop\UnB\Droid\sekksi2016\executivo\Executivo_MAIN_mark001.nxc"
6	109	88	#line 109 "C:\Users\Lucas\Desktop\UnB\Droid\sekksi2016\executivo\Executivo_MAIN_mark001.nxc"
6	110	88		set __SetSensorLowspeed_7qG2_port_7qG2_000_inline_inicializaSensores, 2
6	109	91	#line 109 "C:\Users\Lucas\Desktop\UnB\Droid\sekksi2016\executivo\Executivo_MAIN_mark001.nxc"
6	109	91	#line 109 "C:\Users\Lucas\Desktop\UnB\Droid\sekksi2016\executivo\Executivo_MAIN_mark001.nxc"
6	110	91		mov __SetSensorLowspeed_7qG2_bIsPowered_7qG2_000_inline_inicializaSensores, __constVal1
6	4523	93	#line 4523 "NXCDefs.h"
6	4524	93		mov __SetSensorType_7qG2_port_7qG2_000_inline_SetSensorLowspeed_inline_inicializaSensores, __SetSensorLowspeed_7qG2_port_7qG2_000_inline_inicializaSensores
6	4523	95	#line 4523 "NXCDefs.h"
6	4523	95	#line 4523 "NXCDefs.h"
6	4524	95		mov __DU0SetSensorLowspeed_inline_inicializaSensores, __SetSensorLowspeed_7qG2_bIsPowered_7qG2_000_inline_inicializaSensores
6	4523	97	#line 4523 "NXCDefs.h"
6	4524	97		tst 5, __D0SetSensorLowspeed_inline_inicializaSensores, __DU0SetSensorLowspeed_inline_inicializaSensores
6	4523	100	#line 4523 "NXCDefs.h"
6	4524	100		brtst 4, __006__ASM_Label_36, __D0SetSensorLowspeed_inline_inicializaSensores
6	4523	103	#line 4523 "NXCDefs.h"
6	4524	103		set __DU0SetSensorLowspeed_inline_inicializaSensores, 11
6	4523	106	#line 4523 "NXCDefs.h"
6	4523	106	#line 4523 "NXCDefs.h"
6	4524	106		jmp __006__ASM_Label_37
6	4523	108	#line 4523 "NXCDefs.h"
6	4524	108		set __DU0SetSensorLowspeed_inline_inicializaSensores, 10
6	4523	111	#line 4523 "NXCDefs.h"
6	4523	111	#line 4523 "NXCDefs.h"
6	4524	111		mov __SetSensorType_7qG2_type_7qG2_000_inline_SetSensorLowspeed_inline_inicializaSensores, __DU0SetSensorLowspeed_inline_inicializaSensores
6	4428	113	#line 4428 "NXCDefs.h"
6	4429	113		setin __SetSensorType_7qG2_type_7qG2_000_inline_SetSensorLowspeed_inline_inicializaSensores, __SetSensorType_7qG2_port_7qG2_000_inline_SetSensorLowspeed_inline_inicializaSensores, 0
6	4428	117	#line 4428 "NXCDefs.h"
6	4523	117	#line 4523 "NXCDefs.h"
6	4524	117	#line 4524 "NXCDefs.h"
6	4525	117		mov __SetSensorMode_7qG2_port_7qG2_000_inline_SetSensorLowspeed_inline_inicializaSensores, __SetSensorLowspeed_7qG2_port_7qG2_000_inline_inicializaSensores
6	4524	119	#line 4524 "NXCDefs.h"
6	4524	119	#line 4524 "NXCDefs.h"
6	4525	119		set __SetSensorMode_7qG2_mode_7qG2_000_inline_SetSensorLowspeed_inline_inicializaSensores, 0
6	4524	122	#line 4524 "NXCDefs.h"
6	4441	122	#line 4441 "NXCDefs.h"
6	4442	122		setin __SetSensorMode_7qG2_mode_7qG2_000_inline_SetSensorLowspeed_inline_inicializaSensores, __SetSensorMode_7qG2_port_7qG2_000_inline_SetSensorLowspeed_inline_inicializaSensores, 1
6	4441	126	#line 4441 "NXCDefs.h"
6	4524	126	#line 4524 "NXCDefs.h"
6	4525	126	#line 4525 "NXCDefs.h"
6	4526	126		mov __ResetSensor_7qG2_port_7qG2_000_inline_SetSensorLowspeed_inline_inicializaSensores, __SetSensorLowspeed_7qG2_port_7qG2_000_inline_inicializaSensores
6	4525	128	#line 4525 "NXCDefs.h"
6	4459	128	#line 4459 "NXCDefs.h"
6	4460	128	#pragma macro 4
6	4460	128		mov __ResetSensorPort, __SetSensorLowspeed_7qG2_port_7qG2_000_inline_inicializaSensores
6	4460	130		subcall __ResetSensorSubroutine, ____ResetSensorSubroutine_return
6	8602	132	#line 8602 "NXCDefs.h"
6	4459	132	#line 4459 "NXCDefs.h"
6	4525	132	#line 4525 "NXCDefs.h"
6	109	132	#line 109 "C:\Users\Lucas\Desktop\UnB\Droid\sekksi2016\executivo\Executivo_MAIN_mark001.nxc"
6	110	132	#line 110 "C:\Users\Lucas\Desktop\UnB\Droid\sekksi2016\executivo\Executivo_MAIN_mark001.nxc"
6	111	132		set __SetSensorLowspeed_7qG2_port_7qG2_000_inline_inicializaSensores, 3
6	110	135	#line 110 "C:\Users\Lucas\Desktop\UnB\Droid\sekksi2016\executivo\Executivo_MAIN_mark001.nxc"
6	110	135	#line 110 "C:\Users\Lucas\Desktop\UnB\Droid\sekksi2016\executivo\Executivo_MAIN_mark001.nxc"
6	111	135		mov __SetSensorLowspeed_7qG2_bIsPowered_7qG2_000_inline_inicializaSensores, __constVal1
6	4523	137	#line 4523 "NXCDefs.h"
6	4524	137		mov __SetSensorType_7qG2_port_7qG2_000_inline_SetSensorLowspeed_inline_inicializaSensores, __SetSensorLowspeed_7qG2_port_7qG2_000_inline_inicializaSensores
6	4523	139	#line 4523 "NXCDefs.h"
6	4523	139	#line 4523 "NXCDefs.h"
6	4524	139		mov __DU0SetSensorLowspeed_inline_inicializaSensores, __SetSensorLowspeed_7qG2_bIsPowered_7qG2_000_inline_inicializaSensores
6	4523	141	#line 4523 "NXCDefs.h"
6	4524	141		tst 5, __D0SetSensorLowspeed_inline_inicializaSensores, __DU0SetSensorLowspeed_inline_inicializaSensores
6	4523	144	#line 4523 "NXCDefs.h"
6	4524	144		brtst 4, __007__ASM_Label_36, __D0SetSensorLowspeed_inline_inicializaSensores
6	4523	147	#line 4523 "NXCDefs.h"
6	4524	147		set __DU0SetSensorLowspeed_inline_inicializaSensores, 11
6	4523	150	#line 4523 "NXCDefs.h"
6	4523	150	#line 4523 "NXCDefs.h"
6	4524	150		jmp __007__ASM_Label_37
6	4523	152	#line 4523 "NXCDefs.h"
6	4524	152		set __DU0SetSensorLowspeed_inline_inicializaSensores, 10
6	4523	155	#line 4523 "NXCDefs.h"
6	4523	155	#line 4523 "NXCDefs.h"
6	4524	155		mov __SetSensorType_7qG2_type_7qG2_000_inline_SetSensorLowspeed_inline_inicializaSensores, __DU0SetSensorLowspeed_inline_inicializaSensores
6	4428	157	#line 4428 "NXCDefs.h"
6	4429	157		setin __SetSensorType_7qG2_type_7qG2_000_inline_SetSensorLowspeed_inline_inicializaSensores, __SetSensorType_7qG2_port_7qG2_000_inline_SetSensorLowspeed_inline_inicializaSensores, 0
6	4428	161	#line 4428 "NXCDefs.h"
6	4523	161	#line 4523 "NXCDefs.h"
6	4524	161	#line 4524 "NXCDefs.h"
6	4525	161		mov __SetSensorMode_7qG2_port_7qG2_000_inline_SetSensorLowspeed_inline_inicializaSensores, __SetSensorLowspeed_7qG2_port_7qG2_000_inline_inicializaSensores
6	4524	163	#line 4524 "NXCDefs.h"
6	4524	163	#line 4524 "NXCDefs.h"
6	4525	163		set __SetSensorMode_7qG2_mode_7qG2_000_inline_SetSensorLowspeed_inline_inicializaSensores, 0
6	4524	166	#line 4524 "NXCDefs.h"
6	4441	166	#line 4441 "NXCDefs.h"
6	4442	166		setin __SetSensorMode_7qG2_mode_7qG2_000_inline_SetSensorLowspeed_inline_inicializaSensores, __SetSensorMode_7qG2_port_7qG2_000_inline_SetSensorLowspeed_inline_inicializaSensores, 1
6	4441	170	#line 4441 "NXCDefs.h"
6	4524	170	#line 4524 "NXCDefs.h"
6	4525	170	#line 4525 "NXCDefs.h"
6	4526	170		mov __ResetSensor_7qG2_port_7qG2_000_inline_SetSensorLowspeed_inline_inicializaSensores, __SetSensorLowspeed_7qG2_port_7qG2_000_inline_inicializaSensores
6	4525	172	#line 4525 "NXCDefs.h"
6	4459	172	#line 4459 "NXCDefs.h"
6	4460	172	#pragma macro 4
6	4460	172		mov __ResetSensorPort, __SetSensorLowspeed_7qG2_port_7qG2_000_inline_inicializaSensores
6	4460	174		subcall __ResetSensorSubroutine, ____ResetSensorSubroutine_return
6	8665	176	#line 8665 "NXCDefs.h"
6	4459	176	#line 4459 "NXCDefs.h"
6	4525	176	#line 4525 "NXCDefs.h"
6	110	176	#line 110 "C:\Users\Lucas\Desktop\UnB\Droid\sekksi2016\executivo\Executivo_MAIN_mark001.nxc"
6	114	176	#line 114 "C:\Users\Lucas\Desktop\UnB\Droid\sekksi2016\executivo\Executivo_MAIN_mark001.nxc"
6	115	176		subret __inicializaSensores_return
7	116	0	#line 116 "C:\Users\Lucas\Desktop\UnB\Droid\sekksi2016\executivo\Executivo_MAIN_mark001.nxc"
7	117	0		strcat __strbufiniciaBlue, __constStr0009
7	116	4	#line 116 "C:\Users\Lucas\Desktop\UnB\Droid\sekksi2016\executivo\Executivo_MAIN_mark001.nxc"
7	117	4		mov __iniciaBlue_7qG2_DADOS_BT_7qG2_000.Name, __strbufiniciaBlue
7	116	6	#line 116 "C:\Users\Lucas\Desktop\UnB\Droid\sekksi2016\executivo\Executivo_MAIN_mark001.nxc"
7	117	6	#line 117 "C:\Users\Lucas\Desktop\UnB\Droid\sekksi2016\executivo\Executivo_MAIN_mark001.nxc"
7	118	6		set __iniciaBlue_7qG2_DADOS_BT_7qG2_000.ConnectionSlot, 1
7	117	9	#line 117 "C:\Users\Lucas\Desktop\UnB\Droid\sekksi2016\executivo\Executivo_MAIN_mark001.nxc"
7	117	9	#line 117 "C:\Users\Lucas\Desktop\UnB\Droid\sekksi2016\executivo\Executivo_MAIN_mark001.nxc"
7	118	9	#line 118 "C:\Users\Lucas\Desktop\UnB\Droid\sekksi2016\executivo\Executivo_MAIN_mark001.nxc"
7	119	9		set __iniciaBlue_7qG2_DADOS_BT_7qG2_000.Action, 1
7	118	12	#line 118 "C:\Users\Lucas\Desktop\UnB\Droid\sekksi2016\executivo\Executivo_MAIN_mark001.nxc"
7	118	12	#line 118 "C:\Users\Lucas\Desktop\UnB\Droid\sekksi2016\executivo\Executivo_MAIN_mark001.nxc"
7	127	12	#line 127 "C:\Users\Lucas\Desktop\UnB\Droid\sekksi2016\executivo\Executivo_MAIN_mark001.nxc"
7	128	12	#pragma macro 4
7	128	12	#line 128 "C:\Users\Lucas\Desktop\UnB\Droid\sekksi2016\executivo\Executivo_MAIN_mark001.nxc"
7	128	12		syscall 36, __iniciaBlue_7qG2_DADOS_BT_7qG2_000
7	126	15	#line 126 "C:\Users\Lucas\Desktop\UnB\Droid\sekksi2016\executivo\Executivo_MAIN_mark001.nxc"
7	126	15	#line 126 "C:\Users\Lucas\Desktop\UnB\Droid\sekksi2016\executivo\Executivo_MAIN_mark001.nxc"
7	126	15	#line 126 "C:\Users\Lucas\Desktop\UnB\Droid\sekksi2016\executivo\Executivo_MAIN_mark001.nxc"
7	126	15	#line 126 "C:\Users\Lucas\Desktop\UnB\Droid\sekksi2016\executivo\Executivo_MAIN_mark001.nxc"
7	127	15	#line 127 "C:\Users\Lucas\Desktop\UnB\Droid\sekksi2016\executivo\Executivo_MAIN_mark001.nxc"
7	127	15	#line 127 "C:\Users\Lucas\Desktop\UnB\Droid\sekksi2016\executivo\Executivo_MAIN_mark001.nxc"
7	127	15	#line 127 "C:\Users\Lucas\Desktop\UnB\Droid\sekksi2016\executivo\Executivo_MAIN_mark001.nxc"
7	128	15		set __Wait_7qG2_ms_7qG2_000_inline_iniciaBlue, 4000
7	127	18	#line 127 "C:\Users\Lucas\Desktop\UnB\Droid\sekksi2016\executivo\Executivo_MAIN_mark001.nxc"
7	8869	18	#line 8869 "NXCDefs.h"
7	8870	18		waitv __Wait_7qG2_ms_7qG2_000_inline_iniciaBlue
7	8869	20	#line 8869 "NXCDefs.h"
7	127	20	#line 127 "C:\Users\Lucas\Desktop\UnB\Droid\sekksi2016\executivo\Executivo_MAIN_mark001.nxc"
7	128	20	#line 128 "C:\Users\Lucas\Desktop\UnB\Droid\sekksi2016\executivo\Executivo_MAIN_mark001.nxc"
7	129	20		set __signed_stack_001iniciaBlue, 0
7	128	23	#line 128 "C:\Users\Lucas\Desktop\UnB\Droid\sekksi2016\executivo\Executivo_MAIN_mark001.nxc"
7	128	23	#line 128 "C:\Users\Lucas\Desktop\UnB\Droid\sekksi2016\executivo\Executivo_MAIN_mark001.nxc"
7	129	23		set __signed_stack_002iniciaBlue, 48
7	128	26	#line 128 "C:\Users\Lucas\Desktop\UnB\Droid\sekksi2016\executivo\Executivo_MAIN_mark001.nxc"
7	128	26	#line 128 "C:\Users\Lucas\Desktop\UnB\Droid\sekksi2016\executivo\Executivo_MAIN_mark001.nxc"
7	129	26		strcat __strbufiniciaBlue, __constStr0010
7	128	30	#line 128 "C:\Users\Lucas\Desktop\UnB\Droid\sekksi2016\executivo\Executivo_MAIN_mark001.nxc"
7	129	30		acquire __TextOutMutex
7	128	31	#line 128 "C:\Users\Lucas\Desktop\UnB\Droid\sekksi2016\executivo\Executivo_MAIN_mark001.nxc"
7	129	31		mov __TextOutArgs.Location.X, __signed_stack_001iniciaBlue
7	128	34	#line 128 "C:\Users\Lucas\Desktop\UnB\Droid\sekksi2016\executivo\Executivo_MAIN_mark001.nxc"
7	129	34		mov __TextOutArgs.Location.Y, __signed_stack_002iniciaBlue
7	128	37	#line 128 "C:\Users\Lucas\Desktop\UnB\Droid\sekksi2016\executivo\Executivo_MAIN_mark001.nxc"
7	129	37		set __TextOutArgs.Options, 0
7	128	40	#line 128 "C:\Users\Lucas\Desktop\UnB\Droid\sekksi2016\executivo\Executivo_MAIN_mark001.nxc"
7	129	40		mov __TextOutArgs.Text, __strbufiniciaBlue
7	128	42	#line 128 "C:\Users\Lucas\Desktop\UnB\Droid\sekksi2016\executivo\Executivo_MAIN_mark001.nxc"
7	129	42		syscall 13, __TextOutArgs
7	128	45	#line 128 "C:\Users\Lucas\Desktop\UnB\Droid\sekksi2016\executivo\Executivo_MAIN_mark001.nxc"
7	128	45	#line 128 "C:\Users\Lucas\Desktop\UnB\Droid\sekksi2016\executivo\Executivo_MAIN_mark001.nxc"
7	129	45		release __TextOutMutex
7	128	46	#line 128 "C:\Users\Lucas\Desktop\UnB\Droid\sekksi2016\executivo\Executivo_MAIN_mark001.nxc"
7	131	46	#line 131 "C:\Users\Lucas\Desktop\UnB\Droid\sekksi2016\executivo\Executivo_MAIN_mark001.nxc"
7	132	46		subret __iniciaBlue_return
8	149	0	#line 149 "C:\Users\Lucas\Desktop\UnB\Droid\sekksi2016\executivo\Executivo_MAIN_mark001.nxc"
8	150	0		mov __signed_stack_001distanciaGiro, __distanciaGiro_7qG2_grau_7qG2_000
8	149	2	#line 149 "C:\Users\Lucas\Desktop\UnB\Droid\sekksi2016\executivo\Executivo_MAIN_mark001.nxc"
8	149	2	#line 149 "C:\Users\Lucas\Desktop\UnB\Droid\sekksi2016\executivo\Executivo_MAIN_mark001.nxc"
8	150	2		set __D0distanciaGiro, 172
8	149	5	#line 149 "C:\Users\Lucas\Desktop\UnB\Droid\sekksi2016\executivo\Executivo_MAIN_mark001.nxc"
8	150	5		mul __signed_stack_001distanciaGiro, __signed_stack_001distanciaGiro, __D0distanciaGiro
8	149	9	#line 149 "C:\Users\Lucas\Desktop\UnB\Droid\sekksi2016\executivo\Executivo_MAIN_mark001.nxc"
8	149	9	#line 149 "C:\Users\Lucas\Desktop\UnB\Droid\sekksi2016\executivo\Executivo_MAIN_mark001.nxc"
8	150	9		set __D0distanciaGiro, 1420
8	149	12	#line 149 "C:\Users\Lucas\Desktop\UnB\Droid\sekksi2016\executivo\Executivo_MAIN_mark001.nxc"
8	150	12		div __D0distanciaGiro, __signed_stack_001distanciaGiro, __D0distanciaGiro
8	149	16	#line 149 "C:\Users\Lucas\Desktop\UnB\Droid\sekksi2016\executivo\Executivo_MAIN_mark001.nxc"
8	150	16		subret __distanciaGiro_return
8	149	18	#line 149 "C:\Users\Lucas\Desktop\UnB\Droid\sekksi2016\executivo\Executivo_MAIN_mark001.nxc"
8	152	18	#line 152 "C:\Users\Lucas\Desktop\UnB\Droid\sekksi2016\executivo\Executivo_MAIN_mark001.nxc"
8	153	18		subret __distanciaGiro_return
9	153	0	#line 153 "C:\Users\Lucas\Desktop\UnB\Droid\sekksi2016\executivo\Executivo_MAIN_mark001.nxc"
9	154	0		mov __signed_stack_001vira, __vira_7qG2_direcao_7qG2_000
9	153	2	#line 153 "C:\Users\Lucas\Desktop\UnB\Droid\sekksi2016\executivo\Executivo_MAIN_mark001.nxc"
9	153	2	#line 153 "C:\Users\Lucas\Desktop\UnB\Droid\sekksi2016\executivo\Executivo_MAIN_mark001.nxc"
9	154	2		set __D0vira, 2
9	153	5	#line 153 "C:\Users\Lucas\Desktop\UnB\Droid\sekksi2016\executivo\Executivo_MAIN_mark001.nxc"
9	154	5		cmp 4, __D0vira, __signed_stack_001vira, __D0vira
9	154	9	#line 154 "C:\Users\Lucas\Desktop\UnB\Droid\sekksi2016\executivo\Executivo_MAIN_mark001.nxc"
9	155	9		brtst 4, __ASM_Label_660, __D0vira
9	154	12	#line 154 "C:\Users\Lucas\Desktop\UnB\Droid\sekksi2016\executivo\Executivo_MAIN_mark001.nxc"
9	155	12		set __D0vira, 90
9	154	15	#line 154 "C:\Users\Lucas\Desktop\UnB\Droid\sekksi2016\executivo\Executivo_MAIN_mark001.nxc"
9	155	15	#pragma macro 7
9	155	15		setout __constVal1, 2, __D0vira, 1, __constVal3, 8, __constVal0, 6, __constVal32, 7, __constVal0, 5, __constVal0, 10, __constVal96, 11, __constVal32, 12, __constVal32, 0, __constVal63
9	8901	38	#line 8901 "C:\Users\Lucas\Desktop\UnB\Droid\sekksi2016\executivo\Executivo_MAIN_mark001.nxc"
9	154	38	#line 154 "C:\Users\Lucas\Desktop\UnB\Droid\sekksi2016\executivo\Executivo_MAIN_mark001.nxc"
9	155	38	#line 155 "C:\Users\Lucas\Desktop\UnB\Droid\sekksi2016\executivo\Executivo_MAIN_mark001.nxc"
9	156	38		mov __D0vira, __constValNeg90
9	155	40	#line 155 "C:\Users\Lucas\Desktop\UnB\Droid\sekksi2016\executivo\Executivo_MAIN_mark001.nxc"
9	156	40	#pragma macro 7
9	156	40		setout __constVal0, 2, __D0vira, 1, __constVal3, 8, __constVal0, 6, __constVal32, 7, __constVal0, 5, __constVal0, 10, __constVal96, 11, __constVal32, 12, __constVal32, 0, __constVal63
9	8906	63	#line 8906 "C:\Users\Lucas\Desktop\UnB\Droid\sekksi2016\executivo\Executivo_MAIN_mark001.nxc"
9	155	63	#line 155 "C:\Users\Lucas\Desktop\UnB\Droid\sekksi2016\executivo\Executivo_MAIN_mark001.nxc"
9	157	63	#line 157 "C:\Users\Lucas\Desktop\UnB\Droid\sekksi2016\executivo\Executivo_MAIN_mark001.nxc"
9	158	63		getout __signed_stack_001vira, __constVal1, 4
9	157	67	#line 157 "C:\Users\Lucas\Desktop\UnB\Droid\sekksi2016\executivo\Executivo_MAIN_mark001.nxc"
9	157	67	#line 157 "C:\Users\Lucas\Desktop\UnB\Droid\sekksi2016\executivo\Executivo_MAIN_mark001.nxc"
9	158	67		getout __D0vira, __constVal0, 4
9	157	71	#line 157 "C:\Users\Lucas\Desktop\UnB\Droid\sekksi2016\executivo\Executivo_MAIN_mark001.nxc"
9	158	71		sub __signed_stack_001vira, __signed_stack_001vira, __D0vira
9	157	75	#line 157 "C:\Users\Lucas\Desktop\UnB\Droid\sekksi2016\executivo\Executivo_MAIN_mark001.nxc"
9	157	75	#line 157 "C:\Users\Lucas\Desktop\UnB\Droid\sekksi2016\executivo\Executivo_MAIN_mark001.nxc"
9	158	75		set __D0vira, 2
9	157	78	#line 157 "C:\Users\Lucas\Desktop\UnB\Droid\sekksi2016\executivo\Executivo_MAIN_mark001.nxc"
9	158	78		div __distanciaGiro_7qG2_grau_7qG2_000, __signed_stack_001vira, __D0vira
9	157	82	#line 157 "C:\Users\Lucas\Desktop\UnB\Droid\sekksi2016\executivo\Executivo_MAIN_mark001.nxc"
9	157	82	#line 157 "C:\Users\Lucas\Desktop\UnB\Droid\sekksi2016\executivo\Executivo_MAIN_mark001.nxc"
9	158	82		subcall distanciaGiro, __distanciaGiro_return
9	157	84	#line 157 "C:\Users\Lucas\Desktop\UnB\Droid\sekksi2016\executivo\Executivo_MAIN_mark001.nxc"
9	158	84		mov __signed_stack_001vira, __D0distanciaGiro
9	157	86	#line 157 "C:\Users\Lucas\Desktop\UnB\Droid\sekksi2016\executivo\Executivo_MAIN_mark001.nxc"
9	158	86	#line 158 "C:\Users\Lucas\Desktop\UnB\Droid\sekksi2016\executivo\Executivo_MAIN_mark001.nxc"
9	159	86		mov __D0vira, __vira_7qG2_angulo_7qG2_000
9	158	88	#line 158 "C:\Users\Lucas\Desktop\UnB\Droid\sekksi2016\executivo\Executivo_MAIN_mark001.nxc"
9	159	88		cmp 0, __D0vira, __signed_stack_001vira, __D0vira
9	160	92	#line 160 "C:\Users\Lucas\Desktop\UnB\Droid\sekksi2016\executivo\Executivo_MAIN_mark001.nxc"
9	161	92		brtst 4, __ASM_Label_666, __D0vira
9	161	95	#line 161 "C:\Users\Lucas\Desktop\UnB\Droid\sekksi2016\executivo\Executivo_MAIN_mark001.nxc"
9	162	95		jmp __ASM_Label_665
9	161	97	#line 161 "C:\Users\Lucas\Desktop\UnB\Droid\sekksi2016\executivo\Executivo_MAIN_mark001.nxc"
9	161	97	#line 161 "C:\Users\Lucas\Desktop\UnB\Droid\sekksi2016\executivo\Executivo_MAIN_mark001.nxc"
9	162	97	#pragma macro 7
9	162	97		setout __constVal1, 2, __constVal0, 1, __constVal3, 8, __constVal0, 6, __constVal32, 7, __constVal0, 5, __constVal0, 10, __constVal96, 11, __constVal32, 12, __constVal32, 0, __constVal63
9	8954	120	#line 8954 "C:\Users\Lucas\Desktop\UnB\Droid\sekksi2016\executivo\Executivo_MAIN_mark001.nxc"
9	161	120	#line 161 "C:\Users\Lucas\Desktop\UnB\Droid\sekksi2016\executivo\Executivo_MAIN_mark001.nxc"
9	162	120	#line 162 "C:\Users\Lucas\Desktop\UnB\Droid\sekksi2016\executivo\Executivo_MAIN_mark001.nxc"
9	163	120	#pragma macro 7
9	163	120		setout __constVal0, 2, __constVal0, 1, __constVal3, 8, __constVal0, 6, __constVal32, 7, __constVal0, 5, __constVal0, 10, __constVal96, 11, __constVal32, 12, __constVal32, 0, __constVal63
9	8957	143	#line 8957 "C:\Users\Lucas\Desktop\UnB\Droid\sekksi2016\executivo\Executivo_MAIN_mark001.nxc"
9	162	143	#line 162 "C:\Users\Lucas\Desktop\UnB\Droid\sekksi2016\executivo\Executivo_MAIN_mark001.nxc"
9	164	143	#line 164 "C:\Users\Lucas\Desktop\UnB\Droid\sekksi2016\executivo\Executivo_MAIN_mark001.nxc"
9	165	143		jmp __ASM_Label_673
9	164	145	#line 164 "C:\Users\Lucas\Desktop\UnB\Droid\sekksi2016\executivo\Executivo_MAIN_mark001.nxc"
9	165	145		mov __signed_stack_001vira, __vira_7qG2_direcao_7qG2_000
9	164	147	#line 164 "C:\Users\Lucas\Desktop\UnB\Droid\sekksi2016\executivo\Executivo_MAIN_mark001.nxc"
9	164	147	#line 164 "C:\Users\Lucas\Desktop\UnB\Droid\sekksi2016\executivo\Executivo_MAIN_mark001.nxc"
9	165	147		set __D0vira, 1
9	164	150	#line 164 "C:\Users\Lucas\Desktop\UnB\Droid\sekksi2016\executivo\Executivo_MAIN_mark001.nxc"
9	165	150		cmp 4, __D0vira, __signed_stack_001vira, __D0vira
9	165	154	#line 165 "C:\Users\Lucas\Desktop\UnB\Droid\sekksi2016\executivo\Executivo_MAIN_mark001.nxc"
9	166	154		brtst 4, __ASM_Label_676, __D0vira
9	165	157	#line 165 "C:\Users\Lucas\Desktop\UnB\Droid\sekksi2016\executivo\Executivo_MAIN_mark001.nxc"
9	166	157		mov __D0vira, __constValNeg90
9	165	159	#line 165 "C:\Users\Lucas\Desktop\UnB\Droid\sekksi2016\executivo\Executivo_MAIN_mark001.nxc"
9	166	159	#pragma macro 7
9	166	159		setout __constVal1, 2, __D0vira, 1, __constVal3, 8, __constVal0, 6, __constVal32, 7, __constVal0, 5, __constVal0, 10, __constVal96, 11, __constVal32, 12, __constVal32, 0, __constVal63
9	8979	182	#line 8979 "C:\Users\Lucas\Desktop\UnB\Droid\sekksi2016\executivo\Executivo_MAIN_mark001.nxc"
9	165	182	#line 165 "C:\Users\Lucas\Desktop\UnB\Droid\sekksi2016\executivo\Executivo_MAIN_mark001.nxc"
9	166	182	#line 166 "C:\Users\Lucas\Desktop\UnB\Droid\sekksi2016\executivo\Executivo_MAIN_mark001.nxc"
9	167	182		set __D0vira, 90
9	166	185	#line 166 "C:\Users\Lucas\Desktop\UnB\Droid\sekksi2016\executivo\Executivo_MAIN_mark001.nxc"
9	167	185	#pragma macro 7
9	167	185		setout __constVal0, 2, __D0vira, 1, __constVal3, 8, __constVal0, 6, __constVal32, 7, __constVal0, 5, __constVal0, 10, __constVal96, 11, __constVal32, 12, __constVal32, 0, __constVal63
9	8984	208	#line 8984 "C:\Users\Lucas\Desktop\UnB\Droid\sekksi2016\executivo\Executivo_MAIN_mark001.nxc"
9	166	208	#line 166 "C:\Users\Lucas\Desktop\UnB\Droid\sekksi2016\executivo\Executivo_MAIN_mark001.nxc"
9	168	208	#line 168 "C:\Users\Lucas\Desktop\UnB\Droid\sekksi2016\executivo\Executivo_MAIN_mark001.nxc"
9	169	208		set __signed_stack_001vira, 0
9	168	211	#line 168 "C:\Users\Lucas\Desktop\UnB\Droid\sekksi2016\executivo\Executivo_MAIN_mark001.nxc"
9	168	211	#line 168 "C:\Users\Lucas\Desktop\UnB\Droid\sekksi2016\executivo\Executivo_MAIN_mark001.nxc"
9	169	211		getout __D0vira, __constVal1, 4
9	168	215	#line 168 "C:\Users\Lucas\Desktop\UnB\Droid\sekksi2016\executivo\Executivo_MAIN_mark001.nxc"
9	169	215		sub __signed_stack_001vira, __signed_stack_001vira, __D0vira
9	168	219	#line 168 "C:\Users\Lucas\Desktop\UnB\Droid\sekksi2016\executivo\Executivo_MAIN_mark001.nxc"
9	168	219	#line 168 "C:\Users\Lucas\Desktop\UnB\Droid\sekksi2016\executivo\Executivo_MAIN_mark001.nxc"
9	169	219		getout __D0vira, __constVal0, 4
9	168	223	#line 168 "C:\Users\Lucas\Desktop\UnB\Droid\sekksi2016\executivo\Executivo_MAIN_mark001.nxc"
9	169	223		add __signed_stack_001vira, __signed_stack_001vira, __D0vira
9	168	227	#line 168 "C:\Users\Lucas\Desktop\UnB\Droid\sekksi2016\executivo\Executivo_MAIN_mark001.nxc"
9	168	227	#line 168 "C:\Users\Lucas\Desktop\UnB\Droid\sekksi2016\executivo\Executivo_MAIN_mark001.nxc"
9	169	227		set __D0vira, 2
9	168	230	#line 168 "C:\Users\Lucas\Desktop\UnB\Droid\sekksi2016\executivo\Executivo_MAIN_mark001.nxc"
9	169	230		div __distanciaGiro_7qG2_grau_7qG2_000, __signed_stack_001vira, __D0vira
9	168	234	#line 168 "C:\Users\Lucas\Desktop\UnB\Droid\sekksi2016\executivo\Executivo_MAIN_mark001.nxc"
9	168	234	#line 168 "C:\Users\Lucas\Desktop\UnB\Droid\sekksi2016\executivo\Executivo_MAIN_mark001.nxc"
9	169	234		subcall distanciaGiro, __distanciaGiro_return
9	168	236	#line 168 "C:\Users\Lucas\Desktop\UnB\Droid\sekksi2016\executivo\Executivo_MAIN_mark001.nxc"
9	169	236		mov __signed_stack_001vira, __D0distanciaGiro
9	168	238	#line 168 "C:\Users\Lucas\Desktop\UnB\Droid\sekksi2016\executivo\Executivo_MAIN_mark001.nxc"
9	169	238	#line 169 "C:\Users\Lucas\Desktop\UnB\Droid\sekksi2016\executivo\Executivo_MAIN_mark001.nxc"
9	170	238		mov __D0vira, __vira_7qG2_angulo_7qG2_000
9	169	240	#line 169 "C:\Users\Lucas\Desktop\UnB\Droid\sekksi2016\executivo\Executivo_MAIN_mark001.nxc"
9	170	240		cmp 0, __D0vira, __signed_stack_001vira, __D0vira
9	171	244	#line 171 "C:\Users\Lucas\Desktop\UnB\Droid\sekksi2016\executivo\Executivo_MAIN_mark001.nxc"
9	172	244		brtst 4, __ASM_Label_682, __D0vira
9	172	247	#line 172 "C:\Users\Lucas\Desktop\UnB\Droid\sekksi2016\executivo\Executivo_MAIN_mark001.nxc"
9	173	247		jmp __ASM_Label_681
9	172	249	#line 172 "C:\Users\Lucas\Desktop\UnB\Droid\sekksi2016\executivo\Executivo_MAIN_mark001.nxc"
9	172	249	#line 172 "C:\Users\Lucas\Desktop\UnB\Droid\sekksi2016\executivo\Executivo_MAIN_mark001.nxc"
9	173	249	#pragma macro 7
9	173	249		setout __constVal1, 2, __constVal0, 1, __constVal3, 8, __constVal0, 6, __constVal32, 7, __constVal0, 5, __constVal0, 10, __constVal96, 11, __constVal32, 12, __constVal32, 0, __constVal63
9	9040	272	#line 9040 "C:\Users\Lucas\Desktop\UnB\Droid\sekksi2016\executivo\Executivo_MAIN_mark001.nxc"
9	172	272	#line 172 "C:\Users\Lucas\Desktop\UnB\Droid\sekksi2016\executivo\Executivo_MAIN_mark001.nxc"
9	173	272	#line 173 "C:\Users\Lucas\Desktop\UnB\Droid\sekksi2016\executivo\Executivo_MAIN_mark001.nxc"
9	174	272	#pragma macro 7
9	174	272		setout __constVal0, 2, __constVal0, 1, __constVal3, 8, __constVal0, 6, __constVal32, 7, __constVal0, 5, __constVal0, 10, __constVal96, 11, __constVal32, 12, __constVal32, 0, __constVal63
9	9043	295	#line 9043 "C:\Users\Lucas\Desktop\UnB\Droid\sekksi2016\executivo\Executivo_MAIN_mark001.nxc"
9	173	295	#line 173 "C:\Users\Lucas\Desktop\UnB\Droid\sekksi2016\executivo\Executivo_MAIN_mark001.nxc"
9	178	295	#line 178 "C:\Users\Lucas\Desktop\UnB\Droid\sekksi2016\executivo\Executivo_MAIN_mark001.nxc"
9	178	295	#line 178 "C:\Users\Lucas\Desktop\UnB\Droid\sekksi2016\executivo\Executivo_MAIN_mark001.nxc"
9	178	295	#line 178 "C:\Users\Lucas\Desktop\UnB\Droid\sekksi2016\executivo\Executivo_MAIN_mark001.nxc"
9	179	295		subret __vira_return
10	278	0	#line 278 "C:\Users\Lucas\Desktop\UnB\Droid\sekksi2016\executivo\Executivo_MAIN_mark001.nxc"
10	279	0	#pragma macro 24
10	279	0		acquire __RLSBmutex3
10	279	1		mov __RLSReadBuf3, __RLSBbufLSWrite1
10	279	3		set __RLSBytesCount3, 1
10	279	6		subcall __ReadLSBytes3, ____ReadLSBytes3_return
10	279	8		index __D0IniciaCorDoChao, __RLSReadBuf3, 65535
10	279	12		release __RLSBmutex3
10	9628	13	#line 9628 "C:\Users\Lucas\Desktop\UnB\Droid\sekksi2016\executivo\Executivo_MAIN_mark001.nxc"
10	278	13	#line 278 "C:\Users\Lucas\Desktop\UnB\Droid\sekksi2016\executivo\Executivo_MAIN_mark001.nxc"
10	279	13		mov __IniciaCorDoChao_7qG2_corEsq_7qG2_000, __D0IniciaCorDoChao
10	278	15	#line 278 "C:\Users\Lucas\Desktop\UnB\Droid\sekksi2016\executivo\Executivo_MAIN_mark001.nxc"
10	278	15	#line 278 "C:\Users\Lucas\Desktop\UnB\Droid\sekksi2016\executivo\Executivo_MAIN_mark001.nxc"
10	279	15	#line 279 "C:\Users\Lucas\Desktop\UnB\Droid\sekksi2016\executivo\Executivo_MAIN_mark001.nxc"
10	280	15	#pragma macro 24
10	280	15		acquire __RLSBmutex2
10	280	16		mov __RLSReadBuf2, __RLSBbufLSWrite1
10	280	18		set __RLSBytesCount2, 1
10	280	21		subcall __ReadLSBytes2, ____ReadLSBytes2_return
10	280	23		index __D0IniciaCorDoChao, __RLSReadBuf2, 65535
10	280	27		release __RLSBmutex2
10	9636	28	#line 9636 "C:\Users\Lucas\Desktop\UnB\Droid\sekksi2016\executivo\Executivo_MAIN_mark001.nxc"
10	279	28	#line 279 "C:\Users\Lucas\Desktop\UnB\Droid\sekksi2016\executivo\Executivo_MAIN_mark001.nxc"
10	280	28		mov __IniciaCorDoChao_7qG2_corDir_7qG2_000, __D0IniciaCorDoChao
10	279	30	#line 279 "C:\Users\Lucas\Desktop\UnB\Droid\sekksi2016\executivo\Executivo_MAIN_mark001.nxc"
10	279	30	#line 279 "C:\Users\Lucas\Desktop\UnB\Droid\sekksi2016\executivo\Executivo_MAIN_mark001.nxc"
10	281	30	#line 281 "C:\Users\Lucas\Desktop\UnB\Droid\sekksi2016\executivo\Executivo_MAIN_mark001.nxc"
10	281	30	#line 281 "C:\Users\Lucas\Desktop\UnB\Droid\sekksi2016\executivo\Executivo_MAIN_mark001.nxc"
10	282	30		mov __signed_stack_001IniciaCorDoChao, __D0IniciaCorDoChao
10	281	32	#line 281 "C:\Users\Lucas\Desktop\UnB\Droid\sekksi2016\executivo\Executivo_MAIN_mark001.nxc"
10	282	32		set __D0IniciaCorDoChao, 5
10	281	35	#line 281 "C:\Users\Lucas\Desktop\UnB\Droid\sekksi2016\executivo\Executivo_MAIN_mark001.nxc"
10	282	35		cmp 4, __D0IniciaCorDoChao, __signed_stack_001IniciaCorDoChao, __D0IniciaCorDoChao
10	281	39	#line 281 "C:\Users\Lucas\Desktop\UnB\Droid\sekksi2016\executivo\Executivo_MAIN_mark001.nxc"
10	282	39		brtst 5, __ASM_Label_797, __D0IniciaCorDoChao
10	281	42	#line 281 "C:\Users\Lucas\Desktop\UnB\Droid\sekksi2016\executivo\Executivo_MAIN_mark001.nxc"
10	282	42		mov __signed_stack_001IniciaCorDoChao, __IniciaCorDoChao_7qG2_corEsq_7qG2_000
10	281	44	#line 281 "C:\Users\Lucas\Desktop\UnB\Droid\sekksi2016\executivo\Executivo_MAIN_mark001.nxc"
10	281	44	#line 281 "C:\Users\Lucas\Desktop\UnB\Droid\sekksi2016\executivo\Executivo_MAIN_mark001.nxc"
10	282	44		set __D0IniciaCorDoChao, 5
10	281	47	#line 281 "C:\Users\Lucas\Desktop\UnB\Droid\sekksi2016\executivo\Executivo_MAIN_mark001.nxc"
10	282	47		cmp 4, __D0IniciaCorDoChao, __signed_stack_001IniciaCorDoChao, __D0IniciaCorDoChao
10	282	51	#line 282 "C:\Users\Lucas\Desktop\UnB\Droid\sekksi2016\executivo\Executivo_MAIN_mark001.nxc"
10	283	51		brtst 4, __ASM_Label_804, __D0IniciaCorDoChao
10	282	54	#line 282 "C:\Users\Lucas\Desktop\UnB\Droid\sekksi2016\executivo\Executivo_MAIN_mark001.nxc"
10	283	54		set __RetornaBoneco_7qG2_cor_7qG2_000, 5
10	282	57	#line 282 "C:\Users\Lucas\Desktop\UnB\Droid\sekksi2016\executivo\Executivo_MAIN_mark001.nxc"
10	282	57	#line 282 "C:\Users\Lucas\Desktop\UnB\Droid\sekksi2016\executivo\Executivo_MAIN_mark001.nxc"
10	283	57		subcall RetornaBoneco, __RetornaBoneco_return
10	282	59	#line 282 "C:\Users\Lucas\Desktop\UnB\Droid\sekksi2016\executivo\Executivo_MAIN_mark001.nxc"
10	283	59	#line 283 "C:\Users\Lucas\Desktop\UnB\Droid\sekksi2016\executivo\Executivo_MAIN_mark001.nxc"
10	284	59		jmp __ASM_Label_807
10	283	61	#line 283 "C:\Users\Lucas\Desktop\UnB\Droid\sekksi2016\executivo\Executivo_MAIN_mark001.nxc"
10	284	61		mov __signed_stack_001IniciaCorDoChao, __IniciaCorDoChao_7qG2_corDir_7qG2_000
10	283	63	#line 283 "C:\Users\Lucas\Desktop\UnB\Droid\sekksi2016\executivo\Executivo_MAIN_mark001.nxc"
10	283	63	#line 283 "C:\Users\Lucas\Desktop\UnB\Droid\sekksi2016\executivo\Executivo_MAIN_mark001.nxc"
10	284	63		set __D0IniciaCorDoChao, 3
10	283	66	#line 283 "C:\Users\Lucas\Desktop\UnB\Droid\sekksi2016\executivo\Executivo_MAIN_mark001.nxc"
10	284	66		cmp 4, __D0IniciaCorDoChao, __signed_stack_001IniciaCorDoChao, __D0IniciaCorDoChao
10	283	70	#line 283 "C:\Users\Lucas\Desktop\UnB\Droid\sekksi2016\executivo\Executivo_MAIN_mark001.nxc"
10	284	70		brtst 5, __ASM_Label_808, __D0IniciaCorDoChao
10	283	73	#line 283 "C:\Users\Lucas\Desktop\UnB\Droid\sekksi2016\executivo\Executivo_MAIN_mark001.nxc"
10	284	73		mov __signed_stack_001IniciaCorDoChao, __IniciaCorDoChao_7qG2_corEsq_7qG2_000
10	283	75	#line 283 "C:\Users\Lucas\Desktop\UnB\Droid\sekksi2016\executivo\Executivo_MAIN_mark001.nxc"
10	283	75	#line 283 "C:\Users\Lucas\Desktop\UnB\Droid\sekksi2016\executivo\Executivo_MAIN_mark001.nxc"
10	284	75		set __D0IniciaCorDoChao, 3
10	283	78	#line 283 "C:\Users\Lucas\Desktop\UnB\Droid\sekksi2016\executivo\Executivo_MAIN_mark001.nxc"
10	284	78		cmp 4, __D0IniciaCorDoChao, __signed_stack_001IniciaCorDoChao, __D0IniciaCorDoChao
10	284	82	#line 284 "C:\Users\Lucas\Desktop\UnB\Droid\sekksi2016\executivo\Executivo_MAIN_mark001.nxc"
10	285	82		brtst 4, __ASM_Label_815, __D0IniciaCorDoChao
10	284	85	#line 284 "C:\Users\Lucas\Desktop\UnB\Droid\sekksi2016\executivo\Executivo_MAIN_mark001.nxc"
10	285	85		set __RetornaBoneco_7qG2_cor_7qG2_000, 3
10	284	88	#line 284 "C:\Users\Lucas\Desktop\UnB\Droid\sekksi2016\executivo\Executivo_MAIN_mark001.nxc"
10	284	88	#line 284 "C:\Users\Lucas\Desktop\UnB\Droid\sekksi2016\executivo\Executivo_MAIN_mark001.nxc"
10	285	88		subcall RetornaBoneco, __RetornaBoneco_return
10	284	90	#line 284 "C:\Users\Lucas\Desktop\UnB\Droid\sekksi2016\executivo\Executivo_MAIN_mark001.nxc"
10	288	90	#line 288 "C:\Users\Lucas\Desktop\UnB\Droid\sekksi2016\executivo\Executivo_MAIN_mark001.nxc"
10	288	90	#line 288 "C:\Users\Lucas\Desktop\UnB\Droid\sekksi2016\executivo\Executivo_MAIN_mark001.nxc"
10	288	90	#line 288 "C:\Users\Lucas\Desktop\UnB\Droid\sekksi2016\executivo\Executivo_MAIN_mark001.nxc"
10	289	90		subret __IniciaCorDoChao_return
11	302	0	#line 302 "C:\Users\Lucas\Desktop\UnB\Droid\sekksi2016\executivo\Executivo_MAIN_mark001.nxc"
11	303	0		mov __signed_stack_001RetornaBoneco, __RetornaBoneco_7qG2_cor_7qG2_000
11	302	2	#line 302 "C:\Users\Lucas\Desktop\UnB\Droid\sekksi2016\executivo\Executivo_MAIN_mark001.nxc"
11	302	2	#line 302 "C:\Users\Lucas\Desktop\UnB\Droid\sekksi2016\executivo\Executivo_MAIN_mark001.nxc"
11	303	2		set __D0RetornaBoneco, 3
11	302	5	#line 302 "C:\Users\Lucas\Desktop\UnB\Droid\sekksi2016\executivo\Executivo_MAIN_mark001.nxc"
11	303	5		cmp 4, __D0RetornaBoneco, __signed_stack_001RetornaBoneco, __D0RetornaBoneco
11	303	9	#line 303 "C:\Users\Lucas\Desktop\UnB\Droid\sekksi2016\executivo\Executivo_MAIN_mark001.nxc"
11	304	9		brtst 4, __ASM_Label_834, __D0RetornaBoneco
11	303	12	#line 303 "C:\Users\Lucas\Desktop\UnB\Droid\sekksi2016\executivo\Executivo_MAIN_mark001.nxc"
11	304	12	#pragma macro 25
11	304	12		acquire __RemoteMutex
11	304	13		mov __SRSTmpBuf, __DCMessageWritePacket
11	304	15		replace __SRSTmpBuf, __SRSTmpBuf, __constVal2, __constVal2
11	304	20		replace __SRSTmpBuf, __SRSTmpBuf, __constVal3, __constVal5
11	304	25		mov __SRSTmpLongVal, __constVal4
11	304	27		flatten __SRSFlattenBuf, __SRSTmpLongVal
11	304	30		arrbuild __SRSSendBuf, __SRSTmpBuf, __SRSFlattenBuf
11	304	35		brcmp 0, __ConnWrite_Else0, __constVal1, __constVal4
11	304	39		acquire __CHSWMutex
11	304	40		sub __WFRRTmpByte, __constVal1, __constVal4
11	304	44		arrbuild __CHSWArgs.Buffer, __WFRRTmpByte, __SRSSendBuf
11	304	49		syscall 37, __CHSWArgs
11	304	52		mov __D0RetornaBoneco, __CHSWArgs.Status
11	304	54		release __CHSWMutex
11	304	55		jmp __ConnWrite_EndIf0
11	304	57		acquire __CBTWMutex
11	304	58		mov __CBTWArgs.Connection, __constVal1
11	304	60		mov __CBTWArgs.Buffer, __SRSSendBuf
11	304	62		syscall 29, __CBTWArgs
11	304	65		mov __D0RetornaBoneco, __CBTWArgs.Result
11	304	67		release __CBTWMutex
11	304	68		release __RemoteMutex
11	9808	69	#line 9808 "C:\Users\Lucas\Desktop\UnB\Droid\sekksi2016\executivo\Executivo_MAIN_mark001.nxc"
11	303	69	#line 303 "C:\Users\Lucas\Desktop\UnB\Droid\sekksi2016\executivo\Executivo_MAIN_mark001.nxc"
11	303	69	#line 303 "C:\Users\Lucas\Desktop\UnB\Droid\sekksi2016\executivo\Executivo_MAIN_mark001.nxc"
11	304	69	#line 304 "C:\Users\Lucas\Desktop\UnB\Droid\sekksi2016\executivo\Executivo_MAIN_mark001.nxc"
11	305	69	#pragma macro 9
11	305	69		acquire __MRMutex
11	305	70		mov __MRArgs.QueueID, __constVal1
11	305	72		mov __MRArgs.Remove, __constVal1
11	305	74		set __RRNTmpVal, 0
11	305	77		syscall 27, __MRArgs
11	305	80		unflatten __RRNTmpVal, __RRNErr, __MRArgs.Message, __RRNTmpVal
11	305	85		mov __RetornaBoneco_7qG2_passei_7qG2_000, __RRNTmpVal
11	305	87		mov __D0RetornaBoneco, __MRArgs.Result
11	305	89		release __MRMutex
11	9812	90	#line 9812 "C:\Users\Lucas\Desktop\UnB\Droid\sekksi2016\executivo\Executivo_MAIN_mark001.nxc"
11	304	90	#line 304 "C:\Users\Lucas\Desktop\UnB\Droid\sekksi2016\executivo\Executivo_MAIN_mark001.nxc"
11	304	90	#line 304 "C:\Users\Lucas\Desktop\UnB\Droid\sekksi2016\executivo\Executivo_MAIN_mark001.nxc"
11	305	90	#line 305 "C:\Users\Lucas\Desktop\UnB\Droid\sekksi2016\executivo\Executivo_MAIN_mark001.nxc"
11	306	90		set __Wait_7qG2_ms_7qG2_000_inline_RetornaBoneco, 30
11	305	93	#line 305 "C:\Users\Lucas\Desktop\UnB\Droid\sekksi2016\executivo\Executivo_MAIN_mark001.nxc"
11	8869	93	#line 8869 "NXCDefs.h"
11	8870	93		waitv __Wait_7qG2_ms_7qG2_000_inline_RetornaBoneco
11	8869	95	#line 8869 "NXCDefs.h"
11	305	95	#line 305 "C:\Users\Lucas\Desktop\UnB\Droid\sekksi2016\executivo\Executivo_MAIN_mark001.nxc"
11	306	95	#line 306 "C:\Users\Lucas\Desktop\UnB\Droid\sekksi2016\executivo\Executivo_MAIN_mark001.nxc"
11	307	95		jmp __ASM_Label_837
11	306	97	#line 306 "C:\Users\Lucas\Desktop\UnB\Droid\sekksi2016\executivo\Executivo_MAIN_mark001.nxc"
11	307	97		mov __signed_stack_001RetornaBoneco, __RetornaBoneco_7qG2_cor_7qG2_000
11	306	99	#line 306 "C:\Users\Lucas\Desktop\UnB\Droid\sekksi2016\executivo\Executivo_MAIN_mark001.nxc"
11	306	99	#line 306 "C:\Users\Lucas\Desktop\UnB\Droid\sekksi2016\executivo\Executivo_MAIN_mark001.nxc"
11	307	99		set __D0RetornaBoneco, 5
11	306	102	#line 306 "C:\Users\Lucas\Desktop\UnB\Droid\sekksi2016\executivo\Executivo_MAIN_mark001.nxc"
11	307	102		cmp 4, __D0RetornaBoneco, __signed_stack_001RetornaBoneco, __D0RetornaBoneco
11	307	106	#line 307 "C:\Users\Lucas\Desktop\UnB\Droid\sekksi2016\executivo\Executivo_MAIN_mark001.nxc"
11	308	106		brtst 4, __ASM_Label_840, __D0RetornaBoneco
11	307	109	#line 307 "C:\Users\Lucas\Desktop\UnB\Droid\sekksi2016\executivo\Executivo_MAIN_mark001.nxc"
11	308	109	#pragma macro 25
11	308	109		acquire __RemoteMutex
11	308	110		mov __SRSTmpBuf, __DCMessageWritePacket
11	308	112		replace __SRSTmpBuf, __SRSTmpBuf, __constVal2, __constVal2
11	308	117		replace __SRSTmpBuf, __SRSTmpBuf, __constVal3, __constVal5
11	308	122		mov __SRSTmpLongVal, __constVal5
11	308	124		flatten __SRSFlattenBuf, __SRSTmpLongVal
11	308	127		arrbuild __SRSSendBuf, __SRSTmpBuf, __SRSFlattenBuf
11	308	132		brcmp 0, __ConnWrite_Else1, __constVal1, __constVal4
11	308	136		acquire __CHSWMutex
11	308	137		sub __WFRRTmpByte, __constVal1, __constVal4
11	308	141		arrbuild __CHSWArgs.Buffer, __WFRRTmpByte, __SRSSendBuf
11	308	146		syscall 37, __CHSWArgs
11	308	149		mov __D0RetornaBoneco, __CHSWArgs.Status
11	308	151		release __CHSWMutex
11	308	152		jmp __ConnWrite_EndIf1
11	308	154		acquire __CBTWMutex
11	308	155		mov __CBTWArgs.Connection, __constVal1
11	308	157		mov __CBTWArgs.Buffer, __SRSSendBuf
11	308	159		syscall 29, __CBTWArgs
11	308	162		mov __D0RetornaBoneco, __CBTWArgs.Result
11	308	164		release __CBTWMutex
11	308	165		release __RemoteMutex
11	9845	166	#line 9845 "C:\Users\Lucas\Desktop\UnB\Droid\sekksi2016\executivo\Executivo_MAIN_mark001.nxc"
11	307	166	#line 307 "C:\Users\Lucas\Desktop\UnB\Droid\sekksi2016\executivo\Executivo_MAIN_mark001.nxc"
11	307	166	#line 307 "C:\Users\Lucas\Desktop\UnB\Droid\sekksi2016\executivo\Executivo_MAIN_mark001.nxc"
11	308	166	#line 308 "C:\Users\Lucas\Desktop\UnB\Droid\sekksi2016\executivo\Executivo_MAIN_mark001.nxc"
11	309	166	#pragma macro 9
11	309	166		acquire __MRMutex
11	309	167		mov __MRArgs.QueueID, __constVal1
11	309	169		mov __MRArgs.Remove, __constVal1
11	309	171		set __RRNTmpVal, 0
11	309	174		syscall 27, __MRArgs
11	309	177		unflatten __RRNTmpVal, __RRNErr, __MRArgs.Message, __RRNTmpVal
11	309	182		mov __RetornaBoneco_7qG2_passei_7qG2_000, __RRNTmpVal
11	309	184		mov __D0RetornaBoneco, __MRArgs.Result
11	309	186		release __MRMutex
11	9849	187	#line 9849 "C:\Users\Lucas\Desktop\UnB\Droid\sekksi2016\executivo\Executivo_MAIN_mark001.nxc"
11	308	187	#line 308 "C:\Users\Lucas\Desktop\UnB\Droid\sekksi2016\executivo\Executivo_MAIN_mark001.nxc"
11	308	187	#line 308 "C:\Users\Lucas\Desktop\UnB\Droid\sekksi2016\executivo\Executivo_MAIN_mark001.nxc"
11	309	187	#line 309 "C:\Users\Lucas\Desktop\UnB\Droid\sekksi2016\executivo\Executivo_MAIN_mark001.nxc"
11	310	187		set __Wait_7qG2_ms_7qG2_000_inline_RetornaBoneco, 30
11	309	190	#line 309 "C:\Users\Lucas\Desktop\UnB\Droid\sekksi2016\executivo\Executivo_MAIN_mark001.nxc"
11	8869	190	#line 8869 "NXCDefs.h"
11	8870	190		waitv __Wait_7qG2_ms_7qG2_000_inline_RetornaBoneco
11	8869	192	#line 8869 "NXCDefs.h"
11	309	192	#line 309 "C:\Users\Lucas\Desktop\UnB\Droid\sekksi2016\executivo\Executivo_MAIN_mark001.nxc"
11	311	192	#line 311 "C:\Users\Lucas\Desktop\UnB\Droid\sekksi2016\executivo\Executivo_MAIN_mark001.nxc"
11	311	192	#line 311 "C:\Users\Lucas\Desktop\UnB\Droid\sekksi2016\executivo\Executivo_MAIN_mark001.nxc"
11	311	192	#line 311 "C:\Users\Lucas\Desktop\UnB\Droid\sekksi2016\executivo\Executivo_MAIN_mark001.nxc"
11	312	192		mov __signed_stack_001RetornaBoneco, __RetornaBoneco_7qG2_passei_7qG2_000
11	311	194	#line 311 "C:\Users\Lucas\Desktop\UnB\Droid\sekksi2016\executivo\Executivo_MAIN_mark001.nxc"
11	311	194	#line 311 "C:\Users\Lucas\Desktop\UnB\Droid\sekksi2016\executivo\Executivo_MAIN_mark001.nxc"
11	312	194		set __D0RetornaBoneco, 5
11	311	197	#line 311 "C:\Users\Lucas\Desktop\UnB\Droid\sekksi2016\executivo\Executivo_MAIN_mark001.nxc"
11	312	197		cmp 5, __D0RetornaBoneco, __signed_stack_001RetornaBoneco, __D0RetornaBoneco
11	311	201	#line 311 "C:\Users\Lucas\Desktop\UnB\Droid\sekksi2016\executivo\Executivo_MAIN_mark001.nxc"
11	312	201		brtst 4, __ASM_Label_831, __D0RetornaBoneco
11	311	204	#line 311 "C:\Users\Lucas\Desktop\UnB\Droid\sekksi2016\executivo\Executivo_MAIN_mark001.nxc"
11	312	204		jmp __ASM_Label_830
11	311	206	#line 311 "C:\Users\Lucas\Desktop\UnB\Droid\sekksi2016\executivo\Executivo_MAIN_mark001.nxc"
11	311	206	#line 311 "C:\Users\Lucas\Desktop\UnB\Droid\sekksi2016\executivo\Executivo_MAIN_mark001.nxc"
11	315	206	#line 315 "C:\Users\Lucas\Desktop\UnB\Droid\sekksi2016\executivo\Executivo_MAIN_mark001.nxc"
11	316	206		subret __RetornaBoneco_return
12	317	0	#line 317 "C:\Users\Lucas\Desktop\UnB\Droid\sekksi2016\executivo\Executivo_MAIN_mark001.nxc"
12	318	0		set my_tc_d, 0
12	317	3	#line 317 "C:\Users\Lucas\Desktop\UnB\Droid\sekksi2016\executivo\Executivo_MAIN_mark001.nxc"
12	317	3	#line 317 "C:\Users\Lucas\Desktop\UnB\Droid\sekksi2016\executivo\Executivo_MAIN_mark001.nxc"
12	318	3	#line 318 "C:\Users\Lucas\Desktop\UnB\Droid\sekksi2016\executivo\Executivo_MAIN_mark001.nxc"
12	319	3		set my_tc_e, 0
12	318	6	#line 318 "C:\Users\Lucas\Desktop\UnB\Droid\sekksi2016\executivo\Executivo_MAIN_mark001.nxc"
12	318	6	#line 318 "C:\Users\Lucas\Desktop\UnB\Droid\sekksi2016\executivo\Executivo_MAIN_mark001.nxc"
12	320	6	#line 320 "C:\Users\Lucas\Desktop\UnB\Droid\sekksi2016\executivo\Executivo_MAIN_mark001.nxc"
12	320	6	#line 320 "C:\Users\Lucas\Desktop\UnB\Droid\sekksi2016\executivo\Executivo_MAIN_mark001.nxc"
12	320	6	#line 320 "C:\Users\Lucas\Desktop\UnB\Droid\sekksi2016\executivo\Executivo_MAIN_mark001.nxc"
12	320	6	#line 320 "C:\Users\Lucas\Desktop\UnB\Droid\sekksi2016\executivo\Executivo_MAIN_mark001.nxc"
12	321	6		add __signed_stack_001andaRetoDireita, my_tc_d, my_tc_e
12	320	10	#line 320 "C:\Users\Lucas\Desktop\UnB\Droid\sekksi2016\executivo\Executivo_MAIN_mark001.nxc"
12	320	10	#line 320 "C:\Users\Lucas\Desktop\UnB\Droid\sekksi2016\executivo\Executivo_MAIN_mark001.nxc"
12	321	10		set __D0andaRetoDireita, 2
12	320	13	#line 320 "C:\Users\Lucas\Desktop\UnB\Droid\sekksi2016\executivo\Executivo_MAIN_mark001.nxc"
12	321	13		div __distanciaTachoCount_7qG2_grau_7qG2_000, __signed_stack_001andaRetoDireita, __D0andaRetoDireita
12	320	17	#line 320 "C:\Users\Lucas\Desktop\UnB\Droid\sekksi2016\executivo\Executivo_MAIN_mark001.nxc"
12	320	17	#line 320 "C:\Users\Lucas\Desktop\UnB\Droid\sekksi2016\executivo\Executivo_MAIN_mark001.nxc"
12	321	17		subcall distanciaTachoCount, __distanciaTachoCount_return
12	320	19	#line 320 "C:\Users\Lucas\Desktop\UnB\Droid\sekksi2016\executivo\Executivo_MAIN_mark001.nxc"
12	321	19		mov __signed_stack_001andaRetoDireita, __D0distanciaTachoCount
12	320	21	#line 320 "C:\Users\Lucas\Desktop\UnB\Droid\sekksi2016\executivo\Executivo_MAIN_mark001.nxc"
12	320	21	#line 320 "C:\Users\Lucas\Desktop\UnB\Droid\sekksi2016\executivo\Executivo_MAIN_mark001.nxc"
12	321	21		mov __signed_stack_002andaRetoDireita, __andaRetoDireita_7qG2_distAndar_7qG2_000
12	320	23	#line 320 "C:\Users\Lucas\Desktop\UnB\Droid\sekksi2016\executivo\Executivo_MAIN_mark001.nxc"
12	320	23	#line 320 "C:\Users\Lucas\Desktop\UnB\Droid\sekksi2016\executivo\Executivo_MAIN_mark001.nxc"
12	321	23		set __D0andaRetoDireita, 100
12	320	26	#line 320 "C:\Users\Lucas\Desktop\UnB\Droid\sekksi2016\executivo\Executivo_MAIN_mark001.nxc"
12	321	26		mul __D0andaRetoDireita, __signed_stack_002andaRetoDireita, __D0andaRetoDireita
12	320	30	#line 320 "C:\Users\Lucas\Desktop\UnB\Droid\sekksi2016\executivo\Executivo_MAIN_mark001.nxc"
12	321	30		cmp 0, __D0andaRetoDireita, __signed_stack_001andaRetoDireita, __D0andaRetoDireita
12	321	34	#line 321 "C:\Users\Lucas\Desktop\UnB\Droid\sekksi2016\executivo\Executivo_MAIN_mark001.nxc"
12	322	34		brtst 4, __ASM_Label_850, __D0andaRetoDireita
12	321	37	#line 321 "C:\Users\Lucas\Desktop\UnB\Droid\sekksi2016\executivo\Executivo_MAIN_mark001.nxc"
12	322	37	#pragma macro 26
12	322	37		acquire __RLSBmutex0
12	322	38		mov __RLSReadBuf0, __RLSBbufLSWrite1
12	322	40		set __RLSBytesCount0, 1
12	322	43		waitv __constVal15
12	322	45		subcall __ReadLSBytes0, ____ReadLSBytes0_return
12	322	47		index __D0andaRetoDireita, __RLSReadBuf0, 65535
12	322	51		release __RLSBmutex0
12	9962	52	#line 9962 "C:\Users\Lucas\Desktop\UnB\Droid\sekksi2016\executivo\Executivo_MAIN_mark001.nxc"
12	321	52	#line 321 "C:\Users\Lucas\Desktop\UnB\Droid\sekksi2016\executivo\Executivo_MAIN_mark001.nxc"
12	322	52		mov __andaRetoDireita_7qG2_distanciaAtual_7qG2_000, __D0andaRetoDireita
12	321	54	#line 321 "C:\Users\Lucas\Desktop\UnB\Droid\sekksi2016\executivo\Executivo_MAIN_mark001.nxc"
12	321	54	#line 321 "C:\Users\Lucas\Desktop\UnB\Droid\sekksi2016\executivo\Executivo_MAIN_mark001.nxc"
12	323	54	#line 323 "C:\Users\Lucas\Desktop\UnB\Droid\sekksi2016\executivo\Executivo_MAIN_mark001.nxc"
12	323	54	#line 323 "C:\Users\Lucas\Desktop\UnB\Droid\sekksi2016\executivo\Executivo_MAIN_mark001.nxc"
12	324	54		mov __signed_stack_001andaRetoDireita, __D0andaRetoDireita
12	323	56	#line 323 "C:\Users\Lucas\Desktop\UnB\Droid\sekksi2016\executivo\Executivo_MAIN_mark001.nxc"
12	324	56		mov __D0andaRetoDireita, __andaRetoDireita_7qG2_distParede_7qG2_000
12	323	58	#line 323 "C:\Users\Lucas\Desktop\UnB\Droid\sekksi2016\executivo\Executivo_MAIN_mark001.nxc"
12	324	58		cmp 4, __D0andaRetoDireita, __signed_stack_001andaRetoDireita, __D0andaRetoDireita
12	324	62	#line 324 "C:\Users\Lucas\Desktop\UnB\Droid\sekksi2016\executivo\Executivo_MAIN_mark001.nxc"
12	325	62		brtst 4, __ASM_Label_863, __D0andaRetoDireita
12	324	65	#line 324 "C:\Users\Lucas\Desktop\UnB\Droid\sekksi2016\executivo\Executivo_MAIN_mark001.nxc"
12	325	65		set __andaRetoDireita_7qG2_potd_7qG2_000, 90
12	324	68	#line 324 "C:\Users\Lucas\Desktop\UnB\Droid\sekksi2016\executivo\Executivo_MAIN_mark001.nxc"
12	324	68	#line 324 "C:\Users\Lucas\Desktop\UnB\Droid\sekksi2016\executivo\Executivo_MAIN_mark001.nxc"
12	325	68	#line 325 "C:\Users\Lucas\Desktop\UnB\Droid\sekksi2016\executivo\Executivo_MAIN_mark001.nxc"
12	326	68		set __andaRetoDireita_7qG2_pote_7qG2_000, 90
12	325	71	#line 325 "C:\Users\Lucas\Desktop\UnB\Droid\sekksi2016\executivo\Executivo_MAIN_mark001.nxc"
12	325	71	#line 325 "C:\Users\Lucas\Desktop\UnB\Droid\sekksi2016\executivo\Executivo_MAIN_mark001.nxc"
12	327	71	#line 327 "C:\Users\Lucas\Desktop\UnB\Droid\sekksi2016\executivo\Executivo_MAIN_mark001.nxc"
12	328	71		jmp __ASM_Label_868
12	327	73	#line 327 "C:\Users\Lucas\Desktop\UnB\Droid\sekksi2016\executivo\Executivo_MAIN_mark001.nxc"
12	328	73		mov __signed_stack_001andaRetoDireita, __andaRetoDireita_7qG2_distanciaAtual_7qG2_000
12	327	75	#line 327 "C:\Users\Lucas\Desktop\UnB\Droid\sekksi2016\executivo\Executivo_MAIN_mark001.nxc"
12	327	75	#line 327 "C:\Users\Lucas\Desktop\UnB\Droid\sekksi2016\executivo\Executivo_MAIN_mark001.nxc"
12	328	75		mov __D0andaRetoDireita, __andaRetoDireita_7qG2_distParede_7qG2_000
12	327	77	#line 327 "C:\Users\Lucas\Desktop\UnB\Droid\sekksi2016\executivo\Executivo_MAIN_mark001.nxc"
12	328	77		cmp 1, __D0andaRetoDireita, __signed_stack_001andaRetoDireita, __D0andaRetoDireita
12	328	81	#line 328 "C:\Users\Lucas\Desktop\UnB\Droid\sekksi2016\executivo\Executivo_MAIN_mark001.nxc"
12	329	81		brtst 4, __ASM_Label_871, __D0andaRetoDireita
12	328	84	#line 328 "C:\Users\Lucas\Desktop\UnB\Droid\sekksi2016\executivo\Executivo_MAIN_mark001.nxc"
12	329	84		set __andaRetoDireita_7qG2_pote_7qG2_000, 90
12	328	87	#line 328 "C:\Users\Lucas\Desktop\UnB\Droid\sekksi2016\executivo\Executivo_MAIN_mark001.nxc"
12	328	87	#line 328 "C:\Users\Lucas\Desktop\UnB\Droid\sekksi2016\executivo\Executivo_MAIN_mark001.nxc"
12	329	87	#line 329 "C:\Users\Lucas\Desktop\UnB\Droid\sekksi2016\executivo\Executivo_MAIN_mark001.nxc"
12	330	87		set __andaRetoDireita_7qG2_potd_7qG2_000, 70
12	329	90	#line 329 "C:\Users\Lucas\Desktop\UnB\Droid\sekksi2016\executivo\Executivo_MAIN_mark001.nxc"
12	329	90	#line 329 "C:\Users\Lucas\Desktop\UnB\Droid\sekksi2016\executivo\Executivo_MAIN_mark001.nxc"
12	331	90	#line 331 "C:\Users\Lucas\Desktop\UnB\Droid\sekksi2016\executivo\Executivo_MAIN_mark001.nxc"
12	332	90		jmp __ASM_Label_876
12	331	92	#line 331 "C:\Users\Lucas\Desktop\UnB\Droid\sekksi2016\executivo\Executivo_MAIN_mark001.nxc"
12	332	92		mov __signed_stack_001andaRetoDireita, __andaRetoDireita_7qG2_distanciaAtual_7qG2_000
12	331	94	#line 331 "C:\Users\Lucas\Desktop\UnB\Droid\sekksi2016\executivo\Executivo_MAIN_mark001.nxc"
12	331	94	#line 331 "C:\Users\Lucas\Desktop\UnB\Droid\sekksi2016\executivo\Executivo_MAIN_mark001.nxc"
12	332	94		mov __D0andaRetoDireita, __andaRetoDireita_7qG2_distParede_7qG2_000
12	331	96	#line 331 "C:\Users\Lucas\Desktop\UnB\Droid\sekksi2016\executivo\Executivo_MAIN_mark001.nxc"
12	332	96		cmp 0, __D0andaRetoDireita, __signed_stack_001andaRetoDireita, __D0andaRetoDireita
12	332	100	#line 332 "C:\Users\Lucas\Desktop\UnB\Droid\sekksi2016\executivo\Executivo_MAIN_mark001.nxc"
12	333	100		brtst 4, __ASM_Label_879, __D0andaRetoDireita
12	332	103	#line 332 "C:\Users\Lucas\Desktop\UnB\Droid\sekksi2016\executivo\Executivo_MAIN_mark001.nxc"
12	333	103		set __andaRetoDireita_7qG2_pote_7qG2_000, 70
12	332	106	#line 332 "C:\Users\Lucas\Desktop\UnB\Droid\sekksi2016\executivo\Executivo_MAIN_mark001.nxc"
12	332	106	#line 332 "C:\Users\Lucas\Desktop\UnB\Droid\sekksi2016\executivo\Executivo_MAIN_mark001.nxc"
12	333	106	#line 333 "C:\Users\Lucas\Desktop\UnB\Droid\sekksi2016\executivo\Executivo_MAIN_mark001.nxc"
12	334	106		set __andaRetoDireita_7qG2_potd_7qG2_000, 90
12	333	109	#line 333 "C:\Users\Lucas\Desktop\UnB\Droid\sekksi2016\executivo\Executivo_MAIN_mark001.nxc"
12	333	109	#line 333 "C:\Users\Lucas\Desktop\UnB\Droid\sekksi2016\executivo\Executivo_MAIN_mark001.nxc"
12	336	109	#line 336 "C:\Users\Lucas\Desktop\UnB\Droid\sekksi2016\executivo\Executivo_MAIN_mark001.nxc"
12	336	109	#line 336 "C:\Users\Lucas\Desktop\UnB\Droid\sekksi2016\executivo\Executivo_MAIN_mark001.nxc"
12	336	109	#line 336 "C:\Users\Lucas\Desktop\UnB\Droid\sekksi2016\executivo\Executivo_MAIN_mark001.nxc"
12	336	109	#line 336 "C:\Users\Lucas\Desktop\UnB\Droid\sekksi2016\executivo\Executivo_MAIN_mark001.nxc"
12	337	109		getout __D0andaRetoDireita, __constVal1, 4
12	336	113	#line 336 "C:\Users\Lucas\Desktop\UnB\Droid\sekksi2016\executivo\Executivo_MAIN_mark001.nxc"
12	337	113		add my_tc_d, my_tc_d, __D0andaRetoDireita
12	336	117	#line 336 "C:\Users\Lucas\Desktop\UnB\Droid\sekksi2016\executivo\Executivo_MAIN_mark001.nxc"
12	337	117	#line 337 "C:\Users\Lucas\Desktop\UnB\Droid\sekksi2016\executivo\Executivo_MAIN_mark001.nxc"
12	338	117		mov __D0andaRetoDireita, __andaRetoDireita_7qG2_potd_7qG2_000
12	337	119	#line 337 "C:\Users\Lucas\Desktop\UnB\Droid\sekksi2016\executivo\Executivo_MAIN_mark001.nxc"
12	338	119	#pragma macro 7
12	338	119		setout __constVal1, 2, __D0andaRetoDireita, 1, __constVal3, 8, __constVal0, 6, __constVal32, 7, __constVal0, 5, __constVal0, 10, __constVal96, 11, __constVal32, 12, __constVal32, 0, __constVal63
12	10065	142	#line 10065 "C:\Users\Lucas\Desktop\UnB\Droid\sekksi2016\executivo\Executivo_MAIN_mark001.nxc"
12	337	142	#line 337 "C:\Users\Lucas\Desktop\UnB\Droid\sekksi2016\executivo\Executivo_MAIN_mark001.nxc"
12	338	142	#line 338 "C:\Users\Lucas\Desktop\UnB\Droid\sekksi2016\executivo\Executivo_MAIN_mark001.nxc"
12	339	142		getout __D0andaRetoDireita, __constVal0, 4
12	338	146	#line 338 "C:\Users\Lucas\Desktop\UnB\Droid\sekksi2016\executivo\Executivo_MAIN_mark001.nxc"
12	339	146		add my_tc_e, my_tc_e, __D0andaRetoDireita
12	338	150	#line 338 "C:\Users\Lucas\Desktop\UnB\Droid\sekksi2016\executivo\Executivo_MAIN_mark001.nxc"
12	339	150	#line 339 "C:\Users\Lucas\Desktop\UnB\Droid\sekksi2016\executivo\Executivo_MAIN_mark001.nxc"
12	340	150		mov __D0andaRetoDireita, __andaRetoDireita_7qG2_pote_7qG2_000
12	339	152	#line 339 "C:\Users\Lucas\Desktop\UnB\Droid\sekksi2016\executivo\Executivo_MAIN_mark001.nxc"
12	340	152	#pragma macro 7
12	340	152		setout __constVal0, 2, __D0andaRetoDireita, 1, __constVal3, 8, __constVal0, 6, __constVal32, 7, __constVal0, 5, __constVal0, 10, __constVal96, 11, __constVal32, 12, __constVal32, 0, __constVal63
12	10079	175	#line 10079 "C:\Users\Lucas\Desktop\UnB\Droid\sekksi2016\executivo\Executivo_MAIN_mark001.nxc"
12	339	175	#line 339 "C:\Users\Lucas\Desktop\UnB\Droid\sekksi2016\executivo\Executivo_MAIN_mark001.nxc"
12	343	175	#line 343 "C:\Users\Lucas\Desktop\UnB\Droid\sekksi2016\executivo\Executivo_MAIN_mark001.nxc"
12	344	175		jmp __ASM_Label_849
12	343	177	#line 343 "C:\Users\Lucas\Desktop\UnB\Droid\sekksi2016\executivo\Executivo_MAIN_mark001.nxc"
12	343	177	#line 343 "C:\Users\Lucas\Desktop\UnB\Droid\sekksi2016\executivo\Executivo_MAIN_mark001.nxc"
12	344	177	#pragma macro 7
12	344	177		setout __constVal1, 2, __constVal0, 1, __constVal3, 8, __constVal0, 6, __constVal32, 7, __constVal0, 5, __constVal0, 10, __constVal96, 11, __constVal32, 12, __constVal32, 0, __constVal63
12	10086	200	#line 10086 "C:\Users\Lucas\Desktop\UnB\Droid\sekksi2016\executivo\Executivo_MAIN_mark001.nxc"
12	343	200	#line 343 "C:\Users\Lucas\Desktop\UnB\Droid\sekksi2016\executivo\Executivo_MAIN_mark001.nxc"
12	344	200	#line 344 "C:\Users\Lucas\Desktop\UnB\Droid\sekksi2016\executivo\Executivo_MAIN_mark001.nxc"
12	345	200	#pragma macro 7
12	345	200		setout __constVal0, 2, __constVal0, 1, __constVal3, 8, __constVal0, 6, __constVal32, 7, __constVal0, 5, __constVal0, 10, __constVal96, 11, __constVal32, 12, __constVal32, 0, __constVal63
12	10089	223	#line 10089 "C:\Users\Lucas\Desktop\UnB\Droid\sekksi2016\executivo\Executivo_MAIN_mark001.nxc"
12	344	223	#line 344 "C:\Users\Lucas\Desktop\UnB\Droid\sekksi2016\executivo\Executivo_MAIN_mark001.nxc"
12	351	223	#line 351 "C:\Users\Lucas\Desktop\UnB\Droid\sekksi2016\executivo\Executivo_MAIN_mark001.nxc"
12	352	223		subret __andaRetoDireita_return
13	400	0	#line 400 "C:\Users\Lucas\Desktop\UnB\Droid\sekksi2016\executivo\Executivo_MAIN_mark001.nxc"
13	401	0		set __teste2COMUNICA_7qG2_corDir_7qG2_000, 0
13	400	3	#line 400 "C:\Users\Lucas\Desktop\UnB\Droid\sekksi2016\executivo\Executivo_MAIN_mark001.nxc"
13	400	3	#line 400 "C:\Users\Lucas\Desktop\UnB\Droid\sekksi2016\executivo\Executivo_MAIN_mark001.nxc"
13	401	3		set __teste2COMUNICA_7qG2_corEsq_7qG2_000, 0
13	400	6	#line 400 "C:\Users\Lucas\Desktop\UnB\Droid\sekksi2016\executivo\Executivo_MAIN_mark001.nxc"
13	402	6	#line 402 "C:\Users\Lucas\Desktop\UnB\Droid\sekksi2016\executivo\Executivo_MAIN_mark001.nxc"
13	403	6		subcall inicializaSensores, __inicializaSensores_return
13	402	8	#line 402 "C:\Users\Lucas\Desktop\UnB\Droid\sekksi2016\executivo\Executivo_MAIN_mark001.nxc"
13	403	8	#line 403 "C:\Users\Lucas\Desktop\UnB\Droid\sekksi2016\executivo\Executivo_MAIN_mark001.nxc"
13	404	8		subcall iniciaBlue, __iniciaBlue_return
13	403	10	#line 403 "C:\Users\Lucas\Desktop\UnB\Droid\sekksi2016\executivo\Executivo_MAIN_mark001.nxc"
13	405	10	#line 405 "C:\Users\Lucas\Desktop\UnB\Droid\sekksi2016\executivo\Executivo_MAIN_mark001.nxc"
13	406	10		mov __IniciaCorDoChao_7qG2_corEsq_7qG2_000, __teste2COMUNICA_7qG2_corEsq_7qG2_000
13	405	12	#line 405 "C:\Users\Lucas\Desktop\UnB\Droid\sekksi2016\executivo\Executivo_MAIN_mark001.nxc"
13	405	12	#line 405 "C:\Users\Lucas\Desktop\UnB\Droid\sekksi2016\executivo\Executivo_MAIN_mark001.nxc"
13	406	12		mov __IniciaCorDoChao_7qG2_corDir_7qG2_000, __teste2COMUNICA_7qG2_corDir_7qG2_000
13	405	14	#line 405 "C:\Users\Lucas\Desktop\UnB\Droid\sekksi2016\executivo\Executivo_MAIN_mark001.nxc"
13	405	14	#line 405 "C:\Users\Lucas\Desktop\UnB\Droid\sekksi2016\executivo\Executivo_MAIN_mark001.nxc"
13	406	14		subcall IniciaCorDoChao, __IniciaCorDoChao_return
13	405	16	#line 405 "C:\Users\Lucas\Desktop\UnB\Droid\sekksi2016\executivo\Executivo_MAIN_mark001.nxc"
13	406	16	#line 406 "C:\Users\Lucas\Desktop\UnB\Droid\sekksi2016\executivo\Executivo_MAIN_mark001.nxc"
13	407	16		set __andaRetoDireita_7qG2_distParede_7qG2_000, 8
13	406	19	#line 406 "C:\Users\Lucas\Desktop\UnB\Droid\sekksi2016\executivo\Executivo_MAIN_mark001.nxc"
13	406	19	#line 406 "C:\Users\Lucas\Desktop\UnB\Droid\sekksi2016\executivo\Executivo_MAIN_mark001.nxc"
13	407	19		set __andaRetoDireita_7qG2_distAndar_7qG2_000, 10
13	406	22	#line 406 "C:\Users\Lucas\Desktop\UnB\Droid\sekksi2016\executivo\Executivo_MAIN_mark001.nxc"
13	406	22	#line 406 "C:\Users\Lucas\Desktop\UnB\Droid\sekksi2016\executivo\Executivo_MAIN_mark001.nxc"
13	407	22		subcall andaRetoDireita, __andaRetoDireita_return
13	406	24	#line 406 "C:\Users\Lucas\Desktop\UnB\Droid\sekksi2016\executivo\Executivo_MAIN_mark001.nxc"
13	407	24	#line 407 "C:\Users\Lucas\Desktop\UnB\Droid\sekksi2016\executivo\Executivo_MAIN_mark001.nxc"
13	408	24		set __vira_7qG2_angulo_7qG2_000, 90
13	407	27	#line 407 "C:\Users\Lucas\Desktop\UnB\Droid\sekksi2016\executivo\Executivo_MAIN_mark001.nxc"
13	407	27	#line 407 "C:\Users\Lucas\Desktop\UnB\Droid\sekksi2016\executivo\Executivo_MAIN_mark001.nxc"
13	408	27		set __vira_7qG2_direcao_7qG2_000, 1
13	407	30	#line 407 "C:\Users\Lucas\Desktop\UnB\Droid\sekksi2016\executivo\Executivo_MAIN_mark001.nxc"
13	407	30	#line 407 "C:\Users\Lucas\Desktop\UnB\Droid\sekksi2016\executivo\Executivo_MAIN_mark001.nxc"
13	408	30		subcall vira, __vira_return
13	407	32	#line 407 "C:\Users\Lucas\Desktop\UnB\Droid\sekksi2016\executivo\Executivo_MAIN_mark001.nxc"
13	418	32	#line 418 "C:\Users\Lucas\Desktop\UnB\Droid\sekksi2016\executivo\Executivo_MAIN_mark001.nxc"
13	419	32		subret __teste2COMUNICA_return
14	440	0	#line 440 "C:\Users\Lucas\Desktop\UnB\Droid\sekksi2016\executivo\Executivo_MAIN_mark001.nxc"
14	441	0		subret ____initialize_global_data_return
#CLUMPS
Clump	Name	Offset	File
0	main	0	C:\Users\Lucas\Desktop\UnB\Droid\sekksi2016\executivo\Executivo_MAIN_mark001.nxc
1	__ResetSensorSubroutine	7	NXTDefs.h
2	__ReadLSBytes0	20	NXTDefs.h
3	__ReadLSBytes2	109	NXTDefs.h
4	__ReadLSBytes3	198	NXTDefs.h
5	distanciaTachoCount	287	C:\Users\Lucas\Desktop\UnB\Droid\sekksi2016\executivo\Executivo_MAIN_mark001.nxc
6	inicializaSensores	298	C:\Users\Lucas\Desktop\UnB\Droid\sekksi2016\executivo\Executivo_MAIN_mark001.nxc
7	iniciaBlue	476	C:\Users\Lucas\Desktop\UnB\Droid\sekksi2016\executivo\Executivo_MAIN_mark001.nxc
8	distanciaGiro	524	C:\Users\Lucas\Desktop\UnB\Droid\sekksi2016\executivo\Executivo_MAIN_mark001.nxc
9	vira	544	C:\Users\Lucas\Desktop\UnB\Droid\sekksi2016\executivo\Executivo_MAIN_mark001.nxc
10	IniciaCorDoChao	841	C:\Users\Lucas\Desktop\UnB\Droid\sekksi2016\executivo\Executivo_MAIN_mark001.nxc
11	RetornaBoneco	933	C:\Users\Lucas\Desktop\UnB\Droid\sekksi2016\executivo\Executivo_MAIN_mark001.nxc
12	andaRetoDireita	1141	C:\Users\Lucas\Desktop\UnB\Droid\sekksi2016\executivo\Executivo_MAIN_mark001.nxc
13	teste2COMUNICA	1366	C:\Users\Lucas\Desktop\UnB\Droid\sekksi2016\executivo\Executivo_MAIN_mark001.nxc
14	__initialize_global_data	1400	C:\Users\Lucas\Desktop\UnB\Droid\sekksi2016\executivo\Executivo_MAIN_mark001.nxc
