#SYMBOLS
Index	Identifier	Type	Flag	Data	Size	RefCount
0	__signed_stack_001desligaBlue	6	1	0	4	4
1	__signed_stack_001ChecaParada	6	1	4	4	6
2	__signed_stack_001distanciaGiro	6	1	8	4	4
3	__signed_stack_002desligaBlue	6	1	12	4	2
4	__signed_stack_002andaRetoDireita	6	1	16	4	2
5	__DU0SetSensorLowspeed_inline_inicializaSensores	5	1	20	4	20
6	__D0SetSensorLowspeed_inline_inicializaSensores	6	1	24	4	8
7	__RLSBmutex2	9	0	28	4	2
8	__signed_stack_001andaRetoDireita	6	1	32	4	10
9	__signed_stack_001distanciaTachoCount	6	1	36	4	2
10	__Wait_7qG2_ms_7qG2_000_inline_Bip	5	1	40	4	2
11	__signed_stack_002PlaySound	6	1	44	4	14
12	__signed_stack_003PlaySound	6	1	48	4	14
13	__RLSBmutex0	9	0	52	4	4
14	__signed_stack_001PlaySound	6	1	56	4	44
15	__signed_stack_001iniciaBlue	6	1	60	4	2
16	__RLSBmutex1	9	0	64	4	2
17	__signed_stack_001LeGARRA	6	1	68	4	18
18	__signed_stack_002iniciaBlue	6	1	72	4	2
19	__D0vira	6	1	76	4	34
20	__D0andaRetoDireita	6	1	80	4	31
21	__CBTWMutex	9	0	84	4	14
22	__D0desligaBlue	6	1	88	4	5
23	__D0ChecaParada	6	1	92	4	15
24	__Wait_7qG2_ms_7qG2_000_inline_iniciaBlue	5	1	96	4	2
25	__RemoteMutex	9	0	100	4	14
26	__CHSWMutex	9	0	104	4	14
27	__SPTArgsMutex	9	0	108	4	14
28	__SRSTmpLongVal	6	1	112	4	14
29	__RRNTmpVal	6	1	116	4	28
30	__RLSBmutex3	9	0	120	4	2
31	__D0PlaySound	6	1	124	4	63
32	__D0teste2COMUNICA	6	1	128	4	4
33	__D0PrintaSensores	6	1	132	4	16
34	__D0LeGARRA	6	1	136	4	54
35	__MRMutex	9	0	140	4	14
36	__Wait_7qG2_ms_7qG2_000_inline_desligaBlue	5	1	144	4	2
37	__D0distanciaTachoCount	6	1	148	4	2
38	__D0distanciaGiro	6	1	152	4	7
39	__CLSCSMutex2	9	0	156	4	2
40	__CLSRMutex1	9	0	160	4	2
41	__CLSWMutex2	9	0	164	4	2
42	__CLSRMutex2	9	0	168	4	2
43	__Wait_7qG2_ms_7qG2_000_inline_LeGARRA	5	1	172	4	12
44	__CLSWMutex1	9	0	176	4	2
45	__CLSRMutex0	9	0	180	4	2
46	__CLSWMutex0	9	0	184	4	2
47	__Wait_7qG2_ms_7qG2_000_inline_PrintaSensores	5	1	188	4	2
48	__CLSCSMutex0	9	0	192	4	2
49	__CLSCSMutex1	9	0	196	4	2
50	__signed_stack_002PrintaSensores	6	1	200	4	16
51	__signed_stack_001vira	6	1	204	4	18
52	__CLSRMutex3	9	0	208	4	2
53	__signed_stack_001PrintaSensores	6	1	212	4	16
54	__Wait_7qG2_ms_7qG2_000_inline_ChecaParada	5	1	216	4	2
55	__TextOutMutex	9	0	220	4	20
56	__CLSCSMutex3	9	0	224	4	2
57	__CLSWMutex3	9	0	228	4	2
58	__andaRetoDireita_7qG2_distAndar_7qG2_000	4	1	232	2	3
59	__vira_7qG2_angulo_7qG2_000	4	1	234	2	6
60	__constVal200	4	0	236	2	2
61	__vira_7qG2_direcao_7qG2_000	4	1	238	2	6
62	__distanciaTachoCount_7qG2_grau_7qG2_000	4	1	240	2	2
63	__distanciaGiro_7qG2_grau_7qG2_000	4	1	242	2	3
64	my_tc_e	4	1	244	2	4
65	__andaRetoDireita_7qG2_distParede_7qG2_000	4	1	246	2	5
66	my_tc_d	4	1	248	2	4
67	__LeGARRA_7qG2_continua_7qG2_000	4	1	250	2	3
68	__andaRetoDireita_7qG2_distanciaAtual_7qG2_000	4	1	252	2	3
69	__LeGARRA_7qG2_verifica_7qG2_000	4	1	254	2	14
70	__ChecaParada_7qG2_leitura_7qG2_000	4	1	256	2	5
71	__PlaySound_7qG2_aCode_7qG2_000	4	1	258	2	8
72	__andaRetoDireita_7qG2_potd_7qG2_000	4	1	260	2	4
73	__andaRetoDireita_7qG2_pote_7qG2_000	4	1	262	2	4
74	__PlaySound_7qG2_i_7qG2_001	4	1	264	2	15
75	__SetSensorType_7qG2_port_7qG2_000_inline_SetSensorLowspeed_inline_inicializaSensores	1	1	266	1	8
76	__inicializaSensores_return	1	1	267	1	4
77	__constVal7	2	0	268	1	1
78	__SetSensorLowspeed_7qG2_port_7qG2_000_inline_inicializaSensores	1	1	269	1	20
79	__constVal15	2	0	270	1	3
80	__PlaySound_return	1	1	271	1	4
81	__SetSensorLowspeed_7qG2_bIsPowered_7qG2_000_inline_inicializaSensores	1	1	272	1	8
82	__SetSensorType_7qG2_type_7qG2_000_inline_SetSensorLowspeed_inline_inicializaSensores	1	1	273	1	8
83	__SetSensorMode_7qG2_port_7qG2_000_inline_SetSensorLowspeed_inline_inicializaSensores	1	1	274	1	8
84	__distanciaTachoCount_return	1	1	275	1	4
85	__constVal8	2	0	276	1	1
86	__ChecaParada_return	1	1	277	1	3
87	____ReadLSBytes0_return	1	1	278	1	4
88	__RLSBResult0	2	1	279	1	7
89	__LeGARRA_return	1	1	280	1	3
90	__LeUSFRENTE_return	1	1	281	1	3
91	__LSWriteOptionsVar	1	1	282	1	8
92	____ReadLSBytes1_return	1	1	283	1	3
93	__Para_return	1	1	284	1	4
94	__RLSBResult1	2	1	285	1	7
95	__RLSBytesCount0	1	1	286	1	8
96	__RLSBIterations0	1	1	287	1	4
97	__Bip_return	1	1	288	1	3
98	__andaRetoDireita_return	1	1	289	1	4
99	__constVal3	2	0	290	1	23
100	__constVal4	2	0	291	1	14
101	__constVal5	2	0	292	1	8
102	__constVal32	2	0	293	1	42
103	__constVal1	2	0	294	1	61
104	__constVal0	2	1	295	1	69
105	____initialize_global_data_return	1	1	296	1	3
106	__PrintaSensores_return	1	1	297	1	3
107	__teste2COMUNICA_return	1	1	298	1	3
108	__ResetSensorPort	1	1	299	1	6
109	__ResetSensorTmp	1	1	300	1	2
110	____ResetSensorSubroutine_return	1	1	301	1	6
111	__distanciaGiro_return	1	1	302	1	5
112	__constVal10	2	0	303	1	1
113	__RLSBIterations3	1	1	304	1	4
114	__RLSBResult3	2	1	305	1	7
115	__RLSBytesCount3	1	1	306	1	7
116	__RRNErr	1	1	307	1	7
117	__SetSensorMode_7qG2_mode_7qG2_000_inline_SetSensorLowspeed_inline_inicializaSensores	1	1	308	1	8
118	__WFRRTmpByte	1	1	309	1	14
119	__ResetSensor_7qG2_port_7qG2_000_inline_SetSensorLowspeed_inline_inicializaSensores	1	1	310	1	4
120	__desligaBlue_return	1	1	311	1	3
121	__iniciaBlue_return	1	1	312	1	3
122	__vira_return	1	1	313	1	6
123	__constVal63	2	0	314	1	14
124	__RLSBytesCount1	1	1	315	1	7
125	__RLSBIterations1	1	1	316	1	4
126	__constValNeg90	2	0	317	1	2
127	____ReadLSBytes2_return	1	1	318	1	3
128	__RLSBResult2	2	1	319	1	7
129	__constVal2	2	0	320	1	16
130	____ReadLSBytes3_return	1	1	321	1	3
131	__constVal96	2	0	322	1	14
132	__RLSBytesCount2	1	1	323	1	7
133	__RLSBIterations2	1	1	324	1	4
134	__desligaBlue_7qG2_DADOS_BT_7qG2_000	8	0	4	12	5
135	__desligaBlue_7qG2_DADOS_BT_7qG2_000.Result	3	1	328	2	5
136	__desligaBlue_7qG2_DADOS_BT_7qG2_000.Action	1	1	330	1	5
137	__desligaBlue_7qG2_DADOS_BT_7qG2_000.Name	7	0	332	4	5
138	__desligaBlue_7qG2_DADOS_BT_7qG2_000.Name.Name_type	1	0	0	1	0
139	__desligaBlue_7qG2_DADOS_BT_7qG2_000.ConnectionSlot	1	1	334	1	5
140	__iniciaBlue_7qG2_DADOS_BT_7qG2_000	8	0	4	12	5
141	__iniciaBlue_7qG2_DADOS_BT_7qG2_000.Result	3	1	336	2	5
142	__iniciaBlue_7qG2_DADOS_BT_7qG2_000.Action	1	1	338	1	5
143	__iniciaBlue_7qG2_DADOS_BT_7qG2_000.Name	7	0	340	4	5
144	__iniciaBlue_7qG2_DADOS_BT_7qG2_000.Name.Name_type	1	0	0	1	0
145	__iniciaBlue_7qG2_DADOS_BT_7qG2_000.ConnectionSlot	1	1	342	1	5
146	__CLSCSArgs2	8	0	3	4	4
147	__CLSCSArgs2.Result	2	1	344	1	4
148	__CLSCSArgs2.Port	1	1	345	1	4
149	__CLSCSArgs2.BytesReady	1	1	346	1	4
150	__CLSWArgs2	8	0	4	12	5
151	__CLSWArgs2.Result	2	1	348	1	5
152	__CLSWArgs2.Port	1	1	349	1	5
153	__CLSWArgs2.Buffer	7	0	350	4	5
154	__CLSWArgs2.Buffer.Buffer_type	1	0	0	1	0
155	__CLSWArgs2.ReturnLen	1	1	352	1	5
156	__CLSRArgs1	8	0	4	12	5
157	__CLSRArgs1.Result	2	1	356	1	5
158	__CLSRArgs1.Port	1	1	357	1	5
159	__CLSRArgs1.Buffer	7	0	358	4	5
160	__CLSRArgs1.Buffer.Buffer_type	1	0	0	1	0
161	__CLSRArgs1.BufferLen	1	1	360	1	5
162	__CBTCSArgs	8	0	2	4	3
163	__CBTCSArgs.Result	2	1	364	1	3
164	__CBTCSArgs.Connection	1	1	365	1	3
165	__MRArgs	8	0	4	8	35
166	__MRArgs.Result	2	1	368	1	35
167	__MRArgs.QueueID	1	1	369	1	35
168	__MRArgs.Remove	1	1	370	1	35
169	__MRArgs.Message	7	0	372	4	35
170	__MRArgs.Message.Message_type	1	0	0	1	0
171	__CLSRArgs2	8	0	4	12	5
172	__CLSRArgs2.Result	2	1	376	1	5
173	__CLSRArgs2.Port	1	1	377	1	5
174	__CLSRArgs2.Buffer	7	0	378	4	5
175	__CLSRArgs2.Buffer.Buffer_type	1	0	0	1	0
176	__CLSRArgs2.BufferLen	1	1	380	1	5
177	__TextOutArgs	8	0	4	16	59
178	__TextOutArgs.Result	2	1	384	1	59
179	__TextOutArgs.Location	8	0	2	4	59
180	__TextOutArgs.Location.X	4	1	388	2	59
181	__TextOutArgs.Location.Y	4	1	390	2	59
182	__TextOutArgs.Text	7	0	392	4	59
183	__TextOutArgs.Text.Text_type	1	0	0	1	0
184	__TextOutArgs.Options	5	1	396	4	59
185	__PointOutArgs	8	0	3	12	4
186	__PointOutArgs.Result	2	1	400	1	4
187	__PointOutArgs.Location	8	0	2	4	4
188	__PointOutArgs.Location.X	4	1	404	2	4
189	__PointOutArgs.Location.Y	4	1	406	2	4
190	__PointOutArgs.Options	5	1	408	4	4
191	__CLSRArgs3	8	0	4	12	5
192	__CLSRArgs3.Result	2	1	412	1	5
193	__CLSRArgs3.Port	1	1	413	1	5
194	__CLSRArgs3.Buffer	7	0	414	4	5
195	__CLSRArgs3.Buffer.Buffer_type	1	0	0	1	0
196	__CLSRArgs3.BufferLen	1	1	416	1	5
197	__CLSCSArgs3	8	0	3	4	4
198	__CLSCSArgs3.Result	2	1	420	1	4
199	__CLSCSArgs3.Port	1	1	421	1	4
200	__CLSCSArgs3.BytesReady	1	1	422	1	4
201	__CLSWArgs3	8	0	4	12	5
202	__CLSWArgs3.Result	2	1	424	1	5
203	__CLSWArgs3.Port	1	1	425	1	5
204	__CLSWArgs3.Buffer	7	0	426	4	5
205	__CLSWArgs3.Buffer.Buffer_type	1	0	0	1	0
206	__CLSWArgs3.ReturnLen	1	1	428	1	5
207	__CBTWArgs	8	0	3	8	28
208	__CBTWArgs.Result	2	1	432	1	28
209	__CBTWArgs.Connection	1	1	433	1	28
210	__CBTWArgs.Buffer	7	0	434	4	28
211	__CBTWArgs.Buffer.Buffer_type	1	0	0	1	0
212	__CLSWArgs0	8	0	4	12	5
213	__CLSWArgs0.Result	2	1	436	1	5
214	__CLSWArgs0.Port	1	1	437	1	5
215	__CLSWArgs0.Buffer	7	0	438	4	5
216	__CLSWArgs0.Buffer.Buffer_type	1	0	0	1	0
217	__CLSWArgs0.ReturnLen	1	1	440	1	5
218	__CHSWArgs	8	0	3	12	21
219	__CHSWArgs.Status	2	1	444	1	21
220	__CHSWArgs.Buffer	7	0	446	4	21
221	__CHSWArgs.Buffer.Buffer_type	1	0	0	1	0
222	__CHSWArgs.BufferLen	1	1	448	1	21
223	__SPTArgs	8	0	5	8	42
224	__SPTArgs.Result	2	1	452	1	42
225	__SPTArgs.Frequency	3	1	454	2	42
226	__SPTArgs.Duration	3	1	456	2	42
227	__SPTArgs.Loop	1	1	458	1	42
228	__SPTArgs.Volume	1	1	459	1	42
229	__CLSCSArgs0	8	0	3	4	4
230	__CLSCSArgs0.Result	2	1	460	1	4
231	__CLSCSArgs0.Port	1	1	461	1	4
232	__CLSCSArgs0.BytesReady	1	1	462	1	4
233	__CLSCSArgs1	8	0	3	4	4
234	__CLSCSArgs1.Result	2	1	464	1	4
235	__CLSCSArgs1.Port	1	1	465	1	4
236	__CLSCSArgs1.BytesReady	1	1	466	1	4
237	__CLSWArgs1	8	0	4	12	5
238	__CLSWArgs1.Result	2	1	468	1	5
239	__CLSWArgs1.Port	1	1	469	1	5
240	__CLSWArgs1.Buffer	7	0	470	4	5
241	__CLSWArgs1.Buffer.Buffer_type	1	0	0	1	0
242	__CLSWArgs1.ReturnLen	1	1	472	1	5
243	__CLSRArgs0	8	0	4	12	5
244	__CLSRArgs0.Result	2	1	476	1	5
245	__CLSRArgs0.Port	1	1	477	1	5
246	__CLSRArgs0.Buffer	7	0	478	4	5
247	__CLSRArgs0.Buffer.Buffer_type	1	0	0	1	0
248	__CLSRArgs0.BufferLen	1	1	480	1	5
249	__LSWriteOptions	7	0	482	4	4
250	__LSWriteOptions.__LSWriteOptions_type	1	0	0	1	0
251	__constStr0018	7	0	484	4	1
252	__constStr0018.__constStr0018_type	1	1	0	1	0
253	__constStr0015	7	0	486	4	1
254	__constStr0015.__constStr0015_type	1	1	0	1	0
255	__constStr0016	7	0	488	4	1
256	__constStr0016.__constStr0016_type	1	1	0	1	0
257	__constStr0017	7	0	490	4	1
258	__constStr0017.__constStr0017_type	1	1	0	1	0
259	__constStr0009	7	0	492	4	2
260	__constStr0009.__constStr0009_type	1	1	0	1	0
261	__SRSSendBuf	7	0	494	4	21
262	__SRSSendBuf.__SRSSendBuf_type	1	0	0	1	0
263	__constStr0010	7	0	496	4	1
264	__constStr0010.__constStr0010_type	1	1	0	1	0
265	__SRSTmpBuf	7	0	498	4	42
266	__SRSTmpBuf.__SRSTmpBuf_type	1	0	0	1	0
267	__SRSFlattenBuf	7	0	500	4	14
268	__SRSFlattenBuf.__SRSFlattenBuf_type	1	0	0	1	0
269	__strbufiniciaBlue	7	0	502	4	4
270	__strbufiniciaBlue.__strbufiniciaBlue_type	1	0	0	1	0
271	__strbufPrintaSensores	7	0	504	4	8
272	__strbufPrintaSensores.__strbufPrintaSensores_type	1	0	0	1	0
273	__DCMessageWritePacket	7	0	506	4	7
274	__DCMessageWritePacket.__DCMessageWritePacket_type	1	0	0	1	0
275	__strbufdesligaBlue	7	0	508	4	4
276	__strbufdesligaBlue.__strbufdesligaBlue_type	1	0	0	1	0
277	__constStr0011	7	0	510	4	1
278	__constStr0011.__constStr0011_type	1	1	0	1	0
279	__RLSReadBuf0	7	0	512	4	10
280	__RLSReadBuf0.__RLSReadBuf0_type	1	0	0	1	0
281	__RLSLastGoodRead1	7	0	514	4	2
282	__RLSLastGoodRead1.__RLSLastGoodRead1_type	1	0	0	1	0
283	__RLSBbufLSWrite1	7	0	516	4	5
284	__RLSBbufLSWrite1.__RLSBbufLSWrite1_type	1	0	0	1	0
285	__RLSLastGoodRead0	7	0	518	4	2
286	__RLSLastGoodRead0.__RLSLastGoodRead0_type	1	0	0	1	0
287	__RLSReadBuf1	7	0	520	4	8
288	__RLSReadBuf1.__RLSReadBuf1_type	1	0	0	1	0
289	__RLSLastGoodRead3	7	0	522	4	2
290	__RLSLastGoodRead3.__RLSLastGoodRead3_type	1	0	0	1	0
291	__RLSReadBuf3	7	0	524	4	8
292	__RLSReadBuf3.__RLSReadBuf3_type	1	0	0	1	0
293	__RLSLastGoodRead2	7	0	526	4	2
294	__RLSLastGoodRead2.__RLSLastGoodRead2_type	1	0	0	1	0
295	__RLSReadBuf2	7	0	528	4	8
296	__RLSReadBuf2.__RLSReadBuf2_type	1	0	0	1	0
#SOURCES
Clump	Line	PC	Source
0	437	0	#line 437 "C:\Users\Lucas\Desktop\UnB\Droid\sekksi2016\executivo\Executivo_MAIN_mark001.nxc"
0	438	0		subcall __initialize_global_data, ____initialize_global_data_return
0	437	2	#line 437 "C:\Users\Lucas\Desktop\UnB\Droid\sekksi2016\executivo\Executivo_MAIN_mark001.nxc"
0	437	2	#line 437 "C:\Users\Lucas\Desktop\UnB\Droid\sekksi2016\executivo\Executivo_MAIN_mark001.nxc"
0	438	2		subcall teste2COMUNICA, __teste2COMUNICA_return
0	437	4	#line 437 "C:\Users\Lucas\Desktop\UnB\Droid\sekksi2016\executivo\Executivo_MAIN_mark001.nxc"
0	438	4		exit -1, -1
1	5724	0		setin __constVal1, __ResetSensorPort, 5
1	5726	4		getin __ResetSensorTmp, __ResetSensorPort, 5
1	5727	8		brtst 5, __SensorStillInvalid, __ResetSensorTmp
1	5728	11		subret ____ResetSensorSubroutine_return
2	6520	0	#pragma macro 27
2	6520	0		acquire __CLSWMutex0
2	6520	1		index __LSWriteOptionsVar, __LSWriteOptions, __constVal0
2	6520	5		or __CLSWArgs0.Port, __constVal0, __LSWriteOptionsVar
2	6520	9		mov __CLSWArgs0.ReturnLen, __RLSBytesCount0
2	6520	11		mov __CLSWArgs0.Buffer, __RLSReadBuf0
2	6520	13		syscall 21, __CLSWArgs0
2	6520	16		mov __RLSBResult0, __CLSWArgs0.Result
2	6520	18		release __CLSWMutex0
2	6521	19	#line 6521 "NXTDefs.h"
2	6522	19		brtst 5, __RLSBError0, __RLSBResult0
2	6523	22		set __RLSBIterations0, 60
2	6525	25	#pragma macro 23
2	6525	25		acquire __CLSCSMutex0
2	6525	26		set __CLSCSArgs0.Port, 0
2	6525	29		syscall 23, __CLSCSArgs0
2	6525	32		mov __RLSBytesCount0, __CLSCSArgs0.BytesReady
2	6525	35		mov __RLSBResult0, __CLSCSArgs0.Result
2	6525	38		release __CLSCSMutex0
2	6525	39	#line 6525 "NXTDefs.h"
2	6526	39		sub __RLSBIterations0, __RLSBIterations0, __constVal1
2	6527	43		brtst 2, __RLSBError0, __RLSBIterations0
2	6528	46		brtst 0, __RLSBError0, __RLSBResult0
2	6529	49		brtst 4, __RLSBReadyToRead0, __RLSBResult0
2	6531	52		wait 1
2	6532	54		jmp __RLSBDoCheckStatus0
2	6534	56		brtst 4, __RLSBReturn0, __RLSBytesCount0
2	6535	59		arrinit __RLSReadBuf0, __constVal0, __RLSBytesCount0
2	6537	63	#pragma macro 25
2	6537	63		acquire __CLSRMutex0
2	6537	64		set __CLSRArgs0.Port, 0
2	6537	67		mov __CLSRArgs0.BufferLen, __RLSBytesCount0
2	6537	70		syscall 22, __CLSRArgs0
2	6537	73		mov __RLSReadBuf0, __CLSRArgs0.Buffer
2	6537	75		mov __RLSBResult0, __CLSRArgs0.Result
2	6537	78		release __CLSRMutex0
2	6537	79	#line 6537 "NXTDefs.h"
2	6538	79		brtst 5, __RLSBError0, __RLSBResult0
2	6539	82		mov __RLSLastGoodRead0, __RLSReadBuf0
2	6540	84		jmp __RLSBDone0
2	6542	86		mov __RLSReadBuf0, __RLSLastGoodRead0
2	6544	88		arrsize __RLSBytesCount0, __RLSReadBuf0
2	6546	91		subret ____ReadLSBytes0_return
3	6558	0	#pragma macro 27
3	6558	0		acquire __CLSWMutex1
3	6558	1		index __LSWriteOptionsVar, __LSWriteOptions, __constVal1
3	6558	5		or __CLSWArgs1.Port, __constVal1, __LSWriteOptionsVar
3	6558	9		mov __CLSWArgs1.ReturnLen, __RLSBytesCount1
3	6558	11		mov __CLSWArgs1.Buffer, __RLSReadBuf1
3	6558	13		syscall 21, __CLSWArgs1
3	6558	16		mov __RLSBResult1, __CLSWArgs1.Result
3	6558	19		release __CLSWMutex1
3	6558	20	#line 6558 "NXTDefs.h"
3	6559	20		brtst 5, __RLSBError1, __RLSBResult1
3	6560	23		set __RLSBIterations1, 60
3	6562	26	#pragma macro 23
3	6562	26		acquire __CLSCSMutex1
3	6562	27		set __CLSCSArgs1.Port, 1
3	6562	30		syscall 23, __CLSCSArgs1
3	6562	33		mov __RLSBytesCount1, __CLSCSArgs1.BytesReady
3	6562	35		mov __RLSBResult1, __CLSCSArgs1.Result
3	6562	38		release __CLSCSMutex1
3	6562	39	#line 6562 "NXTDefs.h"
3	6563	39		sub __RLSBIterations1, __RLSBIterations1, __constVal1
3	6564	43		brtst 2, __RLSBError1, __RLSBIterations1
3	6565	46		brtst 0, __RLSBError1, __RLSBResult1
3	6566	49		brtst 4, __RLSBReadyToRead1, __RLSBResult1
3	6568	52		wait 1
3	6569	54		jmp __RLSBDoCheckStatus1
3	6571	56		brtst 4, __RLSBReturn1, __RLSBytesCount1
3	6572	59		arrinit __RLSReadBuf1, __constVal0, __RLSBytesCount1
3	6574	63	#pragma macro 25
3	6574	63		acquire __CLSRMutex1
3	6574	64		set __CLSRArgs1.Port, 1
3	6574	67		mov __CLSRArgs1.BufferLen, __RLSBytesCount1
3	6574	69		syscall 22, __CLSRArgs1
3	6574	72		mov __RLSReadBuf1, __CLSRArgs1.Buffer
3	6574	75		mov __RLSBResult1, __CLSRArgs1.Result
3	6574	77		release __CLSRMutex1
3	6574	78	#line 6574 "NXTDefs.h"
3	6575	78		brtst 5, __RLSBError1, __RLSBResult1
3	6576	81		mov __RLSLastGoodRead1, __RLSReadBuf1
3	6577	83		jmp __RLSBDone1
3	6579	85		mov __RLSReadBuf1, __RLSLastGoodRead1
3	6581	87		arrsize __RLSBytesCount1, __RLSReadBuf1
3	6583	90		subret ____ReadLSBytes1_return
4	6595	0	#pragma macro 27
4	6595	0		acquire __CLSWMutex2
4	6595	1		index __LSWriteOptionsVar, __LSWriteOptions, __constVal2
4	6595	5		or __CLSWArgs2.Port, __constVal2, __LSWriteOptionsVar
4	6595	9		mov __CLSWArgs2.ReturnLen, __RLSBytesCount2
4	6595	11		mov __CLSWArgs2.Buffer, __RLSReadBuf2
4	6595	14		syscall 21, __CLSWArgs2
4	6595	17		mov __RLSBResult2, __CLSWArgs2.Result
4	6595	19		release __CLSWMutex2
4	6595	20	#line 6595 "NXTDefs.h"
4	6596	20		brtst 5, __RLSBError2, __RLSBResult2
4	6597	23		set __RLSBIterations2, 60
4	6599	26	#pragma macro 23
4	6599	26		acquire __CLSCSMutex2
4	6599	27		set __CLSCSArgs2.Port, 2
4	6599	30		syscall 23, __CLSCSArgs2
4	6599	33		mov __RLSBytesCount2, __CLSCSArgs2.BytesReady
4	6599	35		mov __RLSBResult2, __CLSCSArgs2.Result
4	6599	37		release __CLSCSMutex2
4	6599	38	#line 6599 "NXTDefs.h"
4	6600	38		sub __RLSBIterations2, __RLSBIterations2, __constVal1
4	6601	42		brtst 2, __RLSBError2, __RLSBIterations2
4	6602	45		brtst 0, __RLSBError2, __RLSBResult2
4	6603	48		brtst 4, __RLSBReadyToRead2, __RLSBResult2
4	6605	51		wait 1
4	6606	53		jmp __RLSBDoCheckStatus2
4	6608	55		brtst 4, __RLSBReturn2, __RLSBytesCount2
4	6609	58		arrinit __RLSReadBuf2, __constVal0, __RLSBytesCount2
4	6611	62	#pragma macro 25
4	6611	62		acquire __CLSRMutex2
4	6611	63		set __CLSRArgs2.Port, 2
4	6611	66		mov __CLSRArgs2.BufferLen, __RLSBytesCount2
4	6611	68		syscall 22, __CLSRArgs2
4	6611	71		mov __RLSReadBuf2, __CLSRArgs2.Buffer
4	6611	73		mov __RLSBResult2, __CLSRArgs2.Result
4	6611	75		release __CLSRMutex2
4	6611	76	#line 6611 "NXTDefs.h"
4	6612	76		brtst 5, __RLSBError2, __RLSBResult2
4	6613	79		mov __RLSLastGoodRead2, __RLSReadBuf2
4	6614	81		jmp __RLSBDone2
4	6616	83		mov __RLSReadBuf2, __RLSLastGoodRead2
4	6618	85		arrsize __RLSBytesCount2, __RLSReadBuf2
4	6620	88		subret ____ReadLSBytes2_return
5	6632	0	#pragma macro 27
5	6632	0		acquire __CLSWMutex3
5	6632	1		index __LSWriteOptionsVar, __LSWriteOptions, __constVal3
5	6632	5		or __CLSWArgs3.Port, __constVal3, __LSWriteOptionsVar
5	6632	9		mov __CLSWArgs3.ReturnLen, __RLSBytesCount3
5	6632	11		mov __CLSWArgs3.Buffer, __RLSReadBuf3
5	6632	13		syscall 21, __CLSWArgs3
5	6632	16		mov __RLSBResult3, __CLSWArgs3.Result
5	6632	18		release __CLSWMutex3
5	6632	19	#line 6632 "NXTDefs.h"
5	6633	19		brtst 5, __RLSBError3, __RLSBResult3
5	6634	22		set __RLSBIterations3, 60
5	6636	25	#pragma macro 23
5	6636	25		acquire __CLSCSMutex3
5	6636	26		set __CLSCSArgs3.Port, 3
5	6636	29		syscall 23, __CLSCSArgs3
5	6636	32		mov __RLSBytesCount3, __CLSCSArgs3.BytesReady
5	6636	34		mov __RLSBResult3, __CLSCSArgs3.Result
5	6636	36		release __CLSCSMutex3
5	6636	37	#line 6636 "NXTDefs.h"
5	6637	37		sub __RLSBIterations3, __RLSBIterations3, __constVal1
5	6638	41		brtst 2, __RLSBError3, __RLSBIterations3
5	6639	44		brtst 0, __RLSBError3, __RLSBResult3
5	6640	47		brtst 4, __RLSBReadyToRead3, __RLSBResult3
5	6642	50		wait 1
5	6643	52		jmp __RLSBDoCheckStatus3
5	6645	54		brtst 4, __RLSBReturn3, __RLSBytesCount3
5	6646	57		arrinit __RLSReadBuf3, __constVal0, __RLSBytesCount3
5	6648	61	#pragma macro 25
5	6648	61		acquire __CLSRMutex3
5	6648	62		set __CLSRArgs3.Port, 3
5	6648	65		mov __CLSRArgs3.BufferLen, __RLSBytesCount3
5	6648	67		syscall 22, __CLSRArgs3
5	6648	70		mov __RLSReadBuf3, __CLSRArgs3.Buffer
5	6648	72		mov __RLSBResult3, __CLSRArgs3.Result
5	6648	74		release __CLSRMutex3
5	6648	75	#line 6648 "NXTDefs.h"
5	6649	75		brtst 5, __RLSBError3, __RLSBResult3
5	6650	78		mov __RLSLastGoodRead3, __RLSReadBuf3
5	6651	80		jmp __RLSBDone3
5	6653	82		mov __RLSReadBuf3, __RLSLastGoodRead3
5	6655	84		arrsize __RLSBytesCount3, __RLSReadBuf3
5	6657	87		subret ____ReadLSBytes3_return
6	7372	0	#line 7372 "NXCDefs.h"
6	7373	0		mov __signed_stack_001PlaySound, __PlaySound_7qG2_aCode_7qG2_000
6	7372	2	#line 7372 "NXCDefs.h"
6	7373	2	#line 7373 "NXCDefs.h"
6	7374	2		set __D0PlaySound, 0
6	7373	5	#line 7373 "NXCDefs.h"
6	7374	5		cmp 4, __D0PlaySound, __signed_stack_001PlaySound, __D0PlaySound
6	7373	9	#line 7373 "NXCDefs.h"
6	7374	9		brtst 4, __ASM_Label_56, __D0PlaySound
6	7373	12	#line 7373 "NXCDefs.h"
6	7374	12		set __signed_stack_001PlaySound, 600
6	7373	15	#line 7373 "NXCDefs.h"
6	7373	15	#line 7373 "NXCDefs.h"
6	7374	15		set __signed_stack_002PlaySound, 200
6	7373	18	#line 7373 "NXCDefs.h"
6	7373	18	#line 7373 "NXCDefs.h"
6	7374	18		set __signed_stack_003PlaySound, 4
6	7373	21	#line 7373 "NXCDefs.h"
6	7373	21	#line 7373 "NXCDefs.h"
6	7374	21		set __D0PlaySound, 0
6	7373	24	#line 7373 "NXCDefs.h"
6	7374	24		acquire __SPTArgsMutex
6	7373	25	#line 7373 "NXCDefs.h"
6	7374	25		mov __SPTArgs.Frequency, __signed_stack_001PlaySound
6	7373	28	#line 7373 "NXCDefs.h"
6	7374	28		mov __SPTArgs.Duration, __signed_stack_002PlaySound
6	7373	31	#line 7373 "NXCDefs.h"
6	7374	31		mov __SPTArgs.Volume, __signed_stack_003PlaySound
6	7373	34	#line 7373 "NXCDefs.h"
6	7374	34		mov __SPTArgs.Loop, __D0PlaySound
6	7373	37	#line 7373 "NXCDefs.h"
6	7374	37		syscall 10, __SPTArgs
6	7373	40	#line 7373 "NXCDefs.h"
6	7374	40		mov __D0PlaySound, __SPTArgs.Result
6	7373	43	#line 7373 "NXCDefs.h"
6	7374	43		release __SPTArgsMutex
6	7373	44	#line 7373 "NXCDefs.h"
6	7374	44	#line 7374 "NXCDefs.h"
6	7375	44		jmp __ASM_Label_65
6	7374	46	#line 7374 "NXCDefs.h"
6	7375	46		mov __signed_stack_001PlaySound, __PlaySound_7qG2_aCode_7qG2_000
6	7374	48	#line 7374 "NXCDefs.h"
6	7375	48	#line 7375 "NXCDefs.h"
6	7376	48		set __D0PlaySound, 1
6	7375	51	#line 7375 "NXCDefs.h"
6	7376	51		cmp 4, __D0PlaySound, __signed_stack_001PlaySound, __D0PlaySound
6	7376	55	#line 7376 "NXCDefs.h"
6	7377	55		brtst 4, __ASM_Label_68, __D0PlaySound
6	7376	58	#line 7376 "NXCDefs.h"
6	7377	58		set __signed_stack_001PlaySound, 600
6	7376	61	#line 7376 "NXCDefs.h"
6	7376	61	#line 7376 "NXCDefs.h"
6	7377	61		set __signed_stack_002PlaySound, 150
6	7376	64	#line 7376 "NXCDefs.h"
6	7376	64	#line 7376 "NXCDefs.h"
6	7377	64		set __signed_stack_003PlaySound, 4
6	7376	67	#line 7376 "NXCDefs.h"
6	7376	67	#line 7376 "NXCDefs.h"
6	7377	67		set __D0PlaySound, 0
6	7376	70	#line 7376 "NXCDefs.h"
6	7377	70		acquire __SPTArgsMutex
6	7376	71	#line 7376 "NXCDefs.h"
6	7377	71		mov __SPTArgs.Frequency, __signed_stack_001PlaySound
6	7376	74	#line 7376 "NXCDefs.h"
6	7377	74		mov __SPTArgs.Duration, __signed_stack_002PlaySound
6	7376	77	#line 7376 "NXCDefs.h"
6	7377	77		mov __SPTArgs.Volume, __signed_stack_003PlaySound
6	7376	80	#line 7376 "NXCDefs.h"
6	7377	80		mov __SPTArgs.Loop, __D0PlaySound
6	7376	83	#line 7376 "NXCDefs.h"
6	7377	83		syscall 10, __SPTArgs
6	7376	86	#line 7376 "NXCDefs.h"
6	7377	86		mov __D0PlaySound, __SPTArgs.Result
6	7376	89	#line 7376 "NXCDefs.h"
6	7377	89		release __SPTArgsMutex
6	7376	90	#line 7376 "NXCDefs.h"
6	7377	90	#line 7377 "NXCDefs.h"
6	7378	90		wait 200
6	7377	92	#line 7377 "NXCDefs.h"
6	7377	92	#line 7377 "NXCDefs.h"
6	7378	92	#line 7378 "NXCDefs.h"
6	7379	92		set __signed_stack_001PlaySound, 600
6	7378	95	#line 7378 "NXCDefs.h"
6	7378	95	#line 7378 "NXCDefs.h"
6	7379	95		set __signed_stack_002PlaySound, 150
6	7378	98	#line 7378 "NXCDefs.h"
6	7378	98	#line 7378 "NXCDefs.h"
6	7379	98		set __signed_stack_003PlaySound, 4
6	7378	101	#line 7378 "NXCDefs.h"
6	7378	101	#line 7378 "NXCDefs.h"
6	7379	101		set __D0PlaySound, 0
6	7378	104	#line 7378 "NXCDefs.h"
6	7379	104		acquire __SPTArgsMutex
6	7378	105	#line 7378 "NXCDefs.h"
6	7379	105		mov __SPTArgs.Frequency, __signed_stack_001PlaySound
6	7378	108	#line 7378 "NXCDefs.h"
6	7379	108		mov __SPTArgs.Duration, __signed_stack_002PlaySound
6	7378	111	#line 7378 "NXCDefs.h"
6	7379	111		mov __SPTArgs.Volume, __signed_stack_003PlaySound
6	7378	114	#line 7378 "NXCDefs.h"
6	7379	114		mov __SPTArgs.Loop, __D0PlaySound
6	7378	117	#line 7378 "NXCDefs.h"
6	7379	117		syscall 10, __SPTArgs
6	7378	120	#line 7378 "NXCDefs.h"
6	7379	120		mov __D0PlaySound, __SPTArgs.Result
6	7378	123	#line 7378 "NXCDefs.h"
6	7379	123		release __SPTArgsMutex
6	7378	124	#line 7378 "NXCDefs.h"
6	7379	124	#line 7379 "NXCDefs.h"
6	7380	124		wait 150
6	7379	126	#line 7379 "NXCDefs.h"
6	7379	126	#line 7379 "NXCDefs.h"
6	7381	126	#line 7381 "NXCDefs.h"
6	7382	126		jmp __ASM_Label_85
6	7381	128	#line 7381 "NXCDefs.h"
6	7382	128		mov __signed_stack_001PlaySound, __PlaySound_7qG2_aCode_7qG2_000
6	7381	130	#line 7381 "NXCDefs.h"
6	7382	130	#line 7382 "NXCDefs.h"
6	7383	130		set __D0PlaySound, 3
6	7382	133	#line 7382 "NXCDefs.h"
6	7383	133		cmp 4, __D0PlaySound, __signed_stack_001PlaySound, __D0PlaySound
6	7382	137	#line 7382 "NXCDefs.h"
6	7383	137		brtst 4, __ASM_Label_88, __D0PlaySound
6	7382	140	#line 7382 "NXCDefs.h"
6	7383	140		set __PlaySound_7qG2_i_7qG2_001, 4
6	7382	143	#line 7382 "NXCDefs.h"
6	7382	143	#line 7382 "NXCDefs.h"
6	7383	143		mov __signed_stack_001PlaySound, __PlaySound_7qG2_i_7qG2_001
6	7382	145	#line 7382 "NXCDefs.h"
6	7382	145	#line 7382 "NXCDefs.h"
6	7383	145		set __D0PlaySound, 8
6	7382	148	#line 7382 "NXCDefs.h"
6	7383	148		cmp 0, __D0PlaySound, __signed_stack_001PlaySound, __D0PlaySound
6	7382	152	#line 7382 "NXCDefs.h"
6	7383	152		brtst 4, __ASM_Label_90, __D0PlaySound
6	7382	155	#line 7382 "NXCDefs.h"
6	7383	155		jmp __ASM_Label_91
6	7383	157	#line 7383 "NXCDefs.h"
6	7384	157		add __PlaySound_7qG2_i_7qG2_001, __PlaySound_7qG2_i_7qG2_001, __constVal1
6	7384	161	#line 7384 "NXCDefs.h"
6	7385	161		jmp __ASM_Label_89
6	7384	163	#line 7384 "NXCDefs.h"
6	7385	163		set __signed_stack_001PlaySound, 523
6	7384	166	#line 7384 "NXCDefs.h"
6	7384	166	#line 7384 "NXCDefs.h"
6	7384	166	#line 7384 "NXCDefs.h"
6	7385	166		mul __signed_stack_001PlaySound, __signed_stack_001PlaySound, __PlaySound_7qG2_i_7qG2_001
6	7384	170	#line 7384 "NXCDefs.h"
6	7384	170	#line 7384 "NXCDefs.h"
6	7385	170		set __D0PlaySound, 4
6	7384	173	#line 7384 "NXCDefs.h"
6	7385	173		div __signed_stack_001PlaySound, __signed_stack_001PlaySound, __D0PlaySound
6	7384	177	#line 7384 "NXCDefs.h"
6	7384	177	#line 7384 "NXCDefs.h"
6	7385	177		set __signed_stack_002PlaySound, 100
6	7384	180	#line 7384 "NXCDefs.h"
6	7384	180	#line 7384 "NXCDefs.h"
6	7385	180		set __signed_stack_003PlaySound, 4
6	7384	183	#line 7384 "NXCDefs.h"
6	7384	183	#line 7384 "NXCDefs.h"
6	7385	183		set __D0PlaySound, 0
6	7384	186	#line 7384 "NXCDefs.h"
6	7385	186		acquire __SPTArgsMutex
6	7384	187	#line 7384 "NXCDefs.h"
6	7385	187		mov __SPTArgs.Frequency, __signed_stack_001PlaySound
6	7384	190	#line 7384 "NXCDefs.h"
6	7385	190		mov __SPTArgs.Duration, __signed_stack_002PlaySound
6	7384	193	#line 7384 "NXCDefs.h"
6	7385	193		mov __SPTArgs.Volume, __signed_stack_003PlaySound
6	7384	196	#line 7384 "NXCDefs.h"
6	7385	196		mov __SPTArgs.Loop, __D0PlaySound
6	7384	199	#line 7384 "NXCDefs.h"
6	7385	199		syscall 10, __SPTArgs
6	7384	202	#line 7384 "NXCDefs.h"
6	7385	202		mov __D0PlaySound, __SPTArgs.Result
6	7384	205	#line 7384 "NXCDefs.h"
6	7385	205		release __SPTArgsMutex
6	7384	206	#line 7384 "NXCDefs.h"
6	7385	206	#line 7385 "NXCDefs.h"
6	7386	206		wait 100
6	7385	208	#line 7385 "NXCDefs.h"
6	7385	208	#line 7385 "NXCDefs.h"
6	7387	208	#line 7387 "NXCDefs.h"
6	7388	208		jmp __ASM_Label_92
6	7387	210	#line 7387 "NXCDefs.h"
6	7387	210	#line 7387 "NXCDefs.h"
6	7388	210		jmp __ASM_Label_105
6	7387	212	#line 7387 "NXCDefs.h"
6	7388	212		mov __signed_stack_001PlaySound, __PlaySound_7qG2_aCode_7qG2_000
6	7387	214	#line 7387 "NXCDefs.h"
6	7388	214	#line 7388 "NXCDefs.h"
6	7389	214		set __D0PlaySound, 2
6	7388	217	#line 7388 "NXCDefs.h"
6	7389	217		cmp 4, __D0PlaySound, __signed_stack_001PlaySound, __D0PlaySound
6	7388	221	#line 7388 "NXCDefs.h"
6	7389	221		brtst 4, __ASM_Label_108, __D0PlaySound
6	7388	224	#line 7388 "NXCDefs.h"
6	7389	224		set __PlaySound_7qG2_i_7qG2_001, 7
6	7388	227	#line 7388 "NXCDefs.h"
6	7388	227	#line 7388 "NXCDefs.h"
6	7389	227		mov __signed_stack_001PlaySound, __PlaySound_7qG2_i_7qG2_001
6	7388	229	#line 7388 "NXCDefs.h"
6	7388	229	#line 7388 "NXCDefs.h"
6	7389	229		set __D0PlaySound, 3
6	7388	232	#line 7388 "NXCDefs.h"
6	7389	232		cmp 1, __D0PlaySound, __signed_stack_001PlaySound, __D0PlaySound
6	7388	236	#line 7388 "NXCDefs.h"
6	7389	236		brtst 4, __ASM_Label_110, __D0PlaySound
6	7388	239	#line 7388 "NXCDefs.h"
6	7389	239		jmp __ASM_Label_111
6	7389	241	#line 7389 "NXCDefs.h"
6	7390	241		sub __PlaySound_7qG2_i_7qG2_001, __PlaySound_7qG2_i_7qG2_001, __constVal1
6	7390	245	#line 7390 "NXCDefs.h"
6	7391	245		jmp __ASM_Label_109
6	7390	247	#line 7390 "NXCDefs.h"
6	7391	247		set __signed_stack_001PlaySound, 523
6	7390	250	#line 7390 "NXCDefs.h"
6	7390	250	#line 7390 "NXCDefs.h"
6	7390	250	#line 7390 "NXCDefs.h"
6	7391	250		mul __signed_stack_001PlaySound, __signed_stack_001PlaySound, __PlaySound_7qG2_i_7qG2_001
6	7390	254	#line 7390 "NXCDefs.h"
6	7390	254	#line 7390 "NXCDefs.h"
6	7391	254		set __D0PlaySound, 4
6	7390	257	#line 7390 "NXCDefs.h"
6	7391	257		div __signed_stack_001PlaySound, __signed_stack_001PlaySound, __D0PlaySound
6	7390	261	#line 7390 "NXCDefs.h"
6	7390	261	#line 7390 "NXCDefs.h"
6	7391	261		set __signed_stack_002PlaySound, 100
6	7390	264	#line 7390 "NXCDefs.h"
6	7390	264	#line 7390 "NXCDefs.h"
6	7391	264		set __signed_stack_003PlaySound, 4
6	7390	267	#line 7390 "NXCDefs.h"
6	7390	267	#line 7390 "NXCDefs.h"
6	7391	267		set __D0PlaySound, 0
6	7390	270	#line 7390 "NXCDefs.h"
6	7391	270		acquire __SPTArgsMutex
6	7390	271	#line 7390 "NXCDefs.h"
6	7391	271		mov __SPTArgs.Frequency, __signed_stack_001PlaySound
6	7390	274	#line 7390 "NXCDefs.h"
6	7391	274		mov __SPTArgs.Duration, __signed_stack_002PlaySound
6	7390	277	#line 7390 "NXCDefs.h"
6	7391	277		mov __SPTArgs.Volume, __signed_stack_003PlaySound
6	7390	280	#line 7390 "NXCDefs.h"
6	7391	280		mov __SPTArgs.Loop, __D0PlaySound
6	7390	283	#line 7390 "NXCDefs.h"
6	7391	283		syscall 10, __SPTArgs
6	7390	286	#line 7390 "NXCDefs.h"
6	7391	286		mov __D0PlaySound, __SPTArgs.Result
6	7390	289	#line 7390 "NXCDefs.h"
6	7391	289		release __SPTArgsMutex
6	7390	290	#line 7390 "NXCDefs.h"
6	7391	290	#line 7391 "NXCDefs.h"
6	7392	290		wait 100
6	7391	292	#line 7391 "NXCDefs.h"
6	7391	292	#line 7391 "NXCDefs.h"
6	7393	292	#line 7393 "NXCDefs.h"
6	7394	292		jmp __ASM_Label_112
6	7393	294	#line 7393 "NXCDefs.h"
6	7393	294	#line 7393 "NXCDefs.h"
6	7394	294		jmp __ASM_Label_125
6	7393	296	#line 7393 "NXCDefs.h"
6	7394	296		mov __signed_stack_001PlaySound, __PlaySound_7qG2_aCode_7qG2_000
6	7393	298	#line 7393 "NXCDefs.h"
6	7394	298	#line 7394 "NXCDefs.h"
6	7395	298		set __D0PlaySound, 4
6	7394	301	#line 7394 "NXCDefs.h"
6	7395	301		cmp 4, __D0PlaySound, __signed_stack_001PlaySound, __D0PlaySound
6	7395	305	#line 7395 "NXCDefs.h"
6	7396	305		brtst 4, __ASM_Label_128, __D0PlaySound
6	7395	308	#line 7395 "NXCDefs.h"
6	7396	308		set __signed_stack_001PlaySound, 100
6	7395	311	#line 7395 "NXCDefs.h"
6	7395	311	#line 7395 "NXCDefs.h"
6	7396	311		set __signed_stack_002PlaySound, 500
6	7395	314	#line 7395 "NXCDefs.h"
6	7395	314	#line 7395 "NXCDefs.h"
6	7396	314		set __signed_stack_003PlaySound, 4
6	7395	317	#line 7395 "NXCDefs.h"
6	7395	317	#line 7395 "NXCDefs.h"
6	7396	317		set __D0PlaySound, 0
6	7395	320	#line 7395 "NXCDefs.h"
6	7396	320		acquire __SPTArgsMutex
6	7395	321	#line 7395 "NXCDefs.h"
6	7396	321		mov __SPTArgs.Frequency, __signed_stack_001PlaySound
6	7395	324	#line 7395 "NXCDefs.h"
6	7396	324		mov __SPTArgs.Duration, __signed_stack_002PlaySound
6	7395	327	#line 7395 "NXCDefs.h"
6	7396	327		mov __SPTArgs.Volume, __signed_stack_003PlaySound
6	7395	330	#line 7395 "NXCDefs.h"
6	7396	330		mov __SPTArgs.Loop, __D0PlaySound
6	7395	333	#line 7395 "NXCDefs.h"
6	7396	333		syscall 10, __SPTArgs
6	7395	336	#line 7395 "NXCDefs.h"
6	7396	336		mov __D0PlaySound, __SPTArgs.Result
6	7395	339	#line 7395 "NXCDefs.h"
6	7396	339		release __SPTArgsMutex
6	7395	340	#line 7395 "NXCDefs.h"
6	7396	340	#line 7396 "NXCDefs.h"
6	7397	340		wait 500
6	7396	342	#line 7396 "NXCDefs.h"
6	7396	342	#line 7396 "NXCDefs.h"
6	7398	342	#line 7398 "NXCDefs.h"
6	7399	342		jmp __ASM_Label_137
6	7398	344	#line 7398 "NXCDefs.h"
6	7399	344		mov __signed_stack_001PlaySound, __PlaySound_7qG2_aCode_7qG2_000
6	7398	346	#line 7398 "NXCDefs.h"
6	7399	346	#line 7399 "NXCDefs.h"
6	7400	346		set __D0PlaySound, 5
6	7399	349	#line 7399 "NXCDefs.h"
6	7400	349		cmp 4, __D0PlaySound, __signed_stack_001PlaySound, __D0PlaySound
6	7399	353	#line 7399 "NXCDefs.h"
6	7400	353		brtst 4, __ASM_Label_140, __D0PlaySound
6	7399	356	#line 7399 "NXCDefs.h"
6	7400	356		set __PlaySound_7qG2_i_7qG2_001, 4
6	7399	359	#line 7399 "NXCDefs.h"
6	7399	359	#line 7399 "NXCDefs.h"
6	7400	359		mov __signed_stack_001PlaySound, __PlaySound_7qG2_i_7qG2_001
6	7399	361	#line 7399 "NXCDefs.h"
6	7399	361	#line 7399 "NXCDefs.h"
6	7400	361		set __D0PlaySound, 8
6	7399	364	#line 7399 "NXCDefs.h"
6	7400	364		cmp 0, __D0PlaySound, __signed_stack_001PlaySound, __D0PlaySound
6	7399	368	#line 7399 "NXCDefs.h"
6	7400	368		brtst 4, __ASM_Label_142, __D0PlaySound
6	7399	371	#line 7399 "NXCDefs.h"
6	7400	371		jmp __ASM_Label_143
6	7400	373	#line 7400 "NXCDefs.h"
6	7401	373		add __PlaySound_7qG2_i_7qG2_001, __PlaySound_7qG2_i_7qG2_001, __constVal1
6	7401	377	#line 7401 "NXCDefs.h"
6	7402	377		jmp __ASM_Label_141
6	7401	379	#line 7401 "NXCDefs.h"
6	7402	379		set __signed_stack_001PlaySound, 523
6	7401	382	#line 7401 "NXCDefs.h"
6	7401	382	#line 7401 "NXCDefs.h"
6	7401	382	#line 7401 "NXCDefs.h"
6	7402	382		mul __signed_stack_001PlaySound, __signed_stack_001PlaySound, __PlaySound_7qG2_i_7qG2_001
6	7401	386	#line 7401 "NXCDefs.h"
6	7401	386	#line 7401 "NXCDefs.h"
6	7402	386		set __D0PlaySound, 4
6	7401	389	#line 7401 "NXCDefs.h"
6	7402	389		div __signed_stack_001PlaySound, __signed_stack_001PlaySound, __D0PlaySound
6	7401	393	#line 7401 "NXCDefs.h"
6	7401	393	#line 7401 "NXCDefs.h"
6	7402	393		set __signed_stack_002PlaySound, 50
6	7401	396	#line 7401 "NXCDefs.h"
6	7401	396	#line 7401 "NXCDefs.h"
6	7402	396		set __signed_stack_003PlaySound, 4
6	7401	399	#line 7401 "NXCDefs.h"
6	7401	399	#line 7401 "NXCDefs.h"
6	7402	399		set __D0PlaySound, 0
6	7401	402	#line 7401 "NXCDefs.h"
6	7402	402		acquire __SPTArgsMutex
6	7401	403	#line 7401 "NXCDefs.h"
6	7402	403		mov __SPTArgs.Frequency, __signed_stack_001PlaySound
6	7401	406	#line 7401 "NXCDefs.h"
6	7402	406		mov __SPTArgs.Duration, __signed_stack_002PlaySound
6	7401	409	#line 7401 "NXCDefs.h"
6	7402	409		mov __SPTArgs.Volume, __signed_stack_003PlaySound
6	7401	412	#line 7401 "NXCDefs.h"
6	7402	412		mov __SPTArgs.Loop, __D0PlaySound
6	7401	415	#line 7401 "NXCDefs.h"
6	7402	415		syscall 10, __SPTArgs
6	7401	418	#line 7401 "NXCDefs.h"
6	7402	418		mov __D0PlaySound, __SPTArgs.Result
6	7401	421	#line 7401 "NXCDefs.h"
6	7402	421		release __SPTArgsMutex
6	7401	422	#line 7401 "NXCDefs.h"
6	7402	422	#line 7402 "NXCDefs.h"
6	7403	422		wait 50
6	7402	424	#line 7402 "NXCDefs.h"
6	7402	424	#line 7402 "NXCDefs.h"
6	7414	424	#line 7414 "NXCDefs.h"
6	7415	424		jmp __ASM_Label_144
6	7414	426	#line 7414 "NXCDefs.h"
6	7414	426	#line 7414 "NXCDefs.h"
6	7414	426	#line 7414 "NXCDefs.h"
6	7414	426	#line 7414 "NXCDefs.h"
6	7414	426	#line 7414 "NXCDefs.h"
6	7414	426	#line 7414 "NXCDefs.h"
6	7414	426	#line 7414 "NXCDefs.h"
6	7414	426	#line 7414 "NXCDefs.h"
6	7415	426		subret __PlaySound_return
7	102	0	#line 102 "C:\Users\Lucas\Desktop\UnB\Droid\sekksi2016\executivo\Executivo_MAIN_mark001.nxc"
7	103	0		set __signed_stack_001distanciaTachoCount, 3
7	102	3	#line 102 "C:\Users\Lucas\Desktop\UnB\Droid\sekksi2016\executivo\Executivo_MAIN_mark001.nxc"
7	102	3	#line 102 "C:\Users\Lucas\Desktop\UnB\Droid\sekksi2016\executivo\Executivo_MAIN_mark001.nxc"
7	102	3	#line 102 "C:\Users\Lucas\Desktop\UnB\Droid\sekksi2016\executivo\Executivo_MAIN_mark001.nxc"
7	103	3		mul __D0distanciaTachoCount, __signed_stack_001distanciaTachoCount, __distanciaTachoCount_7qG2_grau_7qG2_000
7	102	7	#line 102 "C:\Users\Lucas\Desktop\UnB\Droid\sekksi2016\executivo\Executivo_MAIN_mark001.nxc"
7	103	7		subret __distanciaTachoCount_return
7	102	9	#line 102 "C:\Users\Lucas\Desktop\UnB\Droid\sekksi2016\executivo\Executivo_MAIN_mark001.nxc"
7	105	9	#line 105 "C:\Users\Lucas\Desktop\UnB\Droid\sekksi2016\executivo\Executivo_MAIN_mark001.nxc"
7	106	9		subret __distanciaTachoCount_return
8	107	0	#line 107 "C:\Users\Lucas\Desktop\UnB\Droid\sekksi2016\executivo\Executivo_MAIN_mark001.nxc"
8	108	0		set __SetSensorLowspeed_7qG2_port_7qG2_000_inline_inicializaSensores, 0
8	107	3	#line 107 "C:\Users\Lucas\Desktop\UnB\Droid\sekksi2016\executivo\Executivo_MAIN_mark001.nxc"
8	107	3	#line 107 "C:\Users\Lucas\Desktop\UnB\Droid\sekksi2016\executivo\Executivo_MAIN_mark001.nxc"
8	108	3		mov __SetSensorLowspeed_7qG2_bIsPowered_7qG2_000_inline_inicializaSensores, __constVal1
8	4523	5	#line 4523 "NXCDefs.h"
8	4524	5		mov __SetSensorType_7qG2_port_7qG2_000_inline_SetSensorLowspeed_inline_inicializaSensores, __SetSensorLowspeed_7qG2_port_7qG2_000_inline_inicializaSensores
8	4523	7	#line 4523 "NXCDefs.h"
8	4523	7	#line 4523 "NXCDefs.h"
8	4524	7		mov __DU0SetSensorLowspeed_inline_inicializaSensores, __SetSensorLowspeed_7qG2_bIsPowered_7qG2_000_inline_inicializaSensores
8	4523	9	#line 4523 "NXCDefs.h"
8	4524	9		tst 5, __D0SetSensorLowspeed_inline_inicializaSensores, __DU0SetSensorLowspeed_inline_inicializaSensores
8	4523	12	#line 4523 "NXCDefs.h"
8	4524	12		brtst 4, __004__ASM_Label_36, __D0SetSensorLowspeed_inline_inicializaSensores
8	4523	15	#line 4523 "NXCDefs.h"
8	4524	15		set __DU0SetSensorLowspeed_inline_inicializaSensores, 11
8	4523	18	#line 4523 "NXCDefs.h"
8	4523	18	#line 4523 "NXCDefs.h"
8	4524	18		jmp __004__ASM_Label_37
8	4523	20	#line 4523 "NXCDefs.h"
8	4524	20		set __DU0SetSensorLowspeed_inline_inicializaSensores, 10
8	4523	23	#line 4523 "NXCDefs.h"
8	4523	23	#line 4523 "NXCDefs.h"
8	4524	23		mov __SetSensorType_7qG2_type_7qG2_000_inline_SetSensorLowspeed_inline_inicializaSensores, __DU0SetSensorLowspeed_inline_inicializaSensores
8	4428	25	#line 4428 "NXCDefs.h"
8	4429	25		setin __SetSensorType_7qG2_type_7qG2_000_inline_SetSensorLowspeed_inline_inicializaSensores, __SetSensorType_7qG2_port_7qG2_000_inline_SetSensorLowspeed_inline_inicializaSensores, 0
8	4428	29	#line 4428 "NXCDefs.h"
8	4523	29	#line 4523 "NXCDefs.h"
8	4524	29	#line 4524 "NXCDefs.h"
8	4525	29		mov __SetSensorMode_7qG2_port_7qG2_000_inline_SetSensorLowspeed_inline_inicializaSensores, __SetSensorLowspeed_7qG2_port_7qG2_000_inline_inicializaSensores
8	4524	31	#line 4524 "NXCDefs.h"
8	4524	31	#line 4524 "NXCDefs.h"
8	4525	31		set __SetSensorMode_7qG2_mode_7qG2_000_inline_SetSensorLowspeed_inline_inicializaSensores, 0
8	4524	34	#line 4524 "NXCDefs.h"
8	4441	34	#line 4441 "NXCDefs.h"
8	4442	34		setin __SetSensorMode_7qG2_mode_7qG2_000_inline_SetSensorLowspeed_inline_inicializaSensores, __SetSensorMode_7qG2_port_7qG2_000_inline_SetSensorLowspeed_inline_inicializaSensores, 1
8	4441	38	#line 4441 "NXCDefs.h"
8	4524	38	#line 4524 "NXCDefs.h"
8	4525	38	#line 4525 "NXCDefs.h"
8	4526	38		mov __ResetSensor_7qG2_port_7qG2_000_inline_SetSensorLowspeed_inline_inicializaSensores, __SetSensorLowspeed_7qG2_port_7qG2_000_inline_inicializaSensores
8	4525	40	#line 4525 "NXCDefs.h"
8	4459	40	#line 4459 "NXCDefs.h"
8	4460	40	#pragma macro 4
8	4460	40		mov __ResetSensorPort, __SetSensorLowspeed_7qG2_port_7qG2_000_inline_inicializaSensores
8	4460	42		subcall __ResetSensorSubroutine, ____ResetSensorSubroutine_return
8	8476	44	#line 8476 "NXCDefs.h"
8	4459	44	#line 4459 "NXCDefs.h"
8	4525	44	#line 4525 "NXCDefs.h"
8	107	44	#line 107 "C:\Users\Lucas\Desktop\UnB\Droid\sekksi2016\executivo\Executivo_MAIN_mark001.nxc"
8	108	44	#line 108 "C:\Users\Lucas\Desktop\UnB\Droid\sekksi2016\executivo\Executivo_MAIN_mark001.nxc"
8	109	44		set __SetSensorLowspeed_7qG2_port_7qG2_000_inline_inicializaSensores, 1
8	108	47	#line 108 "C:\Users\Lucas\Desktop\UnB\Droid\sekksi2016\executivo\Executivo_MAIN_mark001.nxc"
8	108	47	#line 108 "C:\Users\Lucas\Desktop\UnB\Droid\sekksi2016\executivo\Executivo_MAIN_mark001.nxc"
8	109	47		mov __SetSensorLowspeed_7qG2_bIsPowered_7qG2_000_inline_inicializaSensores, __constVal1
8	4523	49	#line 4523 "NXCDefs.h"
8	4524	49		mov __SetSensorType_7qG2_port_7qG2_000_inline_SetSensorLowspeed_inline_inicializaSensores, __SetSensorLowspeed_7qG2_port_7qG2_000_inline_inicializaSensores
8	4523	51	#line 4523 "NXCDefs.h"
8	4523	51	#line 4523 "NXCDefs.h"
8	4524	51		mov __DU0SetSensorLowspeed_inline_inicializaSensores, __SetSensorLowspeed_7qG2_bIsPowered_7qG2_000_inline_inicializaSensores
8	4523	53	#line 4523 "NXCDefs.h"
8	4524	53		tst 5, __D0SetSensorLowspeed_inline_inicializaSensores, __DU0SetSensorLowspeed_inline_inicializaSensores
8	4523	56	#line 4523 "NXCDefs.h"
8	4524	56		brtst 4, __005__ASM_Label_36, __D0SetSensorLowspeed_inline_inicializaSensores
8	4523	59	#line 4523 "NXCDefs.h"
8	4524	59		set __DU0SetSensorLowspeed_inline_inicializaSensores, 11
8	4523	62	#line 4523 "NXCDefs.h"
8	4523	62	#line 4523 "NXCDefs.h"
8	4524	62		jmp __005__ASM_Label_37
8	4523	64	#line 4523 "NXCDefs.h"
8	4524	64		set __DU0SetSensorLowspeed_inline_inicializaSensores, 10
8	4523	67	#line 4523 "NXCDefs.h"
8	4523	67	#line 4523 "NXCDefs.h"
8	4524	67		mov __SetSensorType_7qG2_type_7qG2_000_inline_SetSensorLowspeed_inline_inicializaSensores, __DU0SetSensorLowspeed_inline_inicializaSensores
8	4428	69	#line 4428 "NXCDefs.h"
8	4429	69		setin __SetSensorType_7qG2_type_7qG2_000_inline_SetSensorLowspeed_inline_inicializaSensores, __SetSensorType_7qG2_port_7qG2_000_inline_SetSensorLowspeed_inline_inicializaSensores, 0
8	4428	73	#line 4428 "NXCDefs.h"
8	4523	73	#line 4523 "NXCDefs.h"
8	4524	73	#line 4524 "NXCDefs.h"
8	4525	73		mov __SetSensorMode_7qG2_port_7qG2_000_inline_SetSensorLowspeed_inline_inicializaSensores, __SetSensorLowspeed_7qG2_port_7qG2_000_inline_inicializaSensores
8	4524	75	#line 4524 "NXCDefs.h"
8	4524	75	#line 4524 "NXCDefs.h"
8	4525	75		set __SetSensorMode_7qG2_mode_7qG2_000_inline_SetSensorLowspeed_inline_inicializaSensores, 0
8	4524	78	#line 4524 "NXCDefs.h"
8	4441	78	#line 4441 "NXCDefs.h"
8	4442	78		setin __SetSensorMode_7qG2_mode_7qG2_000_inline_SetSensorLowspeed_inline_inicializaSensores, __SetSensorMode_7qG2_port_7qG2_000_inline_SetSensorLowspeed_inline_inicializaSensores, 1
8	4441	82	#line 4441 "NXCDefs.h"
8	4524	82	#line 4524 "NXCDefs.h"
8	4525	82	#line 4525 "NXCDefs.h"
8	4526	82		mov __ResetSensor_7qG2_port_7qG2_000_inline_SetSensorLowspeed_inline_inicializaSensores, __SetSensorLowspeed_7qG2_port_7qG2_000_inline_inicializaSensores
8	4525	84	#line 4525 "NXCDefs.h"
8	4459	84	#line 4459 "NXCDefs.h"
8	4460	84	#pragma macro 4
8	4460	84		mov __ResetSensorPort, __SetSensorLowspeed_7qG2_port_7qG2_000_inline_inicializaSensores
8	4460	86		subcall __ResetSensorSubroutine, ____ResetSensorSubroutine_return
8	8539	88	#line 8539 "NXCDefs.h"
8	4459	88	#line 4459 "NXCDefs.h"
8	4525	88	#line 4525 "NXCDefs.h"
8	108	88	#line 108 "C:\Users\Lucas\Desktop\UnB\Droid\sekksi2016\executivo\Executivo_MAIN_mark001.nxc"
8	109	88	#line 109 "C:\Users\Lucas\Desktop\UnB\Droid\sekksi2016\executivo\Executivo_MAIN_mark001.nxc"
8	110	88		set __SetSensorLowspeed_7qG2_port_7qG2_000_inline_inicializaSensores, 2
8	109	91	#line 109 "C:\Users\Lucas\Desktop\UnB\Droid\sekksi2016\executivo\Executivo_MAIN_mark001.nxc"
8	109	91	#line 109 "C:\Users\Lucas\Desktop\UnB\Droid\sekksi2016\executivo\Executivo_MAIN_mark001.nxc"
8	110	91		mov __SetSensorLowspeed_7qG2_bIsPowered_7qG2_000_inline_inicializaSensores, __constVal1
8	4523	93	#line 4523 "NXCDefs.h"
8	4524	93		mov __SetSensorType_7qG2_port_7qG2_000_inline_SetSensorLowspeed_inline_inicializaSensores, __SetSensorLowspeed_7qG2_port_7qG2_000_inline_inicializaSensores
8	4523	95	#line 4523 "NXCDefs.h"
8	4523	95	#line 4523 "NXCDefs.h"
8	4524	95		mov __DU0SetSensorLowspeed_inline_inicializaSensores, __SetSensorLowspeed_7qG2_bIsPowered_7qG2_000_inline_inicializaSensores
8	4523	97	#line 4523 "NXCDefs.h"
8	4524	97		tst 5, __D0SetSensorLowspeed_inline_inicializaSensores, __DU0SetSensorLowspeed_inline_inicializaSensores
8	4523	100	#line 4523 "NXCDefs.h"
8	4524	100		brtst 4, __006__ASM_Label_36, __D0SetSensorLowspeed_inline_inicializaSensores
8	4523	103	#line 4523 "NXCDefs.h"
8	4524	103		set __DU0SetSensorLowspeed_inline_inicializaSensores, 11
8	4523	106	#line 4523 "NXCDefs.h"
8	4523	106	#line 4523 "NXCDefs.h"
8	4524	106		jmp __006__ASM_Label_37
8	4523	108	#line 4523 "NXCDefs.h"
8	4524	108		set __DU0SetSensorLowspeed_inline_inicializaSensores, 10
8	4523	111	#line 4523 "NXCDefs.h"
8	4523	111	#line 4523 "NXCDefs.h"
8	4524	111		mov __SetSensorType_7qG2_type_7qG2_000_inline_SetSensorLowspeed_inline_inicializaSensores, __DU0SetSensorLowspeed_inline_inicializaSensores
8	4428	113	#line 4428 "NXCDefs.h"
8	4429	113		setin __SetSensorType_7qG2_type_7qG2_000_inline_SetSensorLowspeed_inline_inicializaSensores, __SetSensorType_7qG2_port_7qG2_000_inline_SetSensorLowspeed_inline_inicializaSensores, 0
8	4428	117	#line 4428 "NXCDefs.h"
8	4523	117	#line 4523 "NXCDefs.h"
8	4524	117	#line 4524 "NXCDefs.h"
8	4525	117		mov __SetSensorMode_7qG2_port_7qG2_000_inline_SetSensorLowspeed_inline_inicializaSensores, __SetSensorLowspeed_7qG2_port_7qG2_000_inline_inicializaSensores
8	4524	119	#line 4524 "NXCDefs.h"
8	4524	119	#line 4524 "NXCDefs.h"
8	4525	119		set __SetSensorMode_7qG2_mode_7qG2_000_inline_SetSensorLowspeed_inline_inicializaSensores, 0
8	4524	122	#line 4524 "NXCDefs.h"
8	4441	122	#line 4441 "NXCDefs.h"
8	4442	122		setin __SetSensorMode_7qG2_mode_7qG2_000_inline_SetSensorLowspeed_inline_inicializaSensores, __SetSensorMode_7qG2_port_7qG2_000_inline_SetSensorLowspeed_inline_inicializaSensores, 1
8	4441	126	#line 4441 "NXCDefs.h"
8	4524	126	#line 4524 "NXCDefs.h"
8	4525	126	#line 4525 "NXCDefs.h"
8	4526	126		mov __ResetSensor_7qG2_port_7qG2_000_inline_SetSensorLowspeed_inline_inicializaSensores, __SetSensorLowspeed_7qG2_port_7qG2_000_inline_inicializaSensores
8	4525	128	#line 4525 "NXCDefs.h"
8	4459	128	#line 4459 "NXCDefs.h"
8	4460	128	#pragma macro 4
8	4460	128		mov __ResetSensorPort, __SetSensorLowspeed_7qG2_port_7qG2_000_inline_inicializaSensores
8	4460	130		subcall __ResetSensorSubroutine, ____ResetSensorSubroutine_return
8	8602	132	#line 8602 "NXCDefs.h"
8	4459	132	#line 4459 "NXCDefs.h"
8	4525	132	#line 4525 "NXCDefs.h"
8	109	132	#line 109 "C:\Users\Lucas\Desktop\UnB\Droid\sekksi2016\executivo\Executivo_MAIN_mark001.nxc"
8	110	132	#line 110 "C:\Users\Lucas\Desktop\UnB\Droid\sekksi2016\executivo\Executivo_MAIN_mark001.nxc"
8	111	132		set __SetSensorLowspeed_7qG2_port_7qG2_000_inline_inicializaSensores, 3
8	110	135	#line 110 "C:\Users\Lucas\Desktop\UnB\Droid\sekksi2016\executivo\Executivo_MAIN_mark001.nxc"
8	110	135	#line 110 "C:\Users\Lucas\Desktop\UnB\Droid\sekksi2016\executivo\Executivo_MAIN_mark001.nxc"
8	111	135		mov __SetSensorLowspeed_7qG2_bIsPowered_7qG2_000_inline_inicializaSensores, __constVal1
8	4523	137	#line 4523 "NXCDefs.h"
8	4524	137		mov __SetSensorType_7qG2_port_7qG2_000_inline_SetSensorLowspeed_inline_inicializaSensores, __SetSensorLowspeed_7qG2_port_7qG2_000_inline_inicializaSensores
8	4523	139	#line 4523 "NXCDefs.h"
8	4523	139	#line 4523 "NXCDefs.h"
8	4524	139		mov __DU0SetSensorLowspeed_inline_inicializaSensores, __SetSensorLowspeed_7qG2_bIsPowered_7qG2_000_inline_inicializaSensores
8	4523	141	#line 4523 "NXCDefs.h"
8	4524	141		tst 5, __D0SetSensorLowspeed_inline_inicializaSensores, __DU0SetSensorLowspeed_inline_inicializaSensores
8	4523	144	#line 4523 "NXCDefs.h"
8	4524	144		brtst 4, __007__ASM_Label_36, __D0SetSensorLowspeed_inline_inicializaSensores
8	4523	147	#line 4523 "NXCDefs.h"
8	4524	147		set __DU0SetSensorLowspeed_inline_inicializaSensores, 11
8	4523	150	#line 4523 "NXCDefs.h"
8	4523	150	#line 4523 "NXCDefs.h"
8	4524	150		jmp __007__ASM_Label_37
8	4523	152	#line 4523 "NXCDefs.h"
8	4524	152		set __DU0SetSensorLowspeed_inline_inicializaSensores, 10
8	4523	155	#line 4523 "NXCDefs.h"
8	4523	155	#line 4523 "NXCDefs.h"
8	4524	155		mov __SetSensorType_7qG2_type_7qG2_000_inline_SetSensorLowspeed_inline_inicializaSensores, __DU0SetSensorLowspeed_inline_inicializaSensores
8	4428	157	#line 4428 "NXCDefs.h"
8	4429	157		setin __SetSensorType_7qG2_type_7qG2_000_inline_SetSensorLowspeed_inline_inicializaSensores, __SetSensorType_7qG2_port_7qG2_000_inline_SetSensorLowspeed_inline_inicializaSensores, 0
8	4428	161	#line 4428 "NXCDefs.h"
8	4523	161	#line 4523 "NXCDefs.h"
8	4524	161	#line 4524 "NXCDefs.h"
8	4525	161		mov __SetSensorMode_7qG2_port_7qG2_000_inline_SetSensorLowspeed_inline_inicializaSensores, __SetSensorLowspeed_7qG2_port_7qG2_000_inline_inicializaSensores
8	4524	163	#line 4524 "NXCDefs.h"
8	4524	163	#line 4524 "NXCDefs.h"
8	4525	163		set __SetSensorMode_7qG2_mode_7qG2_000_inline_SetSensorLowspeed_inline_inicializaSensores, 0
8	4524	166	#line 4524 "NXCDefs.h"
8	4441	166	#line 4441 "NXCDefs.h"
8	4442	166		setin __SetSensorMode_7qG2_mode_7qG2_000_inline_SetSensorLowspeed_inline_inicializaSensores, __SetSensorMode_7qG2_port_7qG2_000_inline_SetSensorLowspeed_inline_inicializaSensores, 1
8	4441	170	#line 4441 "NXCDefs.h"
8	4524	170	#line 4524 "NXCDefs.h"
8	4525	170	#line 4525 "NXCDefs.h"
8	4526	170		mov __ResetSensor_7qG2_port_7qG2_000_inline_SetSensorLowspeed_inline_inicializaSensores, __SetSensorLowspeed_7qG2_port_7qG2_000_inline_inicializaSensores
8	4525	172	#line 4525 "NXCDefs.h"
8	4459	172	#line 4459 "NXCDefs.h"
8	4460	172	#pragma macro 4
8	4460	172		mov __ResetSensorPort, __SetSensorLowspeed_7qG2_port_7qG2_000_inline_inicializaSensores
8	4460	174		subcall __ResetSensorSubroutine, ____ResetSensorSubroutine_return
8	8665	176	#line 8665 "NXCDefs.h"
8	4459	176	#line 4459 "NXCDefs.h"
8	4525	176	#line 4525 "NXCDefs.h"
8	110	176	#line 110 "C:\Users\Lucas\Desktop\UnB\Droid\sekksi2016\executivo\Executivo_MAIN_mark001.nxc"
8	114	176	#line 114 "C:\Users\Lucas\Desktop\UnB\Droid\sekksi2016\executivo\Executivo_MAIN_mark001.nxc"
8	115	176		subret __inicializaSensores_return
9	116	0	#line 116 "C:\Users\Lucas\Desktop\UnB\Droid\sekksi2016\executivo\Executivo_MAIN_mark001.nxc"
9	117	0		strcat __strbufiniciaBlue, __constStr0009
9	116	4	#line 116 "C:\Users\Lucas\Desktop\UnB\Droid\sekksi2016\executivo\Executivo_MAIN_mark001.nxc"
9	117	4		mov __iniciaBlue_7qG2_DADOS_BT_7qG2_000.Name, __strbufiniciaBlue
9	116	6	#line 116 "C:\Users\Lucas\Desktop\UnB\Droid\sekksi2016\executivo\Executivo_MAIN_mark001.nxc"
9	117	6	#line 117 "C:\Users\Lucas\Desktop\UnB\Droid\sekksi2016\executivo\Executivo_MAIN_mark001.nxc"
9	118	6		set __iniciaBlue_7qG2_DADOS_BT_7qG2_000.ConnectionSlot, 1
9	117	9	#line 117 "C:\Users\Lucas\Desktop\UnB\Droid\sekksi2016\executivo\Executivo_MAIN_mark001.nxc"
9	117	9	#line 117 "C:\Users\Lucas\Desktop\UnB\Droid\sekksi2016\executivo\Executivo_MAIN_mark001.nxc"
9	118	9	#line 118 "C:\Users\Lucas\Desktop\UnB\Droid\sekksi2016\executivo\Executivo_MAIN_mark001.nxc"
9	119	9		set __iniciaBlue_7qG2_DADOS_BT_7qG2_000.Action, 1
9	118	12	#line 118 "C:\Users\Lucas\Desktop\UnB\Droid\sekksi2016\executivo\Executivo_MAIN_mark001.nxc"
9	118	12	#line 118 "C:\Users\Lucas\Desktop\UnB\Droid\sekksi2016\executivo\Executivo_MAIN_mark001.nxc"
9	127	12	#line 127 "C:\Users\Lucas\Desktop\UnB\Droid\sekksi2016\executivo\Executivo_MAIN_mark001.nxc"
9	128	12	#pragma macro 4
9	128	12	#line 128 "C:\Users\Lucas\Desktop\UnB\Droid\sekksi2016\executivo\Executivo_MAIN_mark001.nxc"
9	128	12		syscall 36, __iniciaBlue_7qG2_DADOS_BT_7qG2_000
9	126	15	#line 126 "C:\Users\Lucas\Desktop\UnB\Droid\sekksi2016\executivo\Executivo_MAIN_mark001.nxc"
9	126	15	#line 126 "C:\Users\Lucas\Desktop\UnB\Droid\sekksi2016\executivo\Executivo_MAIN_mark001.nxc"
9	126	15	#line 126 "C:\Users\Lucas\Desktop\UnB\Droid\sekksi2016\executivo\Executivo_MAIN_mark001.nxc"
9	126	15	#line 126 "C:\Users\Lucas\Desktop\UnB\Droid\sekksi2016\executivo\Executivo_MAIN_mark001.nxc"
9	127	15	#line 127 "C:\Users\Lucas\Desktop\UnB\Droid\sekksi2016\executivo\Executivo_MAIN_mark001.nxc"
9	127	15	#line 127 "C:\Users\Lucas\Desktop\UnB\Droid\sekksi2016\executivo\Executivo_MAIN_mark001.nxc"
9	127	15	#line 127 "C:\Users\Lucas\Desktop\UnB\Droid\sekksi2016\executivo\Executivo_MAIN_mark001.nxc"
9	128	15		set __Wait_7qG2_ms_7qG2_000_inline_iniciaBlue, 4000
9	127	18	#line 127 "C:\Users\Lucas\Desktop\UnB\Droid\sekksi2016\executivo\Executivo_MAIN_mark001.nxc"
9	8869	18	#line 8869 "NXCDefs.h"
9	8870	18		waitv __Wait_7qG2_ms_7qG2_000_inline_iniciaBlue
9	8869	20	#line 8869 "NXCDefs.h"
9	127	20	#line 127 "C:\Users\Lucas\Desktop\UnB\Droid\sekksi2016\executivo\Executivo_MAIN_mark001.nxc"
9	128	20	#line 128 "C:\Users\Lucas\Desktop\UnB\Droid\sekksi2016\executivo\Executivo_MAIN_mark001.nxc"
9	129	20		set __signed_stack_001iniciaBlue, 0
9	128	23	#line 128 "C:\Users\Lucas\Desktop\UnB\Droid\sekksi2016\executivo\Executivo_MAIN_mark001.nxc"
9	128	23	#line 128 "C:\Users\Lucas\Desktop\UnB\Droid\sekksi2016\executivo\Executivo_MAIN_mark001.nxc"
9	129	23		set __signed_stack_002iniciaBlue, 48
9	128	26	#line 128 "C:\Users\Lucas\Desktop\UnB\Droid\sekksi2016\executivo\Executivo_MAIN_mark001.nxc"
9	128	26	#line 128 "C:\Users\Lucas\Desktop\UnB\Droid\sekksi2016\executivo\Executivo_MAIN_mark001.nxc"
9	129	26		strcat __strbufiniciaBlue, __constStr0010
9	128	30	#line 128 "C:\Users\Lucas\Desktop\UnB\Droid\sekksi2016\executivo\Executivo_MAIN_mark001.nxc"
9	129	30		acquire __TextOutMutex
9	128	31	#line 128 "C:\Users\Lucas\Desktop\UnB\Droid\sekksi2016\executivo\Executivo_MAIN_mark001.nxc"
9	129	31		mov __TextOutArgs.Location.X, __signed_stack_001iniciaBlue
9	128	34	#line 128 "C:\Users\Lucas\Desktop\UnB\Droid\sekksi2016\executivo\Executivo_MAIN_mark001.nxc"
9	129	34		mov __TextOutArgs.Location.Y, __signed_stack_002iniciaBlue
9	128	37	#line 128 "C:\Users\Lucas\Desktop\UnB\Droid\sekksi2016\executivo\Executivo_MAIN_mark001.nxc"
9	129	37		set __TextOutArgs.Options, 0
9	128	40	#line 128 "C:\Users\Lucas\Desktop\UnB\Droid\sekksi2016\executivo\Executivo_MAIN_mark001.nxc"
9	129	40		mov __TextOutArgs.Text, __strbufiniciaBlue
9	128	42	#line 128 "C:\Users\Lucas\Desktop\UnB\Droid\sekksi2016\executivo\Executivo_MAIN_mark001.nxc"
9	129	42		syscall 13, __TextOutArgs
9	128	45	#line 128 "C:\Users\Lucas\Desktop\UnB\Droid\sekksi2016\executivo\Executivo_MAIN_mark001.nxc"
9	128	45	#line 128 "C:\Users\Lucas\Desktop\UnB\Droid\sekksi2016\executivo\Executivo_MAIN_mark001.nxc"
9	129	45		release __TextOutMutex
9	128	46	#line 128 "C:\Users\Lucas\Desktop\UnB\Droid\sekksi2016\executivo\Executivo_MAIN_mark001.nxc"
9	131	46	#line 131 "C:\Users\Lucas\Desktop\UnB\Droid\sekksi2016\executivo\Executivo_MAIN_mark001.nxc"
9	132	46		subret __iniciaBlue_return
10	133	0	#line 133 "C:\Users\Lucas\Desktop\UnB\Droid\sekksi2016\executivo\Executivo_MAIN_mark001.nxc"
10	134	0		strcat __strbufdesligaBlue, __constStr0009
10	133	4	#line 133 "C:\Users\Lucas\Desktop\UnB\Droid\sekksi2016\executivo\Executivo_MAIN_mark001.nxc"
10	134	4		mov __desligaBlue_7qG2_DADOS_BT_7qG2_000.Name, __strbufdesligaBlue
10	133	7	#line 133 "C:\Users\Lucas\Desktop\UnB\Droid\sekksi2016\executivo\Executivo_MAIN_mark001.nxc"
10	134	7	#line 134 "C:\Users\Lucas\Desktop\UnB\Droid\sekksi2016\executivo\Executivo_MAIN_mark001.nxc"
10	135	7		set __desligaBlue_7qG2_DADOS_BT_7qG2_000.ConnectionSlot, 1
10	134	10	#line 134 "C:\Users\Lucas\Desktop\UnB\Droid\sekksi2016\executivo\Executivo_MAIN_mark001.nxc"
10	134	10	#line 134 "C:\Users\Lucas\Desktop\UnB\Droid\sekksi2016\executivo\Executivo_MAIN_mark001.nxc"
10	135	10	#line 135 "C:\Users\Lucas\Desktop\UnB\Droid\sekksi2016\executivo\Executivo_MAIN_mark001.nxc"
10	136	10		set __desligaBlue_7qG2_DADOS_BT_7qG2_000.Action, 0
10	135	13	#line 135 "C:\Users\Lucas\Desktop\UnB\Droid\sekksi2016\executivo\Executivo_MAIN_mark001.nxc"
10	135	13	#line 135 "C:\Users\Lucas\Desktop\UnB\Droid\sekksi2016\executivo\Executivo_MAIN_mark001.nxc"
10	138	13	#line 138 "C:\Users\Lucas\Desktop\UnB\Droid\sekksi2016\executivo\Executivo_MAIN_mark001.nxc"
10	139	13	#pragma macro 4
10	139	13	#line 139 "C:\Users\Lucas\Desktop\UnB\Droid\sekksi2016\executivo\Executivo_MAIN_mark001.nxc"
10	139	13		syscall 36, __desligaBlue_7qG2_DADOS_BT_7qG2_000
10	137	16	#line 137 "C:\Users\Lucas\Desktop\UnB\Droid\sekksi2016\executivo\Executivo_MAIN_mark001.nxc"
10	137	16	#line 137 "C:\Users\Lucas\Desktop\UnB\Droid\sekksi2016\executivo\Executivo_MAIN_mark001.nxc"
10	137	16	#line 137 "C:\Users\Lucas\Desktop\UnB\Droid\sekksi2016\executivo\Executivo_MAIN_mark001.nxc"
10	137	16	#line 137 "C:\Users\Lucas\Desktop\UnB\Droid\sekksi2016\executivo\Executivo_MAIN_mark001.nxc"
10	139	16	#line 139 "C:\Users\Lucas\Desktop\UnB\Droid\sekksi2016\executivo\Executivo_MAIN_mark001.nxc"
10	138	16	#line 138 "C:\Users\Lucas\Desktop\UnB\Droid\sekksi2016\executivo\Executivo_MAIN_mark001.nxc"
10	139	16	#line 139 "C:\Users\Lucas\Desktop\UnB\Droid\sekksi2016\executivo\Executivo_MAIN_mark001.nxc"
10	140	16		set __Wait_7qG2_ms_7qG2_000_inline_desligaBlue, 30
10	139	19	#line 139 "C:\Users\Lucas\Desktop\UnB\Droid\sekksi2016\executivo\Executivo_MAIN_mark001.nxc"
10	8869	19	#line 8869 "NXCDefs.h"
10	8870	19		waitv __Wait_7qG2_ms_7qG2_000_inline_desligaBlue
10	8869	21	#line 8869 "NXCDefs.h"
10	139	21	#line 139 "C:\Users\Lucas\Desktop\UnB\Droid\sekksi2016\executivo\Executivo_MAIN_mark001.nxc"
10	141	21	#line 141 "C:\Users\Lucas\Desktop\UnB\Droid\sekksi2016\executivo\Executivo_MAIN_mark001.nxc"
10	142	21	#pragma macro 5
10	142	21		mov __CBTCSArgs.Connection, __constVal1
10	142	23		syscall 28, __CBTCSArgs
10	142	26		mov __signed_stack_001desligaBlue, __CBTCSArgs.Result
10	8796	29	#line 8796 "C:\Users\Lucas\Desktop\UnB\Droid\sekksi2016\executivo\Executivo_MAIN_mark001.nxc"
10	141	29	#line 141 "C:\Users\Lucas\Desktop\UnB\Droid\sekksi2016\executivo\Executivo_MAIN_mark001.nxc"
10	141	29	#line 141 "C:\Users\Lucas\Desktop\UnB\Droid\sekksi2016\executivo\Executivo_MAIN_mark001.nxc"
10	142	29		set __D0desligaBlue, 0
10	141	32	#line 141 "C:\Users\Lucas\Desktop\UnB\Droid\sekksi2016\executivo\Executivo_MAIN_mark001.nxc"
10	142	32		cmp 4, __D0desligaBlue, __signed_stack_001desligaBlue, __D0desligaBlue
10	141	36	#line 141 "C:\Users\Lucas\Desktop\UnB\Droid\sekksi2016\executivo\Executivo_MAIN_mark001.nxc"
10	142	36		brtst 4, __ASM_Label_641, __D0desligaBlue
10	141	39	#line 141 "C:\Users\Lucas\Desktop\UnB\Droid\sekksi2016\executivo\Executivo_MAIN_mark001.nxc"
10	142	39		jmp __ASM_Label_640
10	141	41	#line 141 "C:\Users\Lucas\Desktop\UnB\Droid\sekksi2016\executivo\Executivo_MAIN_mark001.nxc"
10	141	41	#line 141 "C:\Users\Lucas\Desktop\UnB\Droid\sekksi2016\executivo\Executivo_MAIN_mark001.nxc"
10	142	41	#line 142 "C:\Users\Lucas\Desktop\UnB\Droid\sekksi2016\executivo\Executivo_MAIN_mark001.nxc"
10	143	41		set __signed_stack_001desligaBlue, 0
10	142	44	#line 142 "C:\Users\Lucas\Desktop\UnB\Droid\sekksi2016\executivo\Executivo_MAIN_mark001.nxc"
10	142	44	#line 142 "C:\Users\Lucas\Desktop\UnB\Droid\sekksi2016\executivo\Executivo_MAIN_mark001.nxc"
10	143	44		set __signed_stack_002desligaBlue, 56
10	142	47	#line 142 "C:\Users\Lucas\Desktop\UnB\Droid\sekksi2016\executivo\Executivo_MAIN_mark001.nxc"
10	142	47	#line 142 "C:\Users\Lucas\Desktop\UnB\Droid\sekksi2016\executivo\Executivo_MAIN_mark001.nxc"
10	143	47		strcat __strbufdesligaBlue, __constStr0011
10	142	51	#line 142 "C:\Users\Lucas\Desktop\UnB\Droid\sekksi2016\executivo\Executivo_MAIN_mark001.nxc"
10	143	51		acquire __TextOutMutex
10	142	52	#line 142 "C:\Users\Lucas\Desktop\UnB\Droid\sekksi2016\executivo\Executivo_MAIN_mark001.nxc"
10	143	52		mov __TextOutArgs.Location.X, __signed_stack_001desligaBlue
10	142	55	#line 142 "C:\Users\Lucas\Desktop\UnB\Droid\sekksi2016\executivo\Executivo_MAIN_mark001.nxc"
10	143	55		mov __TextOutArgs.Location.Y, __signed_stack_002desligaBlue
10	142	58	#line 142 "C:\Users\Lucas\Desktop\UnB\Droid\sekksi2016\executivo\Executivo_MAIN_mark001.nxc"
10	143	58		set __TextOutArgs.Options, 0
10	142	61	#line 142 "C:\Users\Lucas\Desktop\UnB\Droid\sekksi2016\executivo\Executivo_MAIN_mark001.nxc"
10	143	61		mov __TextOutArgs.Text, __strbufdesligaBlue
10	142	63	#line 142 "C:\Users\Lucas\Desktop\UnB\Droid\sekksi2016\executivo\Executivo_MAIN_mark001.nxc"
10	143	63		syscall 13, __TextOutArgs
10	142	66	#line 142 "C:\Users\Lucas\Desktop\UnB\Droid\sekksi2016\executivo\Executivo_MAIN_mark001.nxc"
10	143	66		mov __D0desligaBlue, __TextOutArgs.Result
10	142	69	#line 142 "C:\Users\Lucas\Desktop\UnB\Droid\sekksi2016\executivo\Executivo_MAIN_mark001.nxc"
10	143	69		release __TextOutMutex
10	142	70	#line 142 "C:\Users\Lucas\Desktop\UnB\Droid\sekksi2016\executivo\Executivo_MAIN_mark001.nxc"
10	148	70	#line 148 "C:\Users\Lucas\Desktop\UnB\Droid\sekksi2016\executivo\Executivo_MAIN_mark001.nxc"
10	149	70		subret __desligaBlue_return
11	149	0	#line 149 "C:\Users\Lucas\Desktop\UnB\Droid\sekksi2016\executivo\Executivo_MAIN_mark001.nxc"
11	150	0		mov __signed_stack_001distanciaGiro, __distanciaGiro_7qG2_grau_7qG2_000
11	149	2	#line 149 "C:\Users\Lucas\Desktop\UnB\Droid\sekksi2016\executivo\Executivo_MAIN_mark001.nxc"
11	149	2	#line 149 "C:\Users\Lucas\Desktop\UnB\Droid\sekksi2016\executivo\Executivo_MAIN_mark001.nxc"
11	150	2		set __D0distanciaGiro, 172
11	149	5	#line 149 "C:\Users\Lucas\Desktop\UnB\Droid\sekksi2016\executivo\Executivo_MAIN_mark001.nxc"
11	150	5		mul __signed_stack_001distanciaGiro, __signed_stack_001distanciaGiro, __D0distanciaGiro
11	149	9	#line 149 "C:\Users\Lucas\Desktop\UnB\Droid\sekksi2016\executivo\Executivo_MAIN_mark001.nxc"
11	149	9	#line 149 "C:\Users\Lucas\Desktop\UnB\Droid\sekksi2016\executivo\Executivo_MAIN_mark001.nxc"
11	150	9		set __D0distanciaGiro, 1420
11	149	12	#line 149 "C:\Users\Lucas\Desktop\UnB\Droid\sekksi2016\executivo\Executivo_MAIN_mark001.nxc"
11	150	12		div __D0distanciaGiro, __signed_stack_001distanciaGiro, __D0distanciaGiro
11	149	16	#line 149 "C:\Users\Lucas\Desktop\UnB\Droid\sekksi2016\executivo\Executivo_MAIN_mark001.nxc"
11	150	16		subret __distanciaGiro_return
11	149	18	#line 149 "C:\Users\Lucas\Desktop\UnB\Droid\sekksi2016\executivo\Executivo_MAIN_mark001.nxc"
11	152	18	#line 152 "C:\Users\Lucas\Desktop\UnB\Droid\sekksi2016\executivo\Executivo_MAIN_mark001.nxc"
11	153	18		subret __distanciaGiro_return
12	153	0	#line 153 "C:\Users\Lucas\Desktop\UnB\Droid\sekksi2016\executivo\Executivo_MAIN_mark001.nxc"
12	154	0		mov __signed_stack_001vira, __vira_7qG2_direcao_7qG2_000
12	153	2	#line 153 "C:\Users\Lucas\Desktop\UnB\Droid\sekksi2016\executivo\Executivo_MAIN_mark001.nxc"
12	153	2	#line 153 "C:\Users\Lucas\Desktop\UnB\Droid\sekksi2016\executivo\Executivo_MAIN_mark001.nxc"
12	154	2		set __D0vira, 2
12	153	5	#line 153 "C:\Users\Lucas\Desktop\UnB\Droid\sekksi2016\executivo\Executivo_MAIN_mark001.nxc"
12	154	5		cmp 4, __D0vira, __signed_stack_001vira, __D0vira
12	154	9	#line 154 "C:\Users\Lucas\Desktop\UnB\Droid\sekksi2016\executivo\Executivo_MAIN_mark001.nxc"
12	155	9		brtst 4, __ASM_Label_660, __D0vira
12	154	12	#line 154 "C:\Users\Lucas\Desktop\UnB\Droid\sekksi2016\executivo\Executivo_MAIN_mark001.nxc"
12	155	12		set __D0vira, 90
12	154	15	#line 154 "C:\Users\Lucas\Desktop\UnB\Droid\sekksi2016\executivo\Executivo_MAIN_mark001.nxc"
12	155	15	#pragma macro 7
12	155	15		setout __constVal1, 2, __D0vira, 1, __constVal3, 8, __constVal0, 6, __constVal32, 7, __constVal0, 5, __constVal0, 10, __constVal96, 11, __constVal32, 12, __constVal32, 0, __constVal63
12	8901	38	#line 8901 "C:\Users\Lucas\Desktop\UnB\Droid\sekksi2016\executivo\Executivo_MAIN_mark001.nxc"
12	154	38	#line 154 "C:\Users\Lucas\Desktop\UnB\Droid\sekksi2016\executivo\Executivo_MAIN_mark001.nxc"
12	155	38	#line 155 "C:\Users\Lucas\Desktop\UnB\Droid\sekksi2016\executivo\Executivo_MAIN_mark001.nxc"
12	156	38		mov __D0vira, __constValNeg90
12	155	40	#line 155 "C:\Users\Lucas\Desktop\UnB\Droid\sekksi2016\executivo\Executivo_MAIN_mark001.nxc"
12	156	40	#pragma macro 7
12	156	40		setout __constVal0, 2, __D0vira, 1, __constVal3, 8, __constVal0, 6, __constVal32, 7, __constVal0, 5, __constVal0, 10, __constVal96, 11, __constVal32, 12, __constVal32, 0, __constVal63
12	8906	63	#line 8906 "C:\Users\Lucas\Desktop\UnB\Droid\sekksi2016\executivo\Executivo_MAIN_mark001.nxc"
12	155	63	#line 155 "C:\Users\Lucas\Desktop\UnB\Droid\sekksi2016\executivo\Executivo_MAIN_mark001.nxc"
12	157	63	#line 157 "C:\Users\Lucas\Desktop\UnB\Droid\sekksi2016\executivo\Executivo_MAIN_mark001.nxc"
12	158	63		getout __signed_stack_001vira, __constVal1, 4
12	157	67	#line 157 "C:\Users\Lucas\Desktop\UnB\Droid\sekksi2016\executivo\Executivo_MAIN_mark001.nxc"
12	157	67	#line 157 "C:\Users\Lucas\Desktop\UnB\Droid\sekksi2016\executivo\Executivo_MAIN_mark001.nxc"
12	158	67		getout __D0vira, __constVal0, 4
12	157	71	#line 157 "C:\Users\Lucas\Desktop\UnB\Droid\sekksi2016\executivo\Executivo_MAIN_mark001.nxc"
12	158	71		sub __signed_stack_001vira, __signed_stack_001vira, __D0vira
12	157	75	#line 157 "C:\Users\Lucas\Desktop\UnB\Droid\sekksi2016\executivo\Executivo_MAIN_mark001.nxc"
12	157	75	#line 157 "C:\Users\Lucas\Desktop\UnB\Droid\sekksi2016\executivo\Executivo_MAIN_mark001.nxc"
12	158	75		set __D0vira, 2
12	157	78	#line 157 "C:\Users\Lucas\Desktop\UnB\Droid\sekksi2016\executivo\Executivo_MAIN_mark001.nxc"
12	158	78		div __distanciaGiro_7qG2_grau_7qG2_000, __signed_stack_001vira, __D0vira
12	157	82	#line 157 "C:\Users\Lucas\Desktop\UnB\Droid\sekksi2016\executivo\Executivo_MAIN_mark001.nxc"
12	157	82	#line 157 "C:\Users\Lucas\Desktop\UnB\Droid\sekksi2016\executivo\Executivo_MAIN_mark001.nxc"
12	158	82		subcall distanciaGiro, __distanciaGiro_return
12	157	84	#line 157 "C:\Users\Lucas\Desktop\UnB\Droid\sekksi2016\executivo\Executivo_MAIN_mark001.nxc"
12	158	84		mov __signed_stack_001vira, __D0distanciaGiro
12	157	86	#line 157 "C:\Users\Lucas\Desktop\UnB\Droid\sekksi2016\executivo\Executivo_MAIN_mark001.nxc"
12	158	86	#line 158 "C:\Users\Lucas\Desktop\UnB\Droid\sekksi2016\executivo\Executivo_MAIN_mark001.nxc"
12	159	86		mov __D0vira, __vira_7qG2_angulo_7qG2_000
12	158	88	#line 158 "C:\Users\Lucas\Desktop\UnB\Droid\sekksi2016\executivo\Executivo_MAIN_mark001.nxc"
12	159	88		cmp 0, __D0vira, __signed_stack_001vira, __D0vira
12	160	92	#line 160 "C:\Users\Lucas\Desktop\UnB\Droid\sekksi2016\executivo\Executivo_MAIN_mark001.nxc"
12	161	92		brtst 4, __ASM_Label_666, __D0vira
12	161	95	#line 161 "C:\Users\Lucas\Desktop\UnB\Droid\sekksi2016\executivo\Executivo_MAIN_mark001.nxc"
12	162	95		jmp __ASM_Label_665
12	161	97	#line 161 "C:\Users\Lucas\Desktop\UnB\Droid\sekksi2016\executivo\Executivo_MAIN_mark001.nxc"
12	161	97	#line 161 "C:\Users\Lucas\Desktop\UnB\Droid\sekksi2016\executivo\Executivo_MAIN_mark001.nxc"
12	162	97	#pragma macro 7
12	162	97		setout __constVal1, 2, __constVal0, 1, __constVal3, 8, __constVal0, 6, __constVal32, 7, __constVal0, 5, __constVal0, 10, __constVal96, 11, __constVal32, 12, __constVal32, 0, __constVal63
12	8954	120	#line 8954 "C:\Users\Lucas\Desktop\UnB\Droid\sekksi2016\executivo\Executivo_MAIN_mark001.nxc"
12	161	120	#line 161 "C:\Users\Lucas\Desktop\UnB\Droid\sekksi2016\executivo\Executivo_MAIN_mark001.nxc"
12	162	120	#line 162 "C:\Users\Lucas\Desktop\UnB\Droid\sekksi2016\executivo\Executivo_MAIN_mark001.nxc"
12	163	120	#pragma macro 7
12	163	120		setout __constVal0, 2, __constVal0, 1, __constVal3, 8, __constVal0, 6, __constVal32, 7, __constVal0, 5, __constVal0, 10, __constVal96, 11, __constVal32, 12, __constVal32, 0, __constVal63
12	8957	143	#line 8957 "C:\Users\Lucas\Desktop\UnB\Droid\sekksi2016\executivo\Executivo_MAIN_mark001.nxc"
12	162	143	#line 162 "C:\Users\Lucas\Desktop\UnB\Droid\sekksi2016\executivo\Executivo_MAIN_mark001.nxc"
12	164	143	#line 164 "C:\Users\Lucas\Desktop\UnB\Droid\sekksi2016\executivo\Executivo_MAIN_mark001.nxc"
12	165	143		jmp __ASM_Label_673
12	164	145	#line 164 "C:\Users\Lucas\Desktop\UnB\Droid\sekksi2016\executivo\Executivo_MAIN_mark001.nxc"
12	165	145		mov __signed_stack_001vira, __vira_7qG2_direcao_7qG2_000
12	164	147	#line 164 "C:\Users\Lucas\Desktop\UnB\Droid\sekksi2016\executivo\Executivo_MAIN_mark001.nxc"
12	164	147	#line 164 "C:\Users\Lucas\Desktop\UnB\Droid\sekksi2016\executivo\Executivo_MAIN_mark001.nxc"
12	165	147		set __D0vira, 1
12	164	150	#line 164 "C:\Users\Lucas\Desktop\UnB\Droid\sekksi2016\executivo\Executivo_MAIN_mark001.nxc"
12	165	150		cmp 4, __D0vira, __signed_stack_001vira, __D0vira
12	165	154	#line 165 "C:\Users\Lucas\Desktop\UnB\Droid\sekksi2016\executivo\Executivo_MAIN_mark001.nxc"
12	166	154		brtst 4, __ASM_Label_676, __D0vira
12	165	157	#line 165 "C:\Users\Lucas\Desktop\UnB\Droid\sekksi2016\executivo\Executivo_MAIN_mark001.nxc"
12	166	157		mov __D0vira, __constValNeg90
12	165	159	#line 165 "C:\Users\Lucas\Desktop\UnB\Droid\sekksi2016\executivo\Executivo_MAIN_mark001.nxc"
12	166	159	#pragma macro 7
12	166	159		setout __constVal1, 2, __D0vira, 1, __constVal3, 8, __constVal0, 6, __constVal32, 7, __constVal0, 5, __constVal0, 10, __constVal96, 11, __constVal32, 12, __constVal32, 0, __constVal63
12	8979	182	#line 8979 "C:\Users\Lucas\Desktop\UnB\Droid\sekksi2016\executivo\Executivo_MAIN_mark001.nxc"
12	165	182	#line 165 "C:\Users\Lucas\Desktop\UnB\Droid\sekksi2016\executivo\Executivo_MAIN_mark001.nxc"
12	166	182	#line 166 "C:\Users\Lucas\Desktop\UnB\Droid\sekksi2016\executivo\Executivo_MAIN_mark001.nxc"
12	167	182		set __D0vira, 90
12	166	185	#line 166 "C:\Users\Lucas\Desktop\UnB\Droid\sekksi2016\executivo\Executivo_MAIN_mark001.nxc"
12	167	185	#pragma macro 7
12	167	185		setout __constVal0, 2, __D0vira, 1, __constVal3, 8, __constVal0, 6, __constVal32, 7, __constVal0, 5, __constVal0, 10, __constVal96, 11, __constVal32, 12, __constVal32, 0, __constVal63
12	8984	208	#line 8984 "C:\Users\Lucas\Desktop\UnB\Droid\sekksi2016\executivo\Executivo_MAIN_mark001.nxc"
12	166	208	#line 166 "C:\Users\Lucas\Desktop\UnB\Droid\sekksi2016\executivo\Executivo_MAIN_mark001.nxc"
12	168	208	#line 168 "C:\Users\Lucas\Desktop\UnB\Droid\sekksi2016\executivo\Executivo_MAIN_mark001.nxc"
12	169	208		set __signed_stack_001vira, 0
12	168	211	#line 168 "C:\Users\Lucas\Desktop\UnB\Droid\sekksi2016\executivo\Executivo_MAIN_mark001.nxc"
12	168	211	#line 168 "C:\Users\Lucas\Desktop\UnB\Droid\sekksi2016\executivo\Executivo_MAIN_mark001.nxc"
12	169	211		getout __D0vira, __constVal1, 4
12	168	215	#line 168 "C:\Users\Lucas\Desktop\UnB\Droid\sekksi2016\executivo\Executivo_MAIN_mark001.nxc"
12	169	215		sub __signed_stack_001vira, __signed_stack_001vira, __D0vira
12	168	219	#line 168 "C:\Users\Lucas\Desktop\UnB\Droid\sekksi2016\executivo\Executivo_MAIN_mark001.nxc"
12	168	219	#line 168 "C:\Users\Lucas\Desktop\UnB\Droid\sekksi2016\executivo\Executivo_MAIN_mark001.nxc"
12	169	219		getout __D0vira, __constVal0, 4
12	168	223	#line 168 "C:\Users\Lucas\Desktop\UnB\Droid\sekksi2016\executivo\Executivo_MAIN_mark001.nxc"
12	169	223		add __signed_stack_001vira, __signed_stack_001vira, __D0vira
12	168	227	#line 168 "C:\Users\Lucas\Desktop\UnB\Droid\sekksi2016\executivo\Executivo_MAIN_mark001.nxc"
12	168	227	#line 168 "C:\Users\Lucas\Desktop\UnB\Droid\sekksi2016\executivo\Executivo_MAIN_mark001.nxc"
12	169	227		set __D0vira, 2
12	168	230	#line 168 "C:\Users\Lucas\Desktop\UnB\Droid\sekksi2016\executivo\Executivo_MAIN_mark001.nxc"
12	169	230		div __distanciaGiro_7qG2_grau_7qG2_000, __signed_stack_001vira, __D0vira
12	168	234	#line 168 "C:\Users\Lucas\Desktop\UnB\Droid\sekksi2016\executivo\Executivo_MAIN_mark001.nxc"
12	168	234	#line 168 "C:\Users\Lucas\Desktop\UnB\Droid\sekksi2016\executivo\Executivo_MAIN_mark001.nxc"
12	169	234		subcall distanciaGiro, __distanciaGiro_return
12	168	236	#line 168 "C:\Users\Lucas\Desktop\UnB\Droid\sekksi2016\executivo\Executivo_MAIN_mark001.nxc"
12	169	236		mov __signed_stack_001vira, __D0distanciaGiro
12	168	238	#line 168 "C:\Users\Lucas\Desktop\UnB\Droid\sekksi2016\executivo\Executivo_MAIN_mark001.nxc"
12	169	238	#line 169 "C:\Users\Lucas\Desktop\UnB\Droid\sekksi2016\executivo\Executivo_MAIN_mark001.nxc"
12	170	238		mov __D0vira, __vira_7qG2_angulo_7qG2_000
12	169	240	#line 169 "C:\Users\Lucas\Desktop\UnB\Droid\sekksi2016\executivo\Executivo_MAIN_mark001.nxc"
12	170	240		cmp 0, __D0vira, __signed_stack_001vira, __D0vira
12	171	244	#line 171 "C:\Users\Lucas\Desktop\UnB\Droid\sekksi2016\executivo\Executivo_MAIN_mark001.nxc"
12	172	244		brtst 4, __ASM_Label_682, __D0vira
12	172	247	#line 172 "C:\Users\Lucas\Desktop\UnB\Droid\sekksi2016\executivo\Executivo_MAIN_mark001.nxc"
12	173	247		jmp __ASM_Label_681
12	172	249	#line 172 "C:\Users\Lucas\Desktop\UnB\Droid\sekksi2016\executivo\Executivo_MAIN_mark001.nxc"
12	172	249	#line 172 "C:\Users\Lucas\Desktop\UnB\Droid\sekksi2016\executivo\Executivo_MAIN_mark001.nxc"
12	173	249	#pragma macro 7
12	173	249		setout __constVal1, 2, __constVal0, 1, __constVal3, 8, __constVal0, 6, __constVal32, 7, __constVal0, 5, __constVal0, 10, __constVal96, 11, __constVal32, 12, __constVal32, 0, __constVal63
12	9040	272	#line 9040 "C:\Users\Lucas\Desktop\UnB\Droid\sekksi2016\executivo\Executivo_MAIN_mark001.nxc"
12	172	272	#line 172 "C:\Users\Lucas\Desktop\UnB\Droid\sekksi2016\executivo\Executivo_MAIN_mark001.nxc"
12	173	272	#line 173 "C:\Users\Lucas\Desktop\UnB\Droid\sekksi2016\executivo\Executivo_MAIN_mark001.nxc"
12	174	272	#pragma macro 7
12	174	272		setout __constVal0, 2, __constVal0, 1, __constVal3, 8, __constVal0, 6, __constVal32, 7, __constVal0, 5, __constVal0, 10, __constVal96, 11, __constVal32, 12, __constVal32, 0, __constVal63
12	9043	295	#line 9043 "C:\Users\Lucas\Desktop\UnB\Droid\sekksi2016\executivo\Executivo_MAIN_mark001.nxc"
12	173	295	#line 173 "C:\Users\Lucas\Desktop\UnB\Droid\sekksi2016\executivo\Executivo_MAIN_mark001.nxc"
12	178	295	#line 178 "C:\Users\Lucas\Desktop\UnB\Droid\sekksi2016\executivo\Executivo_MAIN_mark001.nxc"
12	178	295	#line 178 "C:\Users\Lucas\Desktop\UnB\Droid\sekksi2016\executivo\Executivo_MAIN_mark001.nxc"
12	178	295	#line 178 "C:\Users\Lucas\Desktop\UnB\Droid\sekksi2016\executivo\Executivo_MAIN_mark001.nxc"
12	179	295		subret __vira_return
13	179	0	#line 179 "C:\Users\Lucas\Desktop\UnB\Droid\sekksi2016\executivo\Executivo_MAIN_mark001.nxc"
13	180	0	#pragma macro 7
13	180	0		setout __constVal0, 2, __constVal0, 1, __constVal3, 8, __constVal0, 6, __constVal32, 7, __constVal0, 5, __constVal0, 10, __constVal96, 11, __constVal32, 12, __constVal32, 0, __constVal63
13	9055	23	#line 9055 "C:\Users\Lucas\Desktop\UnB\Droid\sekksi2016\executivo\Executivo_MAIN_mark001.nxc"
13	179	23	#line 179 "C:\Users\Lucas\Desktop\UnB\Droid\sekksi2016\executivo\Executivo_MAIN_mark001.nxc"
13	180	23	#line 180 "C:\Users\Lucas\Desktop\UnB\Droid\sekksi2016\executivo\Executivo_MAIN_mark001.nxc"
13	181	23	#pragma macro 7
13	181	23		setout __constVal1, 2, __constVal0, 1, __constVal3, 8, __constVal0, 6, __constVal32, 7, __constVal0, 5, __constVal0, 10, __constVal96, 11, __constVal32, 12, __constVal32, 0, __constVal63
13	9058	46	#line 9058 "C:\Users\Lucas\Desktop\UnB\Droid\sekksi2016\executivo\Executivo_MAIN_mark001.nxc"
13	180	46	#line 180 "C:\Users\Lucas\Desktop\UnB\Droid\sekksi2016\executivo\Executivo_MAIN_mark001.nxc"
13	183	46	#line 183 "C:\Users\Lucas\Desktop\UnB\Droid\sekksi2016\executivo\Executivo_MAIN_mark001.nxc"
13	184	46		subret __Para_return
14	184	0	#line 184 "C:\Users\Lucas\Desktop\UnB\Droid\sekksi2016\executivo\Executivo_MAIN_mark001.nxc"
14	185	0		set __PlaySound_7qG2_aCode_7qG2_000, 3
14	184	3	#line 184 "C:\Users\Lucas\Desktop\UnB\Droid\sekksi2016\executivo\Executivo_MAIN_mark001.nxc"
14	184	3	#line 184 "C:\Users\Lucas\Desktop\UnB\Droid\sekksi2016\executivo\Executivo_MAIN_mark001.nxc"
14	185	3		subcall PlaySound, __PlaySound_return
14	184	5	#line 184 "C:\Users\Lucas\Desktop\UnB\Droid\sekksi2016\executivo\Executivo_MAIN_mark001.nxc"
14	185	5	#line 185 "C:\Users\Lucas\Desktop\UnB\Droid\sekksi2016\executivo\Executivo_MAIN_mark001.nxc"
14	186	5		set __PlaySound_7qG2_aCode_7qG2_000, 2
14	185	8	#line 185 "C:\Users\Lucas\Desktop\UnB\Droid\sekksi2016\executivo\Executivo_MAIN_mark001.nxc"
14	185	8	#line 185 "C:\Users\Lucas\Desktop\UnB\Droid\sekksi2016\executivo\Executivo_MAIN_mark001.nxc"
14	186	8		subcall PlaySound, __PlaySound_return
14	185	10	#line 185 "C:\Users\Lucas\Desktop\UnB\Droid\sekksi2016\executivo\Executivo_MAIN_mark001.nxc"
14	186	10	#line 186 "C:\Users\Lucas\Desktop\UnB\Droid\sekksi2016\executivo\Executivo_MAIN_mark001.nxc"
14	187	10		set __Wait_7qG2_ms_7qG2_000_inline_Bip, 1000
14	186	13	#line 186 "C:\Users\Lucas\Desktop\UnB\Droid\sekksi2016\executivo\Executivo_MAIN_mark001.nxc"
14	8869	13	#line 8869 "NXCDefs.h"
14	8870	13		waitv __Wait_7qG2_ms_7qG2_000_inline_Bip
14	8869	15	#line 8869 "NXCDefs.h"
14	186	15	#line 186 "C:\Users\Lucas\Desktop\UnB\Droid\sekksi2016\executivo\Executivo_MAIN_mark001.nxc"
14	189	15	#line 189 "C:\Users\Lucas\Desktop\UnB\Droid\sekksi2016\executivo\Executivo_MAIN_mark001.nxc"
14	190	15		subret __Bip_return
15	190	0	#line 190 "C:\Users\Lucas\Desktop\UnB\Droid\sekksi2016\executivo\Executivo_MAIN_mark001.nxc"
15	191	0		set __ChecaParada_7qG2_leitura_7qG2_000, 0
15	190	3	#line 190 "C:\Users\Lucas\Desktop\UnB\Droid\sekksi2016\executivo\Executivo_MAIN_mark001.nxc"
15	192	3	#line 192 "C:\Users\Lucas\Desktop\UnB\Droid\sekksi2016\executivo\Executivo_MAIN_mark001.nxc"
15	193	3	#pragma macro 9
15	193	3		acquire __MRMutex
15	193	4		mov __MRArgs.QueueID, __constVal1
15	193	6		mov __MRArgs.Remove, __constVal1
15	193	8		set __RRNTmpVal, 0
15	193	11		syscall 27, __MRArgs
15	193	14		unflatten __RRNTmpVal, __RRNErr, __MRArgs.Message, __RRNTmpVal
15	193	19		mov __ChecaParada_7qG2_leitura_7qG2_000, __RRNTmpVal
15	193	21		mov __D0ChecaParada, __MRArgs.Result
15	193	24		release __MRMutex
15	9105	25	#line 9105 "C:\Users\Lucas\Desktop\UnB\Droid\sekksi2016\executivo\Executivo_MAIN_mark001.nxc"
15	192	25	#line 192 "C:\Users\Lucas\Desktop\UnB\Droid\sekksi2016\executivo\Executivo_MAIN_mark001.nxc"
15	192	25	#line 192 "C:\Users\Lucas\Desktop\UnB\Droid\sekksi2016\executivo\Executivo_MAIN_mark001.nxc"
15	193	25	#line 193 "C:\Users\Lucas\Desktop\UnB\Droid\sekksi2016\executivo\Executivo_MAIN_mark001.nxc"
15	194	25		mov __signed_stack_001ChecaParada, __ChecaParada_7qG2_leitura_7qG2_000
15	193	27	#line 193 "C:\Users\Lucas\Desktop\UnB\Droid\sekksi2016\executivo\Executivo_MAIN_mark001.nxc"
15	193	27	#line 193 "C:\Users\Lucas\Desktop\UnB\Droid\sekksi2016\executivo\Executivo_MAIN_mark001.nxc"
15	194	27		set __D0ChecaParada, 0
15	193	30	#line 193 "C:\Users\Lucas\Desktop\UnB\Droid\sekksi2016\executivo\Executivo_MAIN_mark001.nxc"
15	194	30		cmp 5, __D0ChecaParada, __signed_stack_001ChecaParada, __D0ChecaParada
15	194	34	#line 194 "C:\Users\Lucas\Desktop\UnB\Droid\sekksi2016\executivo\Executivo_MAIN_mark001.nxc"
15	195	34		brtst 4, __ASM_Label_699, __D0ChecaParada
15	194	37	#line 194 "C:\Users\Lucas\Desktop\UnB\Droid\sekksi2016\executivo\Executivo_MAIN_mark001.nxc"
15	195	37	#pragma macro 25
15	195	37		acquire __RemoteMutex
15	195	38		mov __SRSTmpBuf, __DCMessageWritePacket
15	195	40		replace __SRSTmpBuf, __SRSTmpBuf, __constVal2, __constVal2
15	195	45		replace __SRSTmpBuf, __SRSTmpBuf, __constVal3, __constVal5
15	195	50		mov __SRSTmpLongVal, __constVal5
15	195	52		flatten __SRSFlattenBuf, __SRSTmpLongVal
15	195	55		arrbuild __SRSSendBuf, __SRSTmpBuf, __SRSFlattenBuf
15	195	60		brcmp 0, __ConnWrite_Else0, __constVal1, __constVal4
15	195	64		acquire __CHSWMutex
15	195	65		sub __WFRRTmpByte, __constVal1, __constVal4
15	195	69		arrbuild __CHSWArgs.Buffer, __WFRRTmpByte, __SRSSendBuf
15	195	74		syscall 37, __CHSWArgs
15	195	77		mov __D0ChecaParada, __CHSWArgs.Status
15	195	80		release __CHSWMutex
15	195	81		jmp __ConnWrite_EndIf0
15	195	83		acquire __CBTWMutex
15	195	84		mov __CBTWArgs.Connection, __constVal1
15	195	86		mov __CBTWArgs.Buffer, __SRSSendBuf
15	195	88		syscall 29, __CBTWArgs
15	195	91		mov __D0ChecaParada, __CBTWArgs.Result
15	195	94		release __CBTWMutex
15	195	95		release __RemoteMutex
15	9123	96	#line 9123 "C:\Users\Lucas\Desktop\UnB\Droid\sekksi2016\executivo\Executivo_MAIN_mark001.nxc"
15	194	96	#line 194 "C:\Users\Lucas\Desktop\UnB\Droid\sekksi2016\executivo\Executivo_MAIN_mark001.nxc"
15	194	96	#line 194 "C:\Users\Lucas\Desktop\UnB\Droid\sekksi2016\executivo\Executivo_MAIN_mark001.nxc"
15	195	96	#line 195 "C:\Users\Lucas\Desktop\UnB\Droid\sekksi2016\executivo\Executivo_MAIN_mark001.nxc"
15	196	96		set __Wait_7qG2_ms_7qG2_000_inline_ChecaParada, 30
15	195	99	#line 195 "C:\Users\Lucas\Desktop\UnB\Droid\sekksi2016\executivo\Executivo_MAIN_mark001.nxc"
15	8869	99	#line 8869 "NXCDefs.h"
15	8870	99		waitv __Wait_7qG2_ms_7qG2_000_inline_ChecaParada
15	8869	101	#line 8869 "NXCDefs.h"
15	195	101	#line 195 "C:\Users\Lucas\Desktop\UnB\Droid\sekksi2016\executivo\Executivo_MAIN_mark001.nxc"
15	197	101	#line 197 "C:\Users\Lucas\Desktop\UnB\Droid\sekksi2016\executivo\Executivo_MAIN_mark001.nxc"
15	197	101	#line 197 "C:\Users\Lucas\Desktop\UnB\Droid\sekksi2016\executivo\Executivo_MAIN_mark001.nxc"
15	198	101		mov __signed_stack_001ChecaParada, __ChecaParada_7qG2_leitura_7qG2_000
15	197	103	#line 197 "C:\Users\Lucas\Desktop\UnB\Droid\sekksi2016\executivo\Executivo_MAIN_mark001.nxc"
15	197	103	#line 197 "C:\Users\Lucas\Desktop\UnB\Droid\sekksi2016\executivo\Executivo_MAIN_mark001.nxc"
15	198	103		set __D0ChecaParada, 1
15	197	106	#line 197 "C:\Users\Lucas\Desktop\UnB\Droid\sekksi2016\executivo\Executivo_MAIN_mark001.nxc"
15	198	106		cmp 4, __D0ChecaParada, __signed_stack_001ChecaParada, __D0ChecaParada
15	198	110	#line 198 "C:\Users\Lucas\Desktop\UnB\Droid\sekksi2016\executivo\Executivo_MAIN_mark001.nxc"
15	199	110		brtst 4, __ASM_Label_704, __D0ChecaParada
15	198	113	#line 198 "C:\Users\Lucas\Desktop\UnB\Droid\sekksi2016\executivo\Executivo_MAIN_mark001.nxc"
15	199	113		subcall Bip, __Bip_return
15	198	115	#line 198 "C:\Users\Lucas\Desktop\UnB\Droid\sekksi2016\executivo\Executivo_MAIN_mark001.nxc"
15	200	115	#line 200 "C:\Users\Lucas\Desktop\UnB\Droid\sekksi2016\executivo\Executivo_MAIN_mark001.nxc"
15	201	115		subcall LeUSFRENTE, __LeUSFRENTE_return
15	200	117	#line 200 "C:\Users\Lucas\Desktop\UnB\Droid\sekksi2016\executivo\Executivo_MAIN_mark001.nxc"
15	201	117	#line 201 "C:\Users\Lucas\Desktop\UnB\Droid\sekksi2016\executivo\Executivo_MAIN_mark001.nxc"
15	202	117		jmp __ASM_Label_705
15	201	119	#line 201 "C:\Users\Lucas\Desktop\UnB\Droid\sekksi2016\executivo\Executivo_MAIN_mark001.nxc"
15	202	119		mov __signed_stack_001ChecaParada, __ChecaParada_7qG2_leitura_7qG2_000
15	201	121	#line 201 "C:\Users\Lucas\Desktop\UnB\Droid\sekksi2016\executivo\Executivo_MAIN_mark001.nxc"
15	201	121	#line 201 "C:\Users\Lucas\Desktop\UnB\Droid\sekksi2016\executivo\Executivo_MAIN_mark001.nxc"
15	202	121		set __D0ChecaParada, 2
15	201	124	#line 201 "C:\Users\Lucas\Desktop\UnB\Droid\sekksi2016\executivo\Executivo_MAIN_mark001.nxc"
15	202	124		cmp 4, __D0ChecaParada, __signed_stack_001ChecaParada, __D0ChecaParada
15	202	128	#line 202 "C:\Users\Lucas\Desktop\UnB\Droid\sekksi2016\executivo\Executivo_MAIN_mark001.nxc"
15	203	128		brtst 4, __ASM_Label_708, __D0ChecaParada
15	202	131	#line 202 "C:\Users\Lucas\Desktop\UnB\Droid\sekksi2016\executivo\Executivo_MAIN_mark001.nxc"
15	203	131		subcall LeGARRA, __LeGARRA_return
15	202	133	#line 202 "C:\Users\Lucas\Desktop\UnB\Droid\sekksi2016\executivo\Executivo_MAIN_mark001.nxc"
15	206	133	#line 206 "C:\Users\Lucas\Desktop\UnB\Droid\sekksi2016\executivo\Executivo_MAIN_mark001.nxc"
15	206	133	#line 206 "C:\Users\Lucas\Desktop\UnB\Droid\sekksi2016\executivo\Executivo_MAIN_mark001.nxc"
15	206	133	#line 206 "C:\Users\Lucas\Desktop\UnB\Droid\sekksi2016\executivo\Executivo_MAIN_mark001.nxc"
15	207	133		subret __ChecaParada_return
16	207	0	#line 207 "C:\Users\Lucas\Desktop\UnB\Droid\sekksi2016\executivo\Executivo_MAIN_mark001.nxc"
16	208	0		subcall Para, __Para_return
16	207	2	#line 207 "C:\Users\Lucas\Desktop\UnB\Droid\sekksi2016\executivo\Executivo_MAIN_mark001.nxc"
16	208	2	#line 208 "C:\Users\Lucas\Desktop\UnB\Droid\sekksi2016\executivo\Executivo_MAIN_mark001.nxc"
16	209	2		set __vira_7qG2_angulo_7qG2_000, 90
16	208	5	#line 208 "C:\Users\Lucas\Desktop\UnB\Droid\sekksi2016\executivo\Executivo_MAIN_mark001.nxc"
16	208	5	#line 208 "C:\Users\Lucas\Desktop\UnB\Droid\sekksi2016\executivo\Executivo_MAIN_mark001.nxc"
16	209	5		set __vira_7qG2_direcao_7qG2_000, 2
16	208	8	#line 208 "C:\Users\Lucas\Desktop\UnB\Droid\sekksi2016\executivo\Executivo_MAIN_mark001.nxc"
16	208	8	#line 208 "C:\Users\Lucas\Desktop\UnB\Droid\sekksi2016\executivo\Executivo_MAIN_mark001.nxc"
16	209	8		subcall vira, __vira_return
16	208	10	#line 208 "C:\Users\Lucas\Desktop\UnB\Droid\sekksi2016\executivo\Executivo_MAIN_mark001.nxc"
16	211	10	#line 211 "C:\Users\Lucas\Desktop\UnB\Droid\sekksi2016\executivo\Executivo_MAIN_mark001.nxc"
16	212	10		subret __LeUSFRENTE_return
17	212	0	#line 212 "C:\Users\Lucas\Desktop\UnB\Droid\sekksi2016\executivo\Executivo_MAIN_mark001.nxc"
17	213	0		set __LeGARRA_7qG2_verifica_7qG2_000, 0
17	212	3	#line 212 "C:\Users\Lucas\Desktop\UnB\Droid\sekksi2016\executivo\Executivo_MAIN_mark001.nxc"
17	212	3	#line 212 "C:\Users\Lucas\Desktop\UnB\Droid\sekksi2016\executivo\Executivo_MAIN_mark001.nxc"
17	213	3		set __LeGARRA_7qG2_continua_7qG2_000, 0
17	212	6	#line 212 "C:\Users\Lucas\Desktop\UnB\Droid\sekksi2016\executivo\Executivo_MAIN_mark001.nxc"
17	215	6	#line 215 "C:\Users\Lucas\Desktop\UnB\Droid\sekksi2016\executivo\Executivo_MAIN_mark001.nxc"
17	216	6		subcall Para, __Para_return
17	215	8	#line 215 "C:\Users\Lucas\Desktop\UnB\Droid\sekksi2016\executivo\Executivo_MAIN_mark001.nxc"
17	216	8	#line 216 "C:\Users\Lucas\Desktop\UnB\Droid\sekksi2016\executivo\Executivo_MAIN_mark001.nxc"
17	217	8	#pragma macro 25
17	217	8		acquire __RemoteMutex
17	217	9		mov __SRSTmpBuf, __DCMessageWritePacket
17	217	11		replace __SRSTmpBuf, __SRSTmpBuf, __constVal2, __constVal2
17	217	16		replace __SRSTmpBuf, __SRSTmpBuf, __constVal3, __constVal5
17	217	21		mov __SRSTmpLongVal, __constVal10
17	217	23		flatten __SRSFlattenBuf, __SRSTmpLongVal
17	217	26		arrbuild __SRSSendBuf, __SRSTmpBuf, __SRSFlattenBuf
17	217	31		brcmp 0, __ConnWrite_Else0, __constVal1, __constVal4
17	217	35		acquire __CHSWMutex
17	217	36		sub __WFRRTmpByte, __constVal1, __constVal4
17	217	40		arrbuild __CHSWArgs.Buffer, __WFRRTmpByte, __SRSSendBuf
17	217	45		syscall 37, __CHSWArgs
17	217	48		mov __D0LeGARRA, __CHSWArgs.Status
17	217	51		release __CHSWMutex
17	217	52		jmp __ConnWrite_EndIf0
17	217	54		acquire __CBTWMutex
17	217	55		mov __CBTWArgs.Connection, __constVal1
17	217	57		mov __CBTWArgs.Buffer, __SRSSendBuf
17	217	59		syscall 29, __CBTWArgs
17	217	62		mov __D0LeGARRA, __CBTWArgs.Result
17	217	65		release __CBTWMutex
17	217	66		release __RemoteMutex
17	9229	67	#line 9229 "C:\Users\Lucas\Desktop\UnB\Droid\sekksi2016\executivo\Executivo_MAIN_mark001.nxc"
17	216	67	#line 216 "C:\Users\Lucas\Desktop\UnB\Droid\sekksi2016\executivo\Executivo_MAIN_mark001.nxc"
17	216	67	#line 216 "C:\Users\Lucas\Desktop\UnB\Droid\sekksi2016\executivo\Executivo_MAIN_mark001.nxc"
17	217	67	#line 217 "C:\Users\Lucas\Desktop\UnB\Droid\sekksi2016\executivo\Executivo_MAIN_mark001.nxc"
17	218	67	#pragma macro 9
17	218	67		acquire __MRMutex
17	218	68		mov __MRArgs.QueueID, __constVal1
17	218	70		mov __MRArgs.Remove, __constVal1
17	218	72		set __RRNTmpVal, 0
17	218	75		syscall 27, __MRArgs
17	218	78		unflatten __RRNTmpVal, __RRNErr, __MRArgs.Message, __RRNTmpVal
17	218	83		mov __LeGARRA_7qG2_verifica_7qG2_000, __RRNTmpVal
17	218	85		mov __D0LeGARRA, __MRArgs.Result
17	218	88		release __MRMutex
17	9233	89	#line 9233 "C:\Users\Lucas\Desktop\UnB\Droid\sekksi2016\executivo\Executivo_MAIN_mark001.nxc"
17	217	89	#line 217 "C:\Users\Lucas\Desktop\UnB\Droid\sekksi2016\executivo\Executivo_MAIN_mark001.nxc"
17	217	89	#line 217 "C:\Users\Lucas\Desktop\UnB\Droid\sekksi2016\executivo\Executivo_MAIN_mark001.nxc"
17	218	89	#line 218 "C:\Users\Lucas\Desktop\UnB\Droid\sekksi2016\executivo\Executivo_MAIN_mark001.nxc"
17	219	89		set __Wait_7qG2_ms_7qG2_000_inline_LeGARRA, 30
17	218	92	#line 218 "C:\Users\Lucas\Desktop\UnB\Droid\sekksi2016\executivo\Executivo_MAIN_mark001.nxc"
17	8869	92	#line 8869 "NXCDefs.h"
17	8870	92		waitv __Wait_7qG2_ms_7qG2_000_inline_LeGARRA
17	8869	94	#line 8869 "NXCDefs.h"
17	218	94	#line 218 "C:\Users\Lucas\Desktop\UnB\Droid\sekksi2016\executivo\Executivo_MAIN_mark001.nxc"
17	219	94	#line 219 "C:\Users\Lucas\Desktop\UnB\Droid\sekksi2016\executivo\Executivo_MAIN_mark001.nxc"
17	220	94		mov __signed_stack_001LeGARRA, __LeGARRA_7qG2_verifica_7qG2_000
17	219	96	#line 219 "C:\Users\Lucas\Desktop\UnB\Droid\sekksi2016\executivo\Executivo_MAIN_mark001.nxc"
17	219	96	#line 219 "C:\Users\Lucas\Desktop\UnB\Droid\sekksi2016\executivo\Executivo_MAIN_mark001.nxc"
17	220	96		set __D0LeGARRA, 9
17	219	99	#line 219 "C:\Users\Lucas\Desktop\UnB\Droid\sekksi2016\executivo\Executivo_MAIN_mark001.nxc"
17	220	99		cmp 5, __D0LeGARRA, __signed_stack_001LeGARRA, __D0LeGARRA
17	219	103	#line 219 "C:\Users\Lucas\Desktop\UnB\Droid\sekksi2016\executivo\Executivo_MAIN_mark001.nxc"
17	220	103		brtst 5, __ASM_Label_721, __D0LeGARRA
17	219	106	#line 219 "C:\Users\Lucas\Desktop\UnB\Droid\sekksi2016\executivo\Executivo_MAIN_mark001.nxc"
17	220	106		mov __signed_stack_001LeGARRA, __LeGARRA_7qG2_verifica_7qG2_000
17	219	108	#line 219 "C:\Users\Lucas\Desktop\UnB\Droid\sekksi2016\executivo\Executivo_MAIN_mark001.nxc"
17	219	108	#line 219 "C:\Users\Lucas\Desktop\UnB\Droid\sekksi2016\executivo\Executivo_MAIN_mark001.nxc"
17	220	108		set __D0LeGARRA, 11
17	219	111	#line 219 "C:\Users\Lucas\Desktop\UnB\Droid\sekksi2016\executivo\Executivo_MAIN_mark001.nxc"
17	220	111		cmp 5, __D0LeGARRA, __signed_stack_001LeGARRA, __D0LeGARRA
17	219	115	#line 219 "C:\Users\Lucas\Desktop\UnB\Droid\sekksi2016\executivo\Executivo_MAIN_mark001.nxc"
17	220	115		brtst 4, __ASM_Label_718, __D0LeGARRA
17	219	118	#line 219 "C:\Users\Lucas\Desktop\UnB\Droid\sekksi2016\executivo\Executivo_MAIN_mark001.nxc"
17	220	118		jmp __ASM_Label_717
17	219	120	#line 219 "C:\Users\Lucas\Desktop\UnB\Droid\sekksi2016\executivo\Executivo_MAIN_mark001.nxc"
17	219	120	#line 219 "C:\Users\Lucas\Desktop\UnB\Droid\sekksi2016\executivo\Executivo_MAIN_mark001.nxc"
17	221	120	#line 221 "C:\Users\Lucas\Desktop\UnB\Droid\sekksi2016\executivo\Executivo_MAIN_mark001.nxc"
17	222	120		mov __signed_stack_001LeGARRA, __LeGARRA_7qG2_verifica_7qG2_000
17	221	122	#line 221 "C:\Users\Lucas\Desktop\UnB\Droid\sekksi2016\executivo\Executivo_MAIN_mark001.nxc"
17	221	122	#line 221 "C:\Users\Lucas\Desktop\UnB\Droid\sekksi2016\executivo\Executivo_MAIN_mark001.nxc"
17	222	122		set __D0LeGARRA, 9
17	221	125	#line 221 "C:\Users\Lucas\Desktop\UnB\Droid\sekksi2016\executivo\Executivo_MAIN_mark001.nxc"
17	222	125		cmp 4, __D0LeGARRA, __signed_stack_001LeGARRA, __D0LeGARRA
17	223	129	#line 223 "C:\Users\Lucas\Desktop\UnB\Droid\sekksi2016\executivo\Executivo_MAIN_mark001.nxc"
17	224	129		brtst 4, __ASM_Label_730, __D0LeGARRA
17	223	132	#line 223 "C:\Users\Lucas\Desktop\UnB\Droid\sekksi2016\executivo\Executivo_MAIN_mark001.nxc"
17	224	132		set __vira_7qG2_angulo_7qG2_000, 90
17	223	135	#line 223 "C:\Users\Lucas\Desktop\UnB\Droid\sekksi2016\executivo\Executivo_MAIN_mark001.nxc"
17	223	135	#line 223 "C:\Users\Lucas\Desktop\UnB\Droid\sekksi2016\executivo\Executivo_MAIN_mark001.nxc"
17	224	135		set __vira_7qG2_direcao_7qG2_000, 2
17	223	138	#line 223 "C:\Users\Lucas\Desktop\UnB\Droid\sekksi2016\executivo\Executivo_MAIN_mark001.nxc"
17	223	138	#line 223 "C:\Users\Lucas\Desktop\UnB\Droid\sekksi2016\executivo\Executivo_MAIN_mark001.nxc"
17	224	138		subcall vira, __vira_return
17	223	140	#line 223 "C:\Users\Lucas\Desktop\UnB\Droid\sekksi2016\executivo\Executivo_MAIN_mark001.nxc"
17	226	140	#line 226 "C:\Users\Lucas\Desktop\UnB\Droid\sekksi2016\executivo\Executivo_MAIN_mark001.nxc"
17	227	140	#pragma macro 25
17	227	140		acquire __RemoteMutex
17	227	141		mov __SRSTmpBuf, __DCMessageWritePacket
17	227	143		replace __SRSTmpBuf, __SRSTmpBuf, __constVal2, __constVal2
17	227	148		replace __SRSTmpBuf, __SRSTmpBuf, __constVal3, __constVal5
17	227	153		mov __SRSTmpLongVal, __constVal7
17	227	155		flatten __SRSFlattenBuf, __SRSTmpLongVal
17	227	158		arrbuild __SRSSendBuf, __SRSTmpBuf, __SRSFlattenBuf
17	227	163		brcmp 0, __ConnWrite_Else1, __constVal1, __constVal4
17	227	167		acquire __CHSWMutex
17	227	168		sub __WFRRTmpByte, __constVal1, __constVal4
17	227	172		arrbuild __CHSWArgs.Buffer, __WFRRTmpByte, __SRSSendBuf
17	227	177		syscall 37, __CHSWArgs
17	227	180		mov __D0LeGARRA, __CHSWArgs.Status
17	227	183		release __CHSWMutex
17	227	184		jmp __ConnWrite_EndIf1
17	227	186		acquire __CBTWMutex
17	227	187		mov __CBTWArgs.Connection, __constVal1
17	227	189		mov __CBTWArgs.Buffer, __SRSSendBuf
17	227	191		syscall 29, __CBTWArgs
17	227	194		mov __D0LeGARRA, __CBTWArgs.Result
17	227	197		release __CBTWMutex
17	227	198		release __RemoteMutex
17	9311	199	#line 9311 "C:\Users\Lucas\Desktop\UnB\Droid\sekksi2016\executivo\Executivo_MAIN_mark001.nxc"
17	226	199	#line 226 "C:\Users\Lucas\Desktop\UnB\Droid\sekksi2016\executivo\Executivo_MAIN_mark001.nxc"
17	226	199	#line 226 "C:\Users\Lucas\Desktop\UnB\Droid\sekksi2016\executivo\Executivo_MAIN_mark001.nxc"
17	227	199	#line 227 "C:\Users\Lucas\Desktop\UnB\Droid\sekksi2016\executivo\Executivo_MAIN_mark001.nxc"
17	228	199	#pragma macro 9
17	228	199		acquire __MRMutex
17	228	200		mov __MRArgs.QueueID, __constVal1
17	228	202		mov __MRArgs.Remove, __constVal1
17	228	204		set __RRNTmpVal, 0
17	228	207		syscall 27, __MRArgs
17	228	210		unflatten __RRNTmpVal, __RRNErr, __MRArgs.Message, __RRNTmpVal
17	228	215		mov __LeGARRA_7qG2_verifica_7qG2_000, __RRNTmpVal
17	228	217		mov __D0LeGARRA, __MRArgs.Result
17	228	220		release __MRMutex
17	9315	221	#line 9315 "C:\Users\Lucas\Desktop\UnB\Droid\sekksi2016\executivo\Executivo_MAIN_mark001.nxc"
17	227	221	#line 227 "C:\Users\Lucas\Desktop\UnB\Droid\sekksi2016\executivo\Executivo_MAIN_mark001.nxc"
17	227	221	#line 227 "C:\Users\Lucas\Desktop\UnB\Droid\sekksi2016\executivo\Executivo_MAIN_mark001.nxc"
17	228	221	#line 228 "C:\Users\Lucas\Desktop\UnB\Droid\sekksi2016\executivo\Executivo_MAIN_mark001.nxc"
17	229	221		set __Wait_7qG2_ms_7qG2_000_inline_LeGARRA, 30
17	228	224	#line 228 "C:\Users\Lucas\Desktop\UnB\Droid\sekksi2016\executivo\Executivo_MAIN_mark001.nxc"
17	8869	224	#line 8869 "NXCDefs.h"
17	8870	224		waitv __Wait_7qG2_ms_7qG2_000_inline_LeGARRA
17	8869	226	#line 8869 "NXCDefs.h"
17	228	226	#line 228 "C:\Users\Lucas\Desktop\UnB\Droid\sekksi2016\executivo\Executivo_MAIN_mark001.nxc"
17	229	226	#line 229 "C:\Users\Lucas\Desktop\UnB\Droid\sekksi2016\executivo\Executivo_MAIN_mark001.nxc"
17	230	226		mov __signed_stack_001LeGARRA, __LeGARRA_7qG2_verifica_7qG2_000
17	229	228	#line 229 "C:\Users\Lucas\Desktop\UnB\Droid\sekksi2016\executivo\Executivo_MAIN_mark001.nxc"
17	229	228	#line 229 "C:\Users\Lucas\Desktop\UnB\Droid\sekksi2016\executivo\Executivo_MAIN_mark001.nxc"
17	230	228		set __D0LeGARRA, 7
17	229	231	#line 229 "C:\Users\Lucas\Desktop\UnB\Droid\sekksi2016\executivo\Executivo_MAIN_mark001.nxc"
17	230	231		cmp 5, __D0LeGARRA, __signed_stack_001LeGARRA, __D0LeGARRA
17	229	235	#line 229 "C:\Users\Lucas\Desktop\UnB\Droid\sekksi2016\executivo\Executivo_MAIN_mark001.nxc"
17	230	235		brtst 4, __ASM_Label_736, __D0LeGARRA
17	229	238	#line 229 "C:\Users\Lucas\Desktop\UnB\Droid\sekksi2016\executivo\Executivo_MAIN_mark001.nxc"
17	230	238		jmp __ASM_Label_735
17	229	240	#line 229 "C:\Users\Lucas\Desktop\UnB\Droid\sekksi2016\executivo\Executivo_MAIN_mark001.nxc"
17	229	240	#line 229 "C:\Users\Lucas\Desktop\UnB\Droid\sekksi2016\executivo\Executivo_MAIN_mark001.nxc"
17	232	240	#line 232 "C:\Users\Lucas\Desktop\UnB\Droid\sekksi2016\executivo\Executivo_MAIN_mark001.nxc"
17	233	240	#pragma macro 25
17	233	240		acquire __RemoteMutex
17	233	241		mov __SRSTmpBuf, __DCMessageWritePacket
17	233	243		replace __SRSTmpBuf, __SRSTmpBuf, __constVal2, __constVal2
17	233	248		replace __SRSTmpBuf, __SRSTmpBuf, __constVal3, __constVal5
17	233	253		mov __SRSTmpLongVal, __constVal0
17	233	255		flatten __SRSFlattenBuf, __SRSTmpLongVal
17	233	258		arrbuild __SRSSendBuf, __SRSTmpBuf, __SRSFlattenBuf
17	233	263		brcmp 0, __ConnWrite_Else2, __constVal1, __constVal4
17	233	267		acquire __CHSWMutex
17	233	268		sub __WFRRTmpByte, __constVal1, __constVal4
17	233	272		arrbuild __CHSWArgs.Buffer, __WFRRTmpByte, __SRSSendBuf
17	233	277		syscall 37, __CHSWArgs
17	233	280		mov __D0LeGARRA, __CHSWArgs.Status
17	233	283		release __CHSWMutex
17	233	284		jmp __ConnWrite_EndIf2
17	233	286		acquire __CBTWMutex
17	233	287		mov __CBTWArgs.Connection, __constVal1
17	233	289		mov __CBTWArgs.Buffer, __SRSSendBuf
17	233	291		syscall 29, __CBTWArgs
17	233	294		mov __D0LeGARRA, __CBTWArgs.Result
17	233	297		release __CBTWMutex
17	233	298		release __RemoteMutex
17	9347	299	#line 9347 "C:\Users\Lucas\Desktop\UnB\Droid\sekksi2016\executivo\Executivo_MAIN_mark001.nxc"
17	232	299	#line 232 "C:\Users\Lucas\Desktop\UnB\Droid\sekksi2016\executivo\Executivo_MAIN_mark001.nxc"
17	232	299	#line 232 "C:\Users\Lucas\Desktop\UnB\Droid\sekksi2016\executivo\Executivo_MAIN_mark001.nxc"
17	233	299	#line 233 "C:\Users\Lucas\Desktop\UnB\Droid\sekksi2016\executivo\Executivo_MAIN_mark001.nxc"
17	234	299	#pragma macro 9
17	234	299		acquire __MRMutex
17	234	300		mov __MRArgs.QueueID, __constVal1
17	234	302		mov __MRArgs.Remove, __constVal1
17	234	304		set __RRNTmpVal, 0
17	234	307		syscall 27, __MRArgs
17	234	310		unflatten __RRNTmpVal, __RRNErr, __MRArgs.Message, __RRNTmpVal
17	234	315		mov __LeGARRA_7qG2_verifica_7qG2_000, __RRNTmpVal
17	234	317		mov __D0LeGARRA, __MRArgs.Result
17	234	320		release __MRMutex
17	9351	321	#line 9351 "C:\Users\Lucas\Desktop\UnB\Droid\sekksi2016\executivo\Executivo_MAIN_mark001.nxc"
17	233	321	#line 233 "C:\Users\Lucas\Desktop\UnB\Droid\sekksi2016\executivo\Executivo_MAIN_mark001.nxc"
17	233	321	#line 233 "C:\Users\Lucas\Desktop\UnB\Droid\sekksi2016\executivo\Executivo_MAIN_mark001.nxc"
17	234	321	#line 234 "C:\Users\Lucas\Desktop\UnB\Droid\sekksi2016\executivo\Executivo_MAIN_mark001.nxc"
17	235	321		set __Wait_7qG2_ms_7qG2_000_inline_LeGARRA, 30
17	234	324	#line 234 "C:\Users\Lucas\Desktop\UnB\Droid\sekksi2016\executivo\Executivo_MAIN_mark001.nxc"
17	8869	324	#line 8869 "NXCDefs.h"
17	8870	324		waitv __Wait_7qG2_ms_7qG2_000_inline_LeGARRA
17	8869	326	#line 8869 "NXCDefs.h"
17	234	326	#line 234 "C:\Users\Lucas\Desktop\UnB\Droid\sekksi2016\executivo\Executivo_MAIN_mark001.nxc"
17	235	326	#line 235 "C:\Users\Lucas\Desktop\UnB\Droid\sekksi2016\executivo\Executivo_MAIN_mark001.nxc"
17	236	326		mov __signed_stack_001LeGARRA, __LeGARRA_7qG2_verifica_7qG2_000
17	235	328	#line 235 "C:\Users\Lucas\Desktop\UnB\Droid\sekksi2016\executivo\Executivo_MAIN_mark001.nxc"
17	235	328	#line 235 "C:\Users\Lucas\Desktop\UnB\Droid\sekksi2016\executivo\Executivo_MAIN_mark001.nxc"
17	236	328		set __D0LeGARRA, 0
17	235	331	#line 235 "C:\Users\Lucas\Desktop\UnB\Droid\sekksi2016\executivo\Executivo_MAIN_mark001.nxc"
17	236	331		cmp 5, __D0LeGARRA, __signed_stack_001LeGARRA, __D0LeGARRA
17	235	335	#line 235 "C:\Users\Lucas\Desktop\UnB\Droid\sekksi2016\executivo\Executivo_MAIN_mark001.nxc"
17	236	335		brtst 4, __ASM_Label_742, __D0LeGARRA
17	235	338	#line 235 "C:\Users\Lucas\Desktop\UnB\Droid\sekksi2016\executivo\Executivo_MAIN_mark001.nxc"
17	236	338		jmp __ASM_Label_741
17	235	340	#line 235 "C:\Users\Lucas\Desktop\UnB\Droid\sekksi2016\executivo\Executivo_MAIN_mark001.nxc"
17	235	340	#line 235 "C:\Users\Lucas\Desktop\UnB\Droid\sekksi2016\executivo\Executivo_MAIN_mark001.nxc"
17	237	340	#line 237 "C:\Users\Lucas\Desktop\UnB\Droid\sekksi2016\executivo\Executivo_MAIN_mark001.nxc"
17	238	340		set __vira_7qG2_angulo_7qG2_000, 90
17	237	343	#line 237 "C:\Users\Lucas\Desktop\UnB\Droid\sekksi2016\executivo\Executivo_MAIN_mark001.nxc"
17	237	343	#line 237 "C:\Users\Lucas\Desktop\UnB\Droid\sekksi2016\executivo\Executivo_MAIN_mark001.nxc"
17	238	343		set __vira_7qG2_direcao_7qG2_000, 1
17	237	346	#line 237 "C:\Users\Lucas\Desktop\UnB\Droid\sekksi2016\executivo\Executivo_MAIN_mark001.nxc"
17	237	346	#line 237 "C:\Users\Lucas\Desktop\UnB\Droid\sekksi2016\executivo\Executivo_MAIN_mark001.nxc"
17	238	346		subcall vira, __vira_return
17	237	348	#line 237 "C:\Users\Lucas\Desktop\UnB\Droid\sekksi2016\executivo\Executivo_MAIN_mark001.nxc"
17	240	348	#line 240 "C:\Users\Lucas\Desktop\UnB\Droid\sekksi2016\executivo\Executivo_MAIN_mark001.nxc"
17	241	348	#pragma macro 25
17	241	348		acquire __RemoteMutex
17	241	349		mov __SRSTmpBuf, __DCMessageWritePacket
17	241	351		replace __SRSTmpBuf, __SRSTmpBuf, __constVal2, __constVal2
17	241	356		replace __SRSTmpBuf, __SRSTmpBuf, __constVal3, __constVal5
17	241	361		mov __SRSTmpLongVal, __constVal8
17	241	363		flatten __SRSFlattenBuf, __SRSTmpLongVal
17	241	366		arrbuild __SRSSendBuf, __SRSTmpBuf, __SRSFlattenBuf
17	241	371		brcmp 0, __ConnWrite_Else3, __constVal1, __constVal4
17	241	375		acquire __CHSWMutex
17	241	376		sub __WFRRTmpByte, __constVal1, __constVal4
17	241	380		arrbuild __CHSWArgs.Buffer, __WFRRTmpByte, __SRSSendBuf
17	241	385		syscall 37, __CHSWArgs
17	241	388		mov __D0LeGARRA, __CHSWArgs.Status
17	241	391		release __CHSWMutex
17	241	392		jmp __ConnWrite_EndIf3
17	241	394		acquire __CBTWMutex
17	241	395		mov __CBTWArgs.Connection, __constVal1
17	241	397		mov __CBTWArgs.Buffer, __SRSSendBuf
17	241	399		syscall 29, __CBTWArgs
17	241	402		mov __D0LeGARRA, __CBTWArgs.Result
17	241	405		release __CBTWMutex
17	241	406		release __RemoteMutex
17	9394	407	#line 9394 "C:\Users\Lucas\Desktop\UnB\Droid\sekksi2016\executivo\Executivo_MAIN_mark001.nxc"
17	240	407	#line 240 "C:\Users\Lucas\Desktop\UnB\Droid\sekksi2016\executivo\Executivo_MAIN_mark001.nxc"
17	240	407	#line 240 "C:\Users\Lucas\Desktop\UnB\Droid\sekksi2016\executivo\Executivo_MAIN_mark001.nxc"
17	241	407	#line 241 "C:\Users\Lucas\Desktop\UnB\Droid\sekksi2016\executivo\Executivo_MAIN_mark001.nxc"
17	242	407	#pragma macro 9
17	242	407		acquire __MRMutex
17	242	408		mov __MRArgs.QueueID, __constVal1
17	242	410		mov __MRArgs.Remove, __constVal1
17	242	412		set __RRNTmpVal, 0
17	242	415		syscall 27, __MRArgs
17	242	418		unflatten __RRNTmpVal, __RRNErr, __MRArgs.Message, __RRNTmpVal
17	242	423		mov __LeGARRA_7qG2_verifica_7qG2_000, __RRNTmpVal
17	242	425		mov __D0LeGARRA, __MRArgs.Result
17	242	428		release __MRMutex
17	9398	429	#line 9398 "C:\Users\Lucas\Desktop\UnB\Droid\sekksi2016\executivo\Executivo_MAIN_mark001.nxc"
17	241	429	#line 241 "C:\Users\Lucas\Desktop\UnB\Droid\sekksi2016\executivo\Executivo_MAIN_mark001.nxc"
17	241	429	#line 241 "C:\Users\Lucas\Desktop\UnB\Droid\sekksi2016\executivo\Executivo_MAIN_mark001.nxc"
17	242	429	#line 242 "C:\Users\Lucas\Desktop\UnB\Droid\sekksi2016\executivo\Executivo_MAIN_mark001.nxc"
17	243	429		set __Wait_7qG2_ms_7qG2_000_inline_LeGARRA, 30
17	242	432	#line 242 "C:\Users\Lucas\Desktop\UnB\Droid\sekksi2016\executivo\Executivo_MAIN_mark001.nxc"
17	8869	432	#line 8869 "NXCDefs.h"
17	8870	432		waitv __Wait_7qG2_ms_7qG2_000_inline_LeGARRA
17	8869	434	#line 8869 "NXCDefs.h"
17	242	434	#line 242 "C:\Users\Lucas\Desktop\UnB\Droid\sekksi2016\executivo\Executivo_MAIN_mark001.nxc"
17	243	434	#line 243 "C:\Users\Lucas\Desktop\UnB\Droid\sekksi2016\executivo\Executivo_MAIN_mark001.nxc"
17	244	434		mov __signed_stack_001LeGARRA, __LeGARRA_7qG2_verifica_7qG2_000
17	243	436	#line 243 "C:\Users\Lucas\Desktop\UnB\Droid\sekksi2016\executivo\Executivo_MAIN_mark001.nxc"
17	243	436	#line 243 "C:\Users\Lucas\Desktop\UnB\Droid\sekksi2016\executivo\Executivo_MAIN_mark001.nxc"
17	244	436		set __D0LeGARRA, 8
17	243	439	#line 243 "C:\Users\Lucas\Desktop\UnB\Droid\sekksi2016\executivo\Executivo_MAIN_mark001.nxc"
17	244	439		cmp 5, __D0LeGARRA, __signed_stack_001LeGARRA, __D0LeGARRA
17	243	443	#line 243 "C:\Users\Lucas\Desktop\UnB\Droid\sekksi2016\executivo\Executivo_MAIN_mark001.nxc"
17	244	443		brtst 4, __ASM_Label_752, __D0LeGARRA
17	243	446	#line 243 "C:\Users\Lucas\Desktop\UnB\Droid\sekksi2016\executivo\Executivo_MAIN_mark001.nxc"
17	244	446		jmp __ASM_Label_751
17	243	448	#line 243 "C:\Users\Lucas\Desktop\UnB\Droid\sekksi2016\executivo\Executivo_MAIN_mark001.nxc"
17	243	448	#line 243 "C:\Users\Lucas\Desktop\UnB\Droid\sekksi2016\executivo\Executivo_MAIN_mark001.nxc"
17	244	448	#line 244 "C:\Users\Lucas\Desktop\UnB\Droid\sekksi2016\executivo\Executivo_MAIN_mark001.nxc"
17	245	448		jmp __ASM_Label_757
17	244	450	#line 244 "C:\Users\Lucas\Desktop\UnB\Droid\sekksi2016\executivo\Executivo_MAIN_mark001.nxc"
17	245	450		mov __signed_stack_001LeGARRA, __LeGARRA_7qG2_verifica_7qG2_000
17	244	452	#line 244 "C:\Users\Lucas\Desktop\UnB\Droid\sekksi2016\executivo\Executivo_MAIN_mark001.nxc"
17	244	452	#line 244 "C:\Users\Lucas\Desktop\UnB\Droid\sekksi2016\executivo\Executivo_MAIN_mark001.nxc"
17	245	452		set __D0LeGARRA, 11
17	244	455	#line 244 "C:\Users\Lucas\Desktop\UnB\Droid\sekksi2016\executivo\Executivo_MAIN_mark001.nxc"
17	245	455		cmp 4, __D0LeGARRA, __signed_stack_001LeGARRA, __D0LeGARRA
17	245	459	#line 245 "C:\Users\Lucas\Desktop\UnB\Droid\sekksi2016\executivo\Executivo_MAIN_mark001.nxc"
17	246	459		brtst 4, __ASM_Label_760, __D0LeGARRA
17	246	462	#line 246 "C:\Users\Lucas\Desktop\UnB\Droid\sekksi2016\executivo\Executivo_MAIN_mark001.nxc"
17	247	462	#pragma macro 25
17	247	462		acquire __RemoteMutex
17	247	463		mov __SRSTmpBuf, __DCMessageWritePacket
17	247	465		replace __SRSTmpBuf, __SRSTmpBuf, __constVal2, __constVal2
17	247	470		replace __SRSTmpBuf, __SRSTmpBuf, __constVal3, __constVal5
17	247	475		mov __SRSTmpLongVal, __constVal0
17	247	477		flatten __SRSFlattenBuf, __SRSTmpLongVal
17	247	480		arrbuild __SRSSendBuf, __SRSTmpBuf, __SRSFlattenBuf
17	247	485		brcmp 0, __ConnWrite_Else4, __constVal1, __constVal4
17	247	489		acquire __CHSWMutex
17	247	490		sub __WFRRTmpByte, __constVal1, __constVal4
17	247	494		arrbuild __CHSWArgs.Buffer, __WFRRTmpByte, __SRSSendBuf
17	247	499		syscall 37, __CHSWArgs
17	247	502		mov __D0LeGARRA, __CHSWArgs.Status
17	247	505		release __CHSWMutex
17	247	506		jmp __ConnWrite_EndIf4
17	247	508		acquire __CBTWMutex
17	247	509		mov __CBTWArgs.Connection, __constVal1
17	247	511		mov __CBTWArgs.Buffer, __SRSSendBuf
17	247	513		syscall 29, __CBTWArgs
17	247	516		mov __D0LeGARRA, __CBTWArgs.Result
17	247	519		release __CBTWMutex
17	247	520		release __RemoteMutex
17	9447	521	#line 9447 "C:\Users\Lucas\Desktop\UnB\Droid\sekksi2016\executivo\Executivo_MAIN_mark001.nxc"
17	246	521	#line 246 "C:\Users\Lucas\Desktop\UnB\Droid\sekksi2016\executivo\Executivo_MAIN_mark001.nxc"
17	246	521	#line 246 "C:\Users\Lucas\Desktop\UnB\Droid\sekksi2016\executivo\Executivo_MAIN_mark001.nxc"
17	247	521	#line 247 "C:\Users\Lucas\Desktop\UnB\Droid\sekksi2016\executivo\Executivo_MAIN_mark001.nxc"
17	248	521	#pragma macro 9
17	248	521		acquire __MRMutex
17	248	522		mov __MRArgs.QueueID, __constVal1
17	248	524		mov __MRArgs.Remove, __constVal1
17	248	526		set __RRNTmpVal, 0
17	248	529		syscall 27, __MRArgs
17	248	532		unflatten __RRNTmpVal, __RRNErr, __MRArgs.Message, __RRNTmpVal
17	248	537		mov __LeGARRA_7qG2_verifica_7qG2_000, __RRNTmpVal
17	248	539		mov __D0LeGARRA, __MRArgs.Result
17	248	542		release __MRMutex
17	9451	543	#line 9451 "C:\Users\Lucas\Desktop\UnB\Droid\sekksi2016\executivo\Executivo_MAIN_mark001.nxc"
17	247	543	#line 247 "C:\Users\Lucas\Desktop\UnB\Droid\sekksi2016\executivo\Executivo_MAIN_mark001.nxc"
17	247	543	#line 247 "C:\Users\Lucas\Desktop\UnB\Droid\sekksi2016\executivo\Executivo_MAIN_mark001.nxc"
17	248	543	#line 248 "C:\Users\Lucas\Desktop\UnB\Droid\sekksi2016\executivo\Executivo_MAIN_mark001.nxc"
17	249	543		set __Wait_7qG2_ms_7qG2_000_inline_LeGARRA, 30
17	248	546	#line 248 "C:\Users\Lucas\Desktop\UnB\Droid\sekksi2016\executivo\Executivo_MAIN_mark001.nxc"
17	8869	546	#line 8869 "NXCDefs.h"
17	8870	546		waitv __Wait_7qG2_ms_7qG2_000_inline_LeGARRA
17	8869	548	#line 8869 "NXCDefs.h"
17	248	548	#line 248 "C:\Users\Lucas\Desktop\UnB\Droid\sekksi2016\executivo\Executivo_MAIN_mark001.nxc"
17	249	548	#line 249 "C:\Users\Lucas\Desktop\UnB\Droid\sekksi2016\executivo\Executivo_MAIN_mark001.nxc"
17	250	548		mov __signed_stack_001LeGARRA, __LeGARRA_7qG2_verifica_7qG2_000
17	249	550	#line 249 "C:\Users\Lucas\Desktop\UnB\Droid\sekksi2016\executivo\Executivo_MAIN_mark001.nxc"
17	249	550	#line 249 "C:\Users\Lucas\Desktop\UnB\Droid\sekksi2016\executivo\Executivo_MAIN_mark001.nxc"
17	250	550		set __D0LeGARRA, 0
17	249	553	#line 249 "C:\Users\Lucas\Desktop\UnB\Droid\sekksi2016\executivo\Executivo_MAIN_mark001.nxc"
17	250	553		cmp 5, __D0LeGARRA, __signed_stack_001LeGARRA, __D0LeGARRA
17	249	557	#line 249 "C:\Users\Lucas\Desktop\UnB\Droid\sekksi2016\executivo\Executivo_MAIN_mark001.nxc"
17	250	557		brtst 4, __ASM_Label_762, __D0LeGARRA
17	249	560	#line 249 "C:\Users\Lucas\Desktop\UnB\Droid\sekksi2016\executivo\Executivo_MAIN_mark001.nxc"
17	250	560		jmp __ASM_Label_761
17	249	562	#line 249 "C:\Users\Lucas\Desktop\UnB\Droid\sekksi2016\executivo\Executivo_MAIN_mark001.nxc"
17	249	562	#line 249 "C:\Users\Lucas\Desktop\UnB\Droid\sekksi2016\executivo\Executivo_MAIN_mark001.nxc"
17	253	562	#line 253 "C:\Users\Lucas\Desktop\UnB\Droid\sekksi2016\executivo\Executivo_MAIN_mark001.nxc"
17	253	562	#line 253 "C:\Users\Lucas\Desktop\UnB\Droid\sekksi2016\executivo\Executivo_MAIN_mark001.nxc"
17	254	562	#line 254 "C:\Users\Lucas\Desktop\UnB\Droid\sekksi2016\executivo\Executivo_MAIN_mark001.nxc"
17	255	562	#pragma macro 25
17	255	562		acquire __RemoteMutex
17	255	563		mov __SRSTmpBuf, __DCMessageWritePacket
17	255	565		replace __SRSTmpBuf, __SRSTmpBuf, __constVal2, __constVal2
17	255	570		replace __SRSTmpBuf, __SRSTmpBuf, __constVal3, __constVal5
17	255	575		mov __SRSTmpLongVal, __constVal0
17	255	577		flatten __SRSFlattenBuf, __SRSTmpLongVal
17	255	580		arrbuild __SRSSendBuf, __SRSTmpBuf, __SRSFlattenBuf
17	255	585		brcmp 0, __ConnWrite_Else5, __constVal1, __constVal4
17	255	589		acquire __CHSWMutex
17	255	590		sub __WFRRTmpByte, __constVal1, __constVal4
17	255	594		arrbuild __CHSWArgs.Buffer, __WFRRTmpByte, __SRSSendBuf
17	255	599		syscall 37, __CHSWArgs
17	255	602		mov __D0LeGARRA, __CHSWArgs.Status
17	255	605		release __CHSWMutex
17	255	606		jmp __ConnWrite_EndIf5
17	255	608		acquire __CBTWMutex
17	255	609		mov __CBTWArgs.Connection, __constVal1
17	255	611		mov __CBTWArgs.Buffer, __SRSSendBuf
17	255	613		syscall 29, __CBTWArgs
17	255	616		mov __D0LeGARRA, __CBTWArgs.Result
17	255	619		release __CBTWMutex
17	255	620		release __RemoteMutex
17	9487	621	#line 9487 "C:\Users\Lucas\Desktop\UnB\Droid\sekksi2016\executivo\Executivo_MAIN_mark001.nxc"
17	254	621	#line 254 "C:\Users\Lucas\Desktop\UnB\Droid\sekksi2016\executivo\Executivo_MAIN_mark001.nxc"
17	254	621	#line 254 "C:\Users\Lucas\Desktop\UnB\Droid\sekksi2016\executivo\Executivo_MAIN_mark001.nxc"
17	255	621	#line 255 "C:\Users\Lucas\Desktop\UnB\Droid\sekksi2016\executivo\Executivo_MAIN_mark001.nxc"
17	256	621	#pragma macro 9
17	256	621		acquire __MRMutex
17	256	622		mov __MRArgs.QueueID, __constVal1
17	256	624		mov __MRArgs.Remove, __constVal1
17	256	626		set __RRNTmpVal, 0
17	256	629		syscall 27, __MRArgs
17	256	632		unflatten __RRNTmpVal, __RRNErr, __MRArgs.Message, __RRNTmpVal
17	256	637		mov __LeGARRA_7qG2_continua_7qG2_000, __RRNTmpVal
17	256	639		mov __D0LeGARRA, __MRArgs.Result
17	256	642		release __MRMutex
17	9491	643	#line 9491 "C:\Users\Lucas\Desktop\UnB\Droid\sekksi2016\executivo\Executivo_MAIN_mark001.nxc"
17	255	643	#line 255 "C:\Users\Lucas\Desktop\UnB\Droid\sekksi2016\executivo\Executivo_MAIN_mark001.nxc"
17	255	643	#line 255 "C:\Users\Lucas\Desktop\UnB\Droid\sekksi2016\executivo\Executivo_MAIN_mark001.nxc"
17	256	643	#line 256 "C:\Users\Lucas\Desktop\UnB\Droid\sekksi2016\executivo\Executivo_MAIN_mark001.nxc"
17	257	643		set __Wait_7qG2_ms_7qG2_000_inline_LeGARRA, 30
17	256	646	#line 256 "C:\Users\Lucas\Desktop\UnB\Droid\sekksi2016\executivo\Executivo_MAIN_mark001.nxc"
17	8869	646	#line 8869 "NXCDefs.h"
17	8870	646		waitv __Wait_7qG2_ms_7qG2_000_inline_LeGARRA
17	8869	648	#line 8869 "NXCDefs.h"
17	256	648	#line 256 "C:\Users\Lucas\Desktop\UnB\Droid\sekksi2016\executivo\Executivo_MAIN_mark001.nxc"
17	257	648	#line 257 "C:\Users\Lucas\Desktop\UnB\Droid\sekksi2016\executivo\Executivo_MAIN_mark001.nxc"
17	258	648		mov __signed_stack_001LeGARRA, __LeGARRA_7qG2_continua_7qG2_000
17	257	650	#line 257 "C:\Users\Lucas\Desktop\UnB\Droid\sekksi2016\executivo\Executivo_MAIN_mark001.nxc"
17	257	650	#line 257 "C:\Users\Lucas\Desktop\UnB\Droid\sekksi2016\executivo\Executivo_MAIN_mark001.nxc"
17	258	650		set __D0LeGARRA, 6
17	257	653	#line 257 "C:\Users\Lucas\Desktop\UnB\Droid\sekksi2016\executivo\Executivo_MAIN_mark001.nxc"
17	258	653		cmp 5, __D0LeGARRA, __signed_stack_001LeGARRA, __D0LeGARRA
17	257	657	#line 257 "C:\Users\Lucas\Desktop\UnB\Droid\sekksi2016\executivo\Executivo_MAIN_mark001.nxc"
17	258	657		brtst 4, __ASM_Label_768, __D0LeGARRA
17	257	660	#line 257 "C:\Users\Lucas\Desktop\UnB\Droid\sekksi2016\executivo\Executivo_MAIN_mark001.nxc"
17	258	660		jmp __ASM_Label_767
17	257	662	#line 257 "C:\Users\Lucas\Desktop\UnB\Droid\sekksi2016\executivo\Executivo_MAIN_mark001.nxc"
17	257	662	#line 257 "C:\Users\Lucas\Desktop\UnB\Droid\sekksi2016\executivo\Executivo_MAIN_mark001.nxc"
17	262	662	#line 262 "C:\Users\Lucas\Desktop\UnB\Droid\sekksi2016\executivo\Executivo_MAIN_mark001.nxc"
17	263	662		subret __LeGARRA_return
18	317	0	#line 317 "C:\Users\Lucas\Desktop\UnB\Droid\sekksi2016\executivo\Executivo_MAIN_mark001.nxc"
18	318	0		set my_tc_d, 0
18	317	3	#line 317 "C:\Users\Lucas\Desktop\UnB\Droid\sekksi2016\executivo\Executivo_MAIN_mark001.nxc"
18	317	3	#line 317 "C:\Users\Lucas\Desktop\UnB\Droid\sekksi2016\executivo\Executivo_MAIN_mark001.nxc"
18	318	3	#line 318 "C:\Users\Lucas\Desktop\UnB\Droid\sekksi2016\executivo\Executivo_MAIN_mark001.nxc"
18	319	3		set my_tc_e, 0
18	318	6	#line 318 "C:\Users\Lucas\Desktop\UnB\Droid\sekksi2016\executivo\Executivo_MAIN_mark001.nxc"
18	318	6	#line 318 "C:\Users\Lucas\Desktop\UnB\Droid\sekksi2016\executivo\Executivo_MAIN_mark001.nxc"
18	320	6	#line 320 "C:\Users\Lucas\Desktop\UnB\Droid\sekksi2016\executivo\Executivo_MAIN_mark001.nxc"
18	320	6	#line 320 "C:\Users\Lucas\Desktop\UnB\Droid\sekksi2016\executivo\Executivo_MAIN_mark001.nxc"
18	320	6	#line 320 "C:\Users\Lucas\Desktop\UnB\Droid\sekksi2016\executivo\Executivo_MAIN_mark001.nxc"
18	320	6	#line 320 "C:\Users\Lucas\Desktop\UnB\Droid\sekksi2016\executivo\Executivo_MAIN_mark001.nxc"
18	321	6		add __signed_stack_001andaRetoDireita, my_tc_d, my_tc_e
18	320	10	#line 320 "C:\Users\Lucas\Desktop\UnB\Droid\sekksi2016\executivo\Executivo_MAIN_mark001.nxc"
18	320	10	#line 320 "C:\Users\Lucas\Desktop\UnB\Droid\sekksi2016\executivo\Executivo_MAIN_mark001.nxc"
18	321	10		set __D0andaRetoDireita, 2
18	320	13	#line 320 "C:\Users\Lucas\Desktop\UnB\Droid\sekksi2016\executivo\Executivo_MAIN_mark001.nxc"
18	321	13		div __distanciaTachoCount_7qG2_grau_7qG2_000, __signed_stack_001andaRetoDireita, __D0andaRetoDireita
18	320	17	#line 320 "C:\Users\Lucas\Desktop\UnB\Droid\sekksi2016\executivo\Executivo_MAIN_mark001.nxc"
18	320	17	#line 320 "C:\Users\Lucas\Desktop\UnB\Droid\sekksi2016\executivo\Executivo_MAIN_mark001.nxc"
18	321	17		subcall distanciaTachoCount, __distanciaTachoCount_return
18	320	19	#line 320 "C:\Users\Lucas\Desktop\UnB\Droid\sekksi2016\executivo\Executivo_MAIN_mark001.nxc"
18	321	19		mov __signed_stack_001andaRetoDireita, __D0distanciaTachoCount
18	320	21	#line 320 "C:\Users\Lucas\Desktop\UnB\Droid\sekksi2016\executivo\Executivo_MAIN_mark001.nxc"
18	320	21	#line 320 "C:\Users\Lucas\Desktop\UnB\Droid\sekksi2016\executivo\Executivo_MAIN_mark001.nxc"
18	321	21		mov __signed_stack_002andaRetoDireita, __andaRetoDireita_7qG2_distAndar_7qG2_000
18	320	23	#line 320 "C:\Users\Lucas\Desktop\UnB\Droid\sekksi2016\executivo\Executivo_MAIN_mark001.nxc"
18	320	23	#line 320 "C:\Users\Lucas\Desktop\UnB\Droid\sekksi2016\executivo\Executivo_MAIN_mark001.nxc"
18	321	23		set __D0andaRetoDireita, 100
18	320	26	#line 320 "C:\Users\Lucas\Desktop\UnB\Droid\sekksi2016\executivo\Executivo_MAIN_mark001.nxc"
18	321	26		mul __D0andaRetoDireita, __signed_stack_002andaRetoDireita, __D0andaRetoDireita
18	320	30	#line 320 "C:\Users\Lucas\Desktop\UnB\Droid\sekksi2016\executivo\Executivo_MAIN_mark001.nxc"
18	321	30		cmp 0, __D0andaRetoDireita, __signed_stack_001andaRetoDireita, __D0andaRetoDireita
18	321	34	#line 321 "C:\Users\Lucas\Desktop\UnB\Droid\sekksi2016\executivo\Executivo_MAIN_mark001.nxc"
18	322	34		brtst 4, __ASM_Label_850, __D0andaRetoDireita
18	321	37	#line 321 "C:\Users\Lucas\Desktop\UnB\Droid\sekksi2016\executivo\Executivo_MAIN_mark001.nxc"
18	322	37	#pragma macro 26
18	322	37		acquire __RLSBmutex0
18	322	38		mov __RLSReadBuf0, __RLSBbufLSWrite1
18	322	40		set __RLSBytesCount0, 1
18	322	43		waitv __constVal15
18	322	45		subcall __ReadLSBytes0, ____ReadLSBytes0_return
18	322	47		index __D0andaRetoDireita, __RLSReadBuf0, 65535
18	322	51		release __RLSBmutex0
18	9962	52	#line 9962 "C:\Users\Lucas\Desktop\UnB\Droid\sekksi2016\executivo\Executivo_MAIN_mark001.nxc"
18	321	52	#line 321 "C:\Users\Lucas\Desktop\UnB\Droid\sekksi2016\executivo\Executivo_MAIN_mark001.nxc"
18	322	52		mov __andaRetoDireita_7qG2_distanciaAtual_7qG2_000, __D0andaRetoDireita
18	321	54	#line 321 "C:\Users\Lucas\Desktop\UnB\Droid\sekksi2016\executivo\Executivo_MAIN_mark001.nxc"
18	321	54	#line 321 "C:\Users\Lucas\Desktop\UnB\Droid\sekksi2016\executivo\Executivo_MAIN_mark001.nxc"
18	323	54	#line 323 "C:\Users\Lucas\Desktop\UnB\Droid\sekksi2016\executivo\Executivo_MAIN_mark001.nxc"
18	323	54	#line 323 "C:\Users\Lucas\Desktop\UnB\Droid\sekksi2016\executivo\Executivo_MAIN_mark001.nxc"
18	324	54		mov __signed_stack_001andaRetoDireita, __D0andaRetoDireita
18	323	56	#line 323 "C:\Users\Lucas\Desktop\UnB\Droid\sekksi2016\executivo\Executivo_MAIN_mark001.nxc"
18	324	56		mov __D0andaRetoDireita, __andaRetoDireita_7qG2_distParede_7qG2_000
18	323	58	#line 323 "C:\Users\Lucas\Desktop\UnB\Droid\sekksi2016\executivo\Executivo_MAIN_mark001.nxc"
18	324	58		cmp 4, __D0andaRetoDireita, __signed_stack_001andaRetoDireita, __D0andaRetoDireita
18	324	62	#line 324 "C:\Users\Lucas\Desktop\UnB\Droid\sekksi2016\executivo\Executivo_MAIN_mark001.nxc"
18	325	62		brtst 4, __ASM_Label_863, __D0andaRetoDireita
18	324	65	#line 324 "C:\Users\Lucas\Desktop\UnB\Droid\sekksi2016\executivo\Executivo_MAIN_mark001.nxc"
18	325	65		set __andaRetoDireita_7qG2_potd_7qG2_000, 90
18	324	68	#line 324 "C:\Users\Lucas\Desktop\UnB\Droid\sekksi2016\executivo\Executivo_MAIN_mark001.nxc"
18	324	68	#line 324 "C:\Users\Lucas\Desktop\UnB\Droid\sekksi2016\executivo\Executivo_MAIN_mark001.nxc"
18	325	68	#line 325 "C:\Users\Lucas\Desktop\UnB\Droid\sekksi2016\executivo\Executivo_MAIN_mark001.nxc"
18	326	68		set __andaRetoDireita_7qG2_pote_7qG2_000, 90
18	325	71	#line 325 "C:\Users\Lucas\Desktop\UnB\Droid\sekksi2016\executivo\Executivo_MAIN_mark001.nxc"
18	325	71	#line 325 "C:\Users\Lucas\Desktop\UnB\Droid\sekksi2016\executivo\Executivo_MAIN_mark001.nxc"
18	327	71	#line 327 "C:\Users\Lucas\Desktop\UnB\Droid\sekksi2016\executivo\Executivo_MAIN_mark001.nxc"
18	328	71		jmp __ASM_Label_868
18	327	73	#line 327 "C:\Users\Lucas\Desktop\UnB\Droid\sekksi2016\executivo\Executivo_MAIN_mark001.nxc"
18	328	73		mov __signed_stack_001andaRetoDireita, __andaRetoDireita_7qG2_distanciaAtual_7qG2_000
18	327	75	#line 327 "C:\Users\Lucas\Desktop\UnB\Droid\sekksi2016\executivo\Executivo_MAIN_mark001.nxc"
18	327	75	#line 327 "C:\Users\Lucas\Desktop\UnB\Droid\sekksi2016\executivo\Executivo_MAIN_mark001.nxc"
18	328	75		mov __D0andaRetoDireita, __andaRetoDireita_7qG2_distParede_7qG2_000
18	327	77	#line 327 "C:\Users\Lucas\Desktop\UnB\Droid\sekksi2016\executivo\Executivo_MAIN_mark001.nxc"
18	328	77		cmp 1, __D0andaRetoDireita, __signed_stack_001andaRetoDireita, __D0andaRetoDireita
18	328	81	#line 328 "C:\Users\Lucas\Desktop\UnB\Droid\sekksi2016\executivo\Executivo_MAIN_mark001.nxc"
18	329	81		brtst 4, __ASM_Label_871, __D0andaRetoDireita
18	328	84	#line 328 "C:\Users\Lucas\Desktop\UnB\Droid\sekksi2016\executivo\Executivo_MAIN_mark001.nxc"
18	329	84		set __andaRetoDireita_7qG2_pote_7qG2_000, 90
18	328	87	#line 328 "C:\Users\Lucas\Desktop\UnB\Droid\sekksi2016\executivo\Executivo_MAIN_mark001.nxc"
18	328	87	#line 328 "C:\Users\Lucas\Desktop\UnB\Droid\sekksi2016\executivo\Executivo_MAIN_mark001.nxc"
18	329	87	#line 329 "C:\Users\Lucas\Desktop\UnB\Droid\sekksi2016\executivo\Executivo_MAIN_mark001.nxc"
18	330	87		set __andaRetoDireita_7qG2_potd_7qG2_000, 70
18	329	90	#line 329 "C:\Users\Lucas\Desktop\UnB\Droid\sekksi2016\executivo\Executivo_MAIN_mark001.nxc"
18	329	90	#line 329 "C:\Users\Lucas\Desktop\UnB\Droid\sekksi2016\executivo\Executivo_MAIN_mark001.nxc"
18	331	90	#line 331 "C:\Users\Lucas\Desktop\UnB\Droid\sekksi2016\executivo\Executivo_MAIN_mark001.nxc"
18	332	90		jmp __ASM_Label_876
18	331	92	#line 331 "C:\Users\Lucas\Desktop\UnB\Droid\sekksi2016\executivo\Executivo_MAIN_mark001.nxc"
18	332	92		mov __signed_stack_001andaRetoDireita, __andaRetoDireita_7qG2_distanciaAtual_7qG2_000
18	331	94	#line 331 "C:\Users\Lucas\Desktop\UnB\Droid\sekksi2016\executivo\Executivo_MAIN_mark001.nxc"
18	331	94	#line 331 "C:\Users\Lucas\Desktop\UnB\Droid\sekksi2016\executivo\Executivo_MAIN_mark001.nxc"
18	332	94		mov __D0andaRetoDireita, __andaRetoDireita_7qG2_distParede_7qG2_000
18	331	96	#line 331 "C:\Users\Lucas\Desktop\UnB\Droid\sekksi2016\executivo\Executivo_MAIN_mark001.nxc"
18	332	96		cmp 0, __D0andaRetoDireita, __signed_stack_001andaRetoDireita, __D0andaRetoDireita
18	332	100	#line 332 "C:\Users\Lucas\Desktop\UnB\Droid\sekksi2016\executivo\Executivo_MAIN_mark001.nxc"
18	333	100		brtst 4, __ASM_Label_879, __D0andaRetoDireita
18	332	103	#line 332 "C:\Users\Lucas\Desktop\UnB\Droid\sekksi2016\executivo\Executivo_MAIN_mark001.nxc"
18	333	103		set __andaRetoDireita_7qG2_pote_7qG2_000, 70
18	332	106	#line 332 "C:\Users\Lucas\Desktop\UnB\Droid\sekksi2016\executivo\Executivo_MAIN_mark001.nxc"
18	332	106	#line 332 "C:\Users\Lucas\Desktop\UnB\Droid\sekksi2016\executivo\Executivo_MAIN_mark001.nxc"
18	333	106	#line 333 "C:\Users\Lucas\Desktop\UnB\Droid\sekksi2016\executivo\Executivo_MAIN_mark001.nxc"
18	334	106		set __andaRetoDireita_7qG2_potd_7qG2_000, 90
18	333	109	#line 333 "C:\Users\Lucas\Desktop\UnB\Droid\sekksi2016\executivo\Executivo_MAIN_mark001.nxc"
18	333	109	#line 333 "C:\Users\Lucas\Desktop\UnB\Droid\sekksi2016\executivo\Executivo_MAIN_mark001.nxc"
18	336	109	#line 336 "C:\Users\Lucas\Desktop\UnB\Droid\sekksi2016\executivo\Executivo_MAIN_mark001.nxc"
18	336	109	#line 336 "C:\Users\Lucas\Desktop\UnB\Droid\sekksi2016\executivo\Executivo_MAIN_mark001.nxc"
18	336	109	#line 336 "C:\Users\Lucas\Desktop\UnB\Droid\sekksi2016\executivo\Executivo_MAIN_mark001.nxc"
18	336	109	#line 336 "C:\Users\Lucas\Desktop\UnB\Droid\sekksi2016\executivo\Executivo_MAIN_mark001.nxc"
18	337	109		getout __D0andaRetoDireita, __constVal1, 4
18	336	113	#line 336 "C:\Users\Lucas\Desktop\UnB\Droid\sekksi2016\executivo\Executivo_MAIN_mark001.nxc"
18	337	113		add my_tc_d, my_tc_d, __D0andaRetoDireita
18	336	117	#line 336 "C:\Users\Lucas\Desktop\UnB\Droid\sekksi2016\executivo\Executivo_MAIN_mark001.nxc"
18	337	117	#line 337 "C:\Users\Lucas\Desktop\UnB\Droid\sekksi2016\executivo\Executivo_MAIN_mark001.nxc"
18	338	117		mov __D0andaRetoDireita, __andaRetoDireita_7qG2_potd_7qG2_000
18	337	119	#line 337 "C:\Users\Lucas\Desktop\UnB\Droid\sekksi2016\executivo\Executivo_MAIN_mark001.nxc"
18	338	119	#pragma macro 7
18	338	119		setout __constVal1, 2, __D0andaRetoDireita, 1, __constVal3, 8, __constVal0, 6, __constVal32, 7, __constVal0, 5, __constVal0, 10, __constVal96, 11, __constVal32, 12, __constVal32, 0, __constVal63
18	10065	142	#line 10065 "C:\Users\Lucas\Desktop\UnB\Droid\sekksi2016\executivo\Executivo_MAIN_mark001.nxc"
18	337	142	#line 337 "C:\Users\Lucas\Desktop\UnB\Droid\sekksi2016\executivo\Executivo_MAIN_mark001.nxc"
18	338	142	#line 338 "C:\Users\Lucas\Desktop\UnB\Droid\sekksi2016\executivo\Executivo_MAIN_mark001.nxc"
18	339	142		getout __D0andaRetoDireita, __constVal0, 4
18	338	146	#line 338 "C:\Users\Lucas\Desktop\UnB\Droid\sekksi2016\executivo\Executivo_MAIN_mark001.nxc"
18	339	146		add my_tc_e, my_tc_e, __D0andaRetoDireita
18	338	150	#line 338 "C:\Users\Lucas\Desktop\UnB\Droid\sekksi2016\executivo\Executivo_MAIN_mark001.nxc"
18	339	150	#line 339 "C:\Users\Lucas\Desktop\UnB\Droid\sekksi2016\executivo\Executivo_MAIN_mark001.nxc"
18	340	150		mov __D0andaRetoDireita, __andaRetoDireita_7qG2_pote_7qG2_000
18	339	152	#line 339 "C:\Users\Lucas\Desktop\UnB\Droid\sekksi2016\executivo\Executivo_MAIN_mark001.nxc"
18	340	152	#pragma macro 7
18	340	152		setout __constVal0, 2, __D0andaRetoDireita, 1, __constVal3, 8, __constVal0, 6, __constVal32, 7, __constVal0, 5, __constVal0, 10, __constVal96, 11, __constVal32, 12, __constVal32, 0, __constVal63
18	10079	175	#line 10079 "C:\Users\Lucas\Desktop\UnB\Droid\sekksi2016\executivo\Executivo_MAIN_mark001.nxc"
18	339	175	#line 339 "C:\Users\Lucas\Desktop\UnB\Droid\sekksi2016\executivo\Executivo_MAIN_mark001.nxc"
18	343	175	#line 343 "C:\Users\Lucas\Desktop\UnB\Droid\sekksi2016\executivo\Executivo_MAIN_mark001.nxc"
18	344	175		jmp __ASM_Label_849
18	343	177	#line 343 "C:\Users\Lucas\Desktop\UnB\Droid\sekksi2016\executivo\Executivo_MAIN_mark001.nxc"
18	343	177	#line 343 "C:\Users\Lucas\Desktop\UnB\Droid\sekksi2016\executivo\Executivo_MAIN_mark001.nxc"
18	344	177	#pragma macro 7
18	344	177		setout __constVal1, 2, __constVal0, 1, __constVal3, 8, __constVal0, 6, __constVal32, 7, __constVal0, 5, __constVal0, 10, __constVal96, 11, __constVal32, 12, __constVal32, 0, __constVal63
18	10086	200	#line 10086 "C:\Users\Lucas\Desktop\UnB\Droid\sekksi2016\executivo\Executivo_MAIN_mark001.nxc"
18	343	200	#line 343 "C:\Users\Lucas\Desktop\UnB\Droid\sekksi2016\executivo\Executivo_MAIN_mark001.nxc"
18	344	200	#line 344 "C:\Users\Lucas\Desktop\UnB\Droid\sekksi2016\executivo\Executivo_MAIN_mark001.nxc"
18	345	200	#pragma macro 7
18	345	200		setout __constVal0, 2, __constVal0, 1, __constVal3, 8, __constVal0, 6, __constVal32, 7, __constVal0, 5, __constVal0, 10, __constVal96, 11, __constVal32, 12, __constVal32, 0, __constVal63
18	10089	223	#line 10089 "C:\Users\Lucas\Desktop\UnB\Droid\sekksi2016\executivo\Executivo_MAIN_mark001.nxc"
18	344	223	#line 344 "C:\Users\Lucas\Desktop\UnB\Droid\sekksi2016\executivo\Executivo_MAIN_mark001.nxc"
18	351	223	#line 351 "C:\Users\Lucas\Desktop\UnB\Droid\sekksi2016\executivo\Executivo_MAIN_mark001.nxc"
18	352	223		subret __andaRetoDireita_return
19	400	0	#line 400 "C:\Users\Lucas\Desktop\UnB\Droid\sekksi2016\executivo\Executivo_MAIN_mark001.nxc"
19	400	0	#line 400 "C:\Users\Lucas\Desktop\UnB\Droid\sekksi2016\executivo\Executivo_MAIN_mark001.nxc"
19	400	0	#line 400 "C:\Users\Lucas\Desktop\UnB\Droid\sekksi2016\executivo\Executivo_MAIN_mark001.nxc"
19	400	0	#line 400 "C:\Users\Lucas\Desktop\UnB\Droid\sekksi2016\executivo\Executivo_MAIN_mark001.nxc"
19	402	0	#line 402 "C:\Users\Lucas\Desktop\UnB\Droid\sekksi2016\executivo\Executivo_MAIN_mark001.nxc"
19	403	0		subcall inicializaSensores, __inicializaSensores_return
19	402	2	#line 402 "C:\Users\Lucas\Desktop\UnB\Droid\sekksi2016\executivo\Executivo_MAIN_mark001.nxc"
19	403	2	#line 403 "C:\Users\Lucas\Desktop\UnB\Droid\sekksi2016\executivo\Executivo_MAIN_mark001.nxc"
19	404	2		subcall desligaBlue, __desligaBlue_return
19	403	4	#line 403 "C:\Users\Lucas\Desktop\UnB\Droid\sekksi2016\executivo\Executivo_MAIN_mark001.nxc"
19	404	4	#line 404 "C:\Users\Lucas\Desktop\UnB\Droid\sekksi2016\executivo\Executivo_MAIN_mark001.nxc"
19	405	4		subcall iniciaBlue, __iniciaBlue_return
19	404	6	#line 404 "C:\Users\Lucas\Desktop\UnB\Droid\sekksi2016\executivo\Executivo_MAIN_mark001.nxc"
19	407	6	#line 407 "C:\Users\Lucas\Desktop\UnB\Droid\sekksi2016\executivo\Executivo_MAIN_mark001.nxc"
19	408	6		set __andaRetoDireita_7qG2_distParede_7qG2_000, 8
19	407	9	#line 407 "C:\Users\Lucas\Desktop\UnB\Droid\sekksi2016\executivo\Executivo_MAIN_mark001.nxc"
19	407	9	#line 407 "C:\Users\Lucas\Desktop\UnB\Droid\sekksi2016\executivo\Executivo_MAIN_mark001.nxc"
19	408	9		set __andaRetoDireita_7qG2_distAndar_7qG2_000, 10
19	407	12	#line 407 "C:\Users\Lucas\Desktop\UnB\Droid\sekksi2016\executivo\Executivo_MAIN_mark001.nxc"
19	407	12	#line 407 "C:\Users\Lucas\Desktop\UnB\Droid\sekksi2016\executivo\Executivo_MAIN_mark001.nxc"
19	408	12		subcall andaRetoDireita, __andaRetoDireita_return
19	407	14	#line 407 "C:\Users\Lucas\Desktop\UnB\Droid\sekksi2016\executivo\Executivo_MAIN_mark001.nxc"
19	408	14	#line 408 "C:\Users\Lucas\Desktop\UnB\Droid\sekksi2016\executivo\Executivo_MAIN_mark001.nxc"
19	409	14		set __vira_7qG2_angulo_7qG2_000, 90
19	408	17	#line 408 "C:\Users\Lucas\Desktop\UnB\Droid\sekksi2016\executivo\Executivo_MAIN_mark001.nxc"
19	408	17	#line 408 "C:\Users\Lucas\Desktop\UnB\Droid\sekksi2016\executivo\Executivo_MAIN_mark001.nxc"
19	409	17		set __vira_7qG2_direcao_7qG2_000, 1
19	408	20	#line 408 "C:\Users\Lucas\Desktop\UnB\Droid\sekksi2016\executivo\Executivo_MAIN_mark001.nxc"
19	408	20	#line 408 "C:\Users\Lucas\Desktop\UnB\Droid\sekksi2016\executivo\Executivo_MAIN_mark001.nxc"
19	409	20		subcall vira, __vira_return
19	408	22	#line 408 "C:\Users\Lucas\Desktop\UnB\Droid\sekksi2016\executivo\Executivo_MAIN_mark001.nxc"
19	411	22	#line 411 "C:\Users\Lucas\Desktop\UnB\Droid\sekksi2016\executivo\Executivo_MAIN_mark001.nxc"
19	412	22		subcall PrintaSensores, __PrintaSensores_return
19	411	24	#line 411 "C:\Users\Lucas\Desktop\UnB\Droid\sekksi2016\executivo\Executivo_MAIN_mark001.nxc"
19	412	24	#line 412 "C:\Users\Lucas\Desktop\UnB\Droid\sekksi2016\executivo\Executivo_MAIN_mark001.nxc"
19	413	24		subcall ChecaParada, __ChecaParada_return
19	412	26	#line 412 "C:\Users\Lucas\Desktop\UnB\Droid\sekksi2016\executivo\Executivo_MAIN_mark001.nxc"
19	414	26	#line 414 "C:\Users\Lucas\Desktop\UnB\Droid\sekksi2016\executivo\Executivo_MAIN_mark001.nxc"
19	415	26		set __andaRetoDireita_7qG2_distParede_7qG2_000, 8
19	414	29	#line 414 "C:\Users\Lucas\Desktop\UnB\Droid\sekksi2016\executivo\Executivo_MAIN_mark001.nxc"
19	414	29	#line 414 "C:\Users\Lucas\Desktop\UnB\Droid\sekksi2016\executivo\Executivo_MAIN_mark001.nxc"
19	415	29		set __andaRetoDireita_7qG2_distAndar_7qG2_000, 10
19	414	32	#line 414 "C:\Users\Lucas\Desktop\UnB\Droid\sekksi2016\executivo\Executivo_MAIN_mark001.nxc"
19	414	32	#line 414 "C:\Users\Lucas\Desktop\UnB\Droid\sekksi2016\executivo\Executivo_MAIN_mark001.nxc"
19	415	32		subcall andaRetoDireita, __andaRetoDireita_return
19	414	34	#line 414 "C:\Users\Lucas\Desktop\UnB\Droid\sekksi2016\executivo\Executivo_MAIN_mark001.nxc"
19	415	34	#line 415 "C:\Users\Lucas\Desktop\UnB\Droid\sekksi2016\executivo\Executivo_MAIN_mark001.nxc"
19	416	34		set __D0teste2COMUNICA, 5
19	415	37	#line 415 "C:\Users\Lucas\Desktop\UnB\Droid\sekksi2016\executivo\Executivo_MAIN_mark001.nxc"
19	416	37		tst 5, __D0teste2COMUNICA, __D0teste2COMUNICA
19	415	40	#line 415 "C:\Users\Lucas\Desktop\UnB\Droid\sekksi2016\executivo\Executivo_MAIN_mark001.nxc"
19	416	40		brtst 4, __ASM_Label_966, __D0teste2COMUNICA
19	415	43	#line 415 "C:\Users\Lucas\Desktop\UnB\Droid\sekksi2016\executivo\Executivo_MAIN_mark001.nxc"
19	416	43		jmp __ASM_Label_965
19	415	45	#line 415 "C:\Users\Lucas\Desktop\UnB\Droid\sekksi2016\executivo\Executivo_MAIN_mark001.nxc"
19	415	45	#line 415 "C:\Users\Lucas\Desktop\UnB\Droid\sekksi2016\executivo\Executivo_MAIN_mark001.nxc"
19	419	45	#line 419 "C:\Users\Lucas\Desktop\UnB\Droid\sekksi2016\executivo\Executivo_MAIN_mark001.nxc"
19	420	45		subret __teste2COMUNICA_return
20	420	0	#line 420 "C:\Users\Lucas\Desktop\UnB\Droid\sekksi2016\executivo\Executivo_MAIN_mark001.nxc"
20	421	0		subcall inicializaSensores, __inicializaSensores_return
20	420	2	#line 420 "C:\Users\Lucas\Desktop\UnB\Droid\sekksi2016\executivo\Executivo_MAIN_mark001.nxc"
20	6921	2	#line 6921 "NXCDefs.h"
20	6922	2	#pragma macro 6
20	6922	2		mov __PointOutArgs.Location.X, __constVal200
20	6922	5		mov __PointOutArgs.Location.Y, __constVal200
20	6922	8		mov __PointOutArgs.Options, __constVal1
20	6922	10		syscall 14, __PointOutArgs
20	10500	13	#line 10500 "NXCDefs.h"
20	6921	13	#line 6921 "NXCDefs.h"
20	422	13	#line 422 "C:\Users\Lucas\Desktop\UnB\Droid\sekksi2016\executivo\Executivo_MAIN_mark001.nxc"
20	423	13	#line 423 "C:\Users\Lucas\Desktop\UnB\Droid\sekksi2016\executivo\Executivo_MAIN_mark001.nxc"
20	424	13		set __signed_stack_001PrintaSensores, 0
20	423	16	#line 423 "C:\Users\Lucas\Desktop\UnB\Droid\sekksi2016\executivo\Executivo_MAIN_mark001.nxc"
20	423	16	#line 423 "C:\Users\Lucas\Desktop\UnB\Droid\sekksi2016\executivo\Executivo_MAIN_mark001.nxc"
20	424	16		set __signed_stack_002PrintaSensores, 56
20	423	19	#line 423 "C:\Users\Lucas\Desktop\UnB\Droid\sekksi2016\executivo\Executivo_MAIN_mark001.nxc"
20	423	19	#line 423 "C:\Users\Lucas\Desktop\UnB\Droid\sekksi2016\executivo\Executivo_MAIN_mark001.nxc"
20	424	19		strcat __strbufPrintaSensores, __constStr0015
20	423	23	#line 423 "C:\Users\Lucas\Desktop\UnB\Droid\sekksi2016\executivo\Executivo_MAIN_mark001.nxc"
20	424	23		acquire __TextOutMutex
20	423	24	#line 423 "C:\Users\Lucas\Desktop\UnB\Droid\sekksi2016\executivo\Executivo_MAIN_mark001.nxc"
20	424	24		mov __TextOutArgs.Location.X, __signed_stack_001PrintaSensores
20	423	26	#line 423 "C:\Users\Lucas\Desktop\UnB\Droid\sekksi2016\executivo\Executivo_MAIN_mark001.nxc"
20	424	26		mov __TextOutArgs.Location.Y, __signed_stack_002PrintaSensores
20	423	29	#line 423 "C:\Users\Lucas\Desktop\UnB\Droid\sekksi2016\executivo\Executivo_MAIN_mark001.nxc"
20	424	29		set __TextOutArgs.Options, 0
20	423	32	#line 423 "C:\Users\Lucas\Desktop\UnB\Droid\sekksi2016\executivo\Executivo_MAIN_mark001.nxc"
20	424	32		mov __TextOutArgs.Text, __strbufPrintaSensores
20	423	34	#line 423 "C:\Users\Lucas\Desktop\UnB\Droid\sekksi2016\executivo\Executivo_MAIN_mark001.nxc"
20	424	34		syscall 13, __TextOutArgs
20	423	37	#line 423 "C:\Users\Lucas\Desktop\UnB\Droid\sekksi2016\executivo\Executivo_MAIN_mark001.nxc"
20	424	37		mov __D0PrintaSensores, __TextOutArgs.Result
20	423	40	#line 423 "C:\Users\Lucas\Desktop\UnB\Droid\sekksi2016\executivo\Executivo_MAIN_mark001.nxc"
20	424	40		release __TextOutMutex
20	423	41	#line 423 "C:\Users\Lucas\Desktop\UnB\Droid\sekksi2016\executivo\Executivo_MAIN_mark001.nxc"
20	424	41	#line 424 "C:\Users\Lucas\Desktop\UnB\Droid\sekksi2016\executivo\Executivo_MAIN_mark001.nxc"
20	425	41		set __signed_stack_001PrintaSensores, 0
20	424	44	#line 424 "C:\Users\Lucas\Desktop\UnB\Droid\sekksi2016\executivo\Executivo_MAIN_mark001.nxc"
20	424	44	#line 424 "C:\Users\Lucas\Desktop\UnB\Droid\sekksi2016\executivo\Executivo_MAIN_mark001.nxc"
20	425	44		set __signed_stack_002PrintaSensores, 48
20	424	47	#line 424 "C:\Users\Lucas\Desktop\UnB\Droid\sekksi2016\executivo\Executivo_MAIN_mark001.nxc"
20	424	47	#line 424 "C:\Users\Lucas\Desktop\UnB\Droid\sekksi2016\executivo\Executivo_MAIN_mark001.nxc"
20	425	47	#pragma macro 26
20	425	47		acquire __RLSBmutex0
20	425	48		mov __RLSReadBuf0, __RLSBbufLSWrite1
20	425	50		set __RLSBytesCount0, 1
20	425	53		waitv __constVal15
20	425	55		subcall __ReadLSBytes0, ____ReadLSBytes0_return
20	425	57		index __D0PrintaSensores, __RLSReadBuf0, 65535
20	425	61		release __RLSBmutex0
20	10545	62	#line 10545 "C:\Users\Lucas\Desktop\UnB\Droid\sekksi2016\executivo\Executivo_MAIN_mark001.nxc"
20	424	62	#line 424 "C:\Users\Lucas\Desktop\UnB\Droid\sekksi2016\executivo\Executivo_MAIN_mark001.nxc"
20	425	62		acquire __TextOutMutex
20	424	63	#line 424 "C:\Users\Lucas\Desktop\UnB\Droid\sekksi2016\executivo\Executivo_MAIN_mark001.nxc"
20	425	63		mov __TextOutArgs.Location.X, __signed_stack_001PrintaSensores
20	424	65	#line 424 "C:\Users\Lucas\Desktop\UnB\Droid\sekksi2016\executivo\Executivo_MAIN_mark001.nxc"
20	425	65		mov __TextOutArgs.Location.Y, __signed_stack_002PrintaSensores
20	424	68	#line 424 "C:\Users\Lucas\Desktop\UnB\Droid\sekksi2016\executivo\Executivo_MAIN_mark001.nxc"
20	425	68		set __TextOutArgs.Options, 0
20	424	71	#line 424 "C:\Users\Lucas\Desktop\UnB\Droid\sekksi2016\executivo\Executivo_MAIN_mark001.nxc"
20	425	71		numtostr __TextOutArgs.Text, __D0PrintaSensores
20	424	74	#line 424 "C:\Users\Lucas\Desktop\UnB\Droid\sekksi2016\executivo\Executivo_MAIN_mark001.nxc"
20	425	74		syscall 13, __TextOutArgs
20	424	77	#line 424 "C:\Users\Lucas\Desktop\UnB\Droid\sekksi2016\executivo\Executivo_MAIN_mark001.nxc"
20	425	77		mov __D0PrintaSensores, __TextOutArgs.Result
20	424	80	#line 424 "C:\Users\Lucas\Desktop\UnB\Droid\sekksi2016\executivo\Executivo_MAIN_mark001.nxc"
20	425	80		release __TextOutMutex
20	424	81	#line 424 "C:\Users\Lucas\Desktop\UnB\Droid\sekksi2016\executivo\Executivo_MAIN_mark001.nxc"
20	424	81	#line 424 "C:\Users\Lucas\Desktop\UnB\Droid\sekksi2016\executivo\Executivo_MAIN_mark001.nxc"
20	425	81	#line 425 "C:\Users\Lucas\Desktop\UnB\Droid\sekksi2016\executivo\Executivo_MAIN_mark001.nxc"
20	426	81		set __signed_stack_001PrintaSensores, 0
20	425	84	#line 425 "C:\Users\Lucas\Desktop\UnB\Droid\sekksi2016\executivo\Executivo_MAIN_mark001.nxc"
20	425	84	#line 425 "C:\Users\Lucas\Desktop\UnB\Droid\sekksi2016\executivo\Executivo_MAIN_mark001.nxc"
20	426	84		set __signed_stack_002PrintaSensores, 40
20	425	87	#line 425 "C:\Users\Lucas\Desktop\UnB\Droid\sekksi2016\executivo\Executivo_MAIN_mark001.nxc"
20	425	87	#line 425 "C:\Users\Lucas\Desktop\UnB\Droid\sekksi2016\executivo\Executivo_MAIN_mark001.nxc"
20	426	87		strcat __strbufPrintaSensores, __constStr0016
20	425	91	#line 425 "C:\Users\Lucas\Desktop\UnB\Droid\sekksi2016\executivo\Executivo_MAIN_mark001.nxc"
20	426	91		acquire __TextOutMutex
20	425	92	#line 425 "C:\Users\Lucas\Desktop\UnB\Droid\sekksi2016\executivo\Executivo_MAIN_mark001.nxc"
20	426	92		mov __TextOutArgs.Location.X, __signed_stack_001PrintaSensores
20	425	94	#line 425 "C:\Users\Lucas\Desktop\UnB\Droid\sekksi2016\executivo\Executivo_MAIN_mark001.nxc"
20	426	94		mov __TextOutArgs.Location.Y, __signed_stack_002PrintaSensores
20	425	97	#line 425 "C:\Users\Lucas\Desktop\UnB\Droid\sekksi2016\executivo\Executivo_MAIN_mark001.nxc"
20	426	97		set __TextOutArgs.Options, 0
20	425	100	#line 425 "C:\Users\Lucas\Desktop\UnB\Droid\sekksi2016\executivo\Executivo_MAIN_mark001.nxc"
20	426	100		mov __TextOutArgs.Text, __strbufPrintaSensores
20	425	102	#line 425 "C:\Users\Lucas\Desktop\UnB\Droid\sekksi2016\executivo\Executivo_MAIN_mark001.nxc"
20	426	102		syscall 13, __TextOutArgs
20	425	105	#line 425 "C:\Users\Lucas\Desktop\UnB\Droid\sekksi2016\executivo\Executivo_MAIN_mark001.nxc"
20	426	105		mov __D0PrintaSensores, __TextOutArgs.Result
20	425	108	#line 425 "C:\Users\Lucas\Desktop\UnB\Droid\sekksi2016\executivo\Executivo_MAIN_mark001.nxc"
20	426	108		release __TextOutMutex
20	425	109	#line 425 "C:\Users\Lucas\Desktop\UnB\Droid\sekksi2016\executivo\Executivo_MAIN_mark001.nxc"
20	426	109	#line 426 "C:\Users\Lucas\Desktop\UnB\Droid\sekksi2016\executivo\Executivo_MAIN_mark001.nxc"
20	427	109		set __signed_stack_001PrintaSensores, 0
20	426	112	#line 426 "C:\Users\Lucas\Desktop\UnB\Droid\sekksi2016\executivo\Executivo_MAIN_mark001.nxc"
20	426	112	#line 426 "C:\Users\Lucas\Desktop\UnB\Droid\sekksi2016\executivo\Executivo_MAIN_mark001.nxc"
20	427	112		set __signed_stack_002PrintaSensores, 32
20	426	115	#line 426 "C:\Users\Lucas\Desktop\UnB\Droid\sekksi2016\executivo\Executivo_MAIN_mark001.nxc"
20	426	115	#line 426 "C:\Users\Lucas\Desktop\UnB\Droid\sekksi2016\executivo\Executivo_MAIN_mark001.nxc"
20	427	115	#pragma macro 26
20	427	115		acquire __RLSBmutex1
20	427	116		mov __RLSReadBuf1, __RLSBbufLSWrite1
20	427	118		set __RLSBytesCount1, 1
20	427	121		waitv __constVal15
20	427	123		subcall __ReadLSBytes1, ____ReadLSBytes1_return
20	427	125		index __D0PrintaSensores, __RLSReadBuf1, 65535
20	427	129		release __RLSBmutex1
20	10610	130	#line 10610 "C:\Users\Lucas\Desktop\UnB\Droid\sekksi2016\executivo\Executivo_MAIN_mark001.nxc"
20	426	130	#line 426 "C:\Users\Lucas\Desktop\UnB\Droid\sekksi2016\executivo\Executivo_MAIN_mark001.nxc"
20	427	130		acquire __TextOutMutex
20	426	131	#line 426 "C:\Users\Lucas\Desktop\UnB\Droid\sekksi2016\executivo\Executivo_MAIN_mark001.nxc"
20	427	131		mov __TextOutArgs.Location.X, __signed_stack_001PrintaSensores
20	426	133	#line 426 "C:\Users\Lucas\Desktop\UnB\Droid\sekksi2016\executivo\Executivo_MAIN_mark001.nxc"
20	427	133		mov __TextOutArgs.Location.Y, __signed_stack_002PrintaSensores
20	426	136	#line 426 "C:\Users\Lucas\Desktop\UnB\Droid\sekksi2016\executivo\Executivo_MAIN_mark001.nxc"
20	427	136		set __TextOutArgs.Options, 0
20	426	139	#line 426 "C:\Users\Lucas\Desktop\UnB\Droid\sekksi2016\executivo\Executivo_MAIN_mark001.nxc"
20	427	139		numtostr __TextOutArgs.Text, __D0PrintaSensores
20	426	142	#line 426 "C:\Users\Lucas\Desktop\UnB\Droid\sekksi2016\executivo\Executivo_MAIN_mark001.nxc"
20	427	142		syscall 13, __TextOutArgs
20	426	145	#line 426 "C:\Users\Lucas\Desktop\UnB\Droid\sekksi2016\executivo\Executivo_MAIN_mark001.nxc"
20	427	145		mov __D0PrintaSensores, __TextOutArgs.Result
20	426	148	#line 426 "C:\Users\Lucas\Desktop\UnB\Droid\sekksi2016\executivo\Executivo_MAIN_mark001.nxc"
20	427	148		release __TextOutMutex
20	426	149	#line 426 "C:\Users\Lucas\Desktop\UnB\Droid\sekksi2016\executivo\Executivo_MAIN_mark001.nxc"
20	426	149	#line 426 "C:\Users\Lucas\Desktop\UnB\Droid\sekksi2016\executivo\Executivo_MAIN_mark001.nxc"
20	427	149	#line 427 "C:\Users\Lucas\Desktop\UnB\Droid\sekksi2016\executivo\Executivo_MAIN_mark001.nxc"
20	428	149		set __signed_stack_001PrintaSensores, 0
20	427	152	#line 427 "C:\Users\Lucas\Desktop\UnB\Droid\sekksi2016\executivo\Executivo_MAIN_mark001.nxc"
20	427	152	#line 427 "C:\Users\Lucas\Desktop\UnB\Droid\sekksi2016\executivo\Executivo_MAIN_mark001.nxc"
20	428	152		set __signed_stack_002PrintaSensores, 24
20	427	155	#line 427 "C:\Users\Lucas\Desktop\UnB\Droid\sekksi2016\executivo\Executivo_MAIN_mark001.nxc"
20	427	155	#line 427 "C:\Users\Lucas\Desktop\UnB\Droid\sekksi2016\executivo\Executivo_MAIN_mark001.nxc"
20	428	155		strcat __strbufPrintaSensores, __constStr0017
20	427	159	#line 427 "C:\Users\Lucas\Desktop\UnB\Droid\sekksi2016\executivo\Executivo_MAIN_mark001.nxc"
20	428	159		acquire __TextOutMutex
20	427	160	#line 427 "C:\Users\Lucas\Desktop\UnB\Droid\sekksi2016\executivo\Executivo_MAIN_mark001.nxc"
20	428	160		mov __TextOutArgs.Location.X, __signed_stack_001PrintaSensores
20	427	162	#line 427 "C:\Users\Lucas\Desktop\UnB\Droid\sekksi2016\executivo\Executivo_MAIN_mark001.nxc"
20	428	162		mov __TextOutArgs.Location.Y, __signed_stack_002PrintaSensores
20	427	165	#line 427 "C:\Users\Lucas\Desktop\UnB\Droid\sekksi2016\executivo\Executivo_MAIN_mark001.nxc"
20	428	165		set __TextOutArgs.Options, 0
20	427	168	#line 427 "C:\Users\Lucas\Desktop\UnB\Droid\sekksi2016\executivo\Executivo_MAIN_mark001.nxc"
20	428	168		mov __TextOutArgs.Text, __strbufPrintaSensores
20	427	170	#line 427 "C:\Users\Lucas\Desktop\UnB\Droid\sekksi2016\executivo\Executivo_MAIN_mark001.nxc"
20	428	170		syscall 13, __TextOutArgs
20	427	173	#line 427 "C:\Users\Lucas\Desktop\UnB\Droid\sekksi2016\executivo\Executivo_MAIN_mark001.nxc"
20	428	173		mov __D0PrintaSensores, __TextOutArgs.Result
20	427	176	#line 427 "C:\Users\Lucas\Desktop\UnB\Droid\sekksi2016\executivo\Executivo_MAIN_mark001.nxc"
20	428	176		release __TextOutMutex
20	427	177	#line 427 "C:\Users\Lucas\Desktop\UnB\Droid\sekksi2016\executivo\Executivo_MAIN_mark001.nxc"
20	428	177	#line 428 "C:\Users\Lucas\Desktop\UnB\Droid\sekksi2016\executivo\Executivo_MAIN_mark001.nxc"
20	429	177		set __signed_stack_001PrintaSensores, 0
20	428	180	#line 428 "C:\Users\Lucas\Desktop\UnB\Droid\sekksi2016\executivo\Executivo_MAIN_mark001.nxc"
20	428	180	#line 428 "C:\Users\Lucas\Desktop\UnB\Droid\sekksi2016\executivo\Executivo_MAIN_mark001.nxc"
20	429	180		set __signed_stack_002PrintaSensores, 16
20	428	183	#line 428 "C:\Users\Lucas\Desktop\UnB\Droid\sekksi2016\executivo\Executivo_MAIN_mark001.nxc"
20	428	183	#line 428 "C:\Users\Lucas\Desktop\UnB\Droid\sekksi2016\executivo\Executivo_MAIN_mark001.nxc"
20	429	183	#pragma macro 24
20	429	183		acquire __RLSBmutex2
20	429	184		mov __RLSReadBuf2, __RLSBbufLSWrite1
20	429	186		set __RLSBytesCount2, 1
20	429	189		subcall __ReadLSBytes2, ____ReadLSBytes2_return
20	429	191		index __D0PrintaSensores, __RLSReadBuf2, 65535
20	429	195		release __RLSBmutex2
20	10675	196	#line 10675 "C:\Users\Lucas\Desktop\UnB\Droid\sekksi2016\executivo\Executivo_MAIN_mark001.nxc"
20	428	196	#line 428 "C:\Users\Lucas\Desktop\UnB\Droid\sekksi2016\executivo\Executivo_MAIN_mark001.nxc"
20	429	196		acquire __TextOutMutex
20	428	197	#line 428 "C:\Users\Lucas\Desktop\UnB\Droid\sekksi2016\executivo\Executivo_MAIN_mark001.nxc"
20	429	197		mov __TextOutArgs.Location.X, __signed_stack_001PrintaSensores
20	428	199	#line 428 "C:\Users\Lucas\Desktop\UnB\Droid\sekksi2016\executivo\Executivo_MAIN_mark001.nxc"
20	429	199		mov __TextOutArgs.Location.Y, __signed_stack_002PrintaSensores
20	428	202	#line 428 "C:\Users\Lucas\Desktop\UnB\Droid\sekksi2016\executivo\Executivo_MAIN_mark001.nxc"
20	429	202		set __TextOutArgs.Options, 0
20	428	205	#line 428 "C:\Users\Lucas\Desktop\UnB\Droid\sekksi2016\executivo\Executivo_MAIN_mark001.nxc"
20	429	205		numtostr __TextOutArgs.Text, __D0PrintaSensores
20	428	208	#line 428 "C:\Users\Lucas\Desktop\UnB\Droid\sekksi2016\executivo\Executivo_MAIN_mark001.nxc"
20	429	208		syscall 13, __TextOutArgs
20	428	211	#line 428 "C:\Users\Lucas\Desktop\UnB\Droid\sekksi2016\executivo\Executivo_MAIN_mark001.nxc"
20	429	211		mov __D0PrintaSensores, __TextOutArgs.Result
20	428	214	#line 428 "C:\Users\Lucas\Desktop\UnB\Droid\sekksi2016\executivo\Executivo_MAIN_mark001.nxc"
20	429	214		release __TextOutMutex
20	428	215	#line 428 "C:\Users\Lucas\Desktop\UnB\Droid\sekksi2016\executivo\Executivo_MAIN_mark001.nxc"
20	428	215	#line 428 "C:\Users\Lucas\Desktop\UnB\Droid\sekksi2016\executivo\Executivo_MAIN_mark001.nxc"
20	429	215	#line 429 "C:\Users\Lucas\Desktop\UnB\Droid\sekksi2016\executivo\Executivo_MAIN_mark001.nxc"
20	430	215		set __signed_stack_001PrintaSensores, 0
20	429	218	#line 429 "C:\Users\Lucas\Desktop\UnB\Droid\sekksi2016\executivo\Executivo_MAIN_mark001.nxc"
20	429	218	#line 429 "C:\Users\Lucas\Desktop\UnB\Droid\sekksi2016\executivo\Executivo_MAIN_mark001.nxc"
20	430	218		set __signed_stack_002PrintaSensores, 8
20	429	221	#line 429 "C:\Users\Lucas\Desktop\UnB\Droid\sekksi2016\executivo\Executivo_MAIN_mark001.nxc"
20	429	221	#line 429 "C:\Users\Lucas\Desktop\UnB\Droid\sekksi2016\executivo\Executivo_MAIN_mark001.nxc"
20	430	221		strcat __strbufPrintaSensores, __constStr0018
20	429	225	#line 429 "C:\Users\Lucas\Desktop\UnB\Droid\sekksi2016\executivo\Executivo_MAIN_mark001.nxc"
20	430	225		acquire __TextOutMutex
20	429	226	#line 429 "C:\Users\Lucas\Desktop\UnB\Droid\sekksi2016\executivo\Executivo_MAIN_mark001.nxc"
20	430	226		mov __TextOutArgs.Location.X, __signed_stack_001PrintaSensores
20	429	228	#line 429 "C:\Users\Lucas\Desktop\UnB\Droid\sekksi2016\executivo\Executivo_MAIN_mark001.nxc"
20	430	228		mov __TextOutArgs.Location.Y, __signed_stack_002PrintaSensores
20	429	231	#line 429 "C:\Users\Lucas\Desktop\UnB\Droid\sekksi2016\executivo\Executivo_MAIN_mark001.nxc"
20	430	231		set __TextOutArgs.Options, 0
20	429	234	#line 429 "C:\Users\Lucas\Desktop\UnB\Droid\sekksi2016\executivo\Executivo_MAIN_mark001.nxc"
20	430	234		mov __TextOutArgs.Text, __strbufPrintaSensores
20	429	236	#line 429 "C:\Users\Lucas\Desktop\UnB\Droid\sekksi2016\executivo\Executivo_MAIN_mark001.nxc"
20	430	236		syscall 13, __TextOutArgs
20	429	239	#line 429 "C:\Users\Lucas\Desktop\UnB\Droid\sekksi2016\executivo\Executivo_MAIN_mark001.nxc"
20	430	239		mov __D0PrintaSensores, __TextOutArgs.Result
20	429	242	#line 429 "C:\Users\Lucas\Desktop\UnB\Droid\sekksi2016\executivo\Executivo_MAIN_mark001.nxc"
20	430	242		release __TextOutMutex
20	429	243	#line 429 "C:\Users\Lucas\Desktop\UnB\Droid\sekksi2016\executivo\Executivo_MAIN_mark001.nxc"
20	430	243	#line 430 "C:\Users\Lucas\Desktop\UnB\Droid\sekksi2016\executivo\Executivo_MAIN_mark001.nxc"
20	431	243		set __signed_stack_001PrintaSensores, 0
20	430	246	#line 430 "C:\Users\Lucas\Desktop\UnB\Droid\sekksi2016\executivo\Executivo_MAIN_mark001.nxc"
20	430	246	#line 430 "C:\Users\Lucas\Desktop\UnB\Droid\sekksi2016\executivo\Executivo_MAIN_mark001.nxc"
20	431	246		set __signed_stack_002PrintaSensores, 0
20	430	249	#line 430 "C:\Users\Lucas\Desktop\UnB\Droid\sekksi2016\executivo\Executivo_MAIN_mark001.nxc"
20	430	249	#line 430 "C:\Users\Lucas\Desktop\UnB\Droid\sekksi2016\executivo\Executivo_MAIN_mark001.nxc"
20	431	249	#pragma macro 24
20	431	249		acquire __RLSBmutex3
20	431	250		mov __RLSReadBuf3, __RLSBbufLSWrite1
20	431	252		set __RLSBytesCount3, 1
20	431	255		subcall __ReadLSBytes3, ____ReadLSBytes3_return
20	431	257		index __D0PrintaSensores, __RLSReadBuf3, 65535
20	431	261		release __RLSBmutex3
20	10740	262	#line 10740 "C:\Users\Lucas\Desktop\UnB\Droid\sekksi2016\executivo\Executivo_MAIN_mark001.nxc"
20	430	262	#line 430 "C:\Users\Lucas\Desktop\UnB\Droid\sekksi2016\executivo\Executivo_MAIN_mark001.nxc"
20	431	262		acquire __TextOutMutex
20	430	263	#line 430 "C:\Users\Lucas\Desktop\UnB\Droid\sekksi2016\executivo\Executivo_MAIN_mark001.nxc"
20	431	263		mov __TextOutArgs.Location.X, __signed_stack_001PrintaSensores
20	430	265	#line 430 "C:\Users\Lucas\Desktop\UnB\Droid\sekksi2016\executivo\Executivo_MAIN_mark001.nxc"
20	431	265		mov __TextOutArgs.Location.Y, __signed_stack_002PrintaSensores
20	430	268	#line 430 "C:\Users\Lucas\Desktop\UnB\Droid\sekksi2016\executivo\Executivo_MAIN_mark001.nxc"
20	431	268		set __TextOutArgs.Options, 0
20	430	271	#line 430 "C:\Users\Lucas\Desktop\UnB\Droid\sekksi2016\executivo\Executivo_MAIN_mark001.nxc"
20	431	271		numtostr __TextOutArgs.Text, __D0PrintaSensores
20	430	274	#line 430 "C:\Users\Lucas\Desktop\UnB\Droid\sekksi2016\executivo\Executivo_MAIN_mark001.nxc"
20	431	274		syscall 13, __TextOutArgs
20	430	277	#line 430 "C:\Users\Lucas\Desktop\UnB\Droid\sekksi2016\executivo\Executivo_MAIN_mark001.nxc"
20	431	277		mov __D0PrintaSensores, __TextOutArgs.Result
20	430	280	#line 430 "C:\Users\Lucas\Desktop\UnB\Droid\sekksi2016\executivo\Executivo_MAIN_mark001.nxc"
20	431	280		release __TextOutMutex
20	430	281	#line 430 "C:\Users\Lucas\Desktop\UnB\Droid\sekksi2016\executivo\Executivo_MAIN_mark001.nxc"
20	430	281	#line 430 "C:\Users\Lucas\Desktop\UnB\Droid\sekksi2016\executivo\Executivo_MAIN_mark001.nxc"
20	431	281	#line 431 "C:\Users\Lucas\Desktop\UnB\Droid\sekksi2016\executivo\Executivo_MAIN_mark001.nxc"
20	432	281		set __Wait_7qG2_ms_7qG2_000_inline_PrintaSensores, 70
20	431	284	#line 431 "C:\Users\Lucas\Desktop\UnB\Droid\sekksi2016\executivo\Executivo_MAIN_mark001.nxc"
20	8869	284	#line 8869 "NXCDefs.h"
20	8870	284		waitv __Wait_7qG2_ms_7qG2_000_inline_PrintaSensores
20	8869	286	#line 8869 "NXCDefs.h"
20	431	286	#line 431 "C:\Users\Lucas\Desktop\UnB\Droid\sekksi2016\executivo\Executivo_MAIN_mark001.nxc"
20	435	286	#line 435 "C:\Users\Lucas\Desktop\UnB\Droid\sekksi2016\executivo\Executivo_MAIN_mark001.nxc"
20	436	286		subret __PrintaSensores_return
21	441	0	#line 441 "C:\Users\Lucas\Desktop\UnB\Droid\sekksi2016\executivo\Executivo_MAIN_mark001.nxc"
21	442	0		subret ____initialize_global_data_return
#CLUMPS
Clump	Name	Offset	File
0	main	0	C:\Users\Lucas\Desktop\UnB\Droid\sekksi2016\executivo\Executivo_MAIN_mark001.nxc
1	__ResetSensorSubroutine	7	NXTDefs.h
2	__ReadLSBytes0	20	NXTDefs.h
3	__ReadLSBytes1	113	NXTDefs.h
4	__ReadLSBytes2	205	NXTDefs.h
5	__ReadLSBytes3	295	NXTDefs.h
6	PlaySound	384	NXCDefs.h
7	distanciaTachoCount	812	C:\Users\Lucas\Desktop\UnB\Droid\sekksi2016\executivo\Executivo_MAIN_mark001.nxc
8	inicializaSensores	823	C:\Users\Lucas\Desktop\UnB\Droid\sekksi2016\executivo\Executivo_MAIN_mark001.nxc
9	iniciaBlue	1001	C:\Users\Lucas\Desktop\UnB\Droid\sekksi2016\executivo\Executivo_MAIN_mark001.nxc
10	desligaBlue	1049	C:\Users\Lucas\Desktop\UnB\Droid\sekksi2016\executivo\Executivo_MAIN_mark001.nxc
11	distanciaGiro	1121	C:\Users\Lucas\Desktop\UnB\Droid\sekksi2016\executivo\Executivo_MAIN_mark001.nxc
12	vira	1141	C:\Users\Lucas\Desktop\UnB\Droid\sekksi2016\executivo\Executivo_MAIN_mark001.nxc
13	Para	1438	C:\Users\Lucas\Desktop\UnB\Droid\sekksi2016\executivo\Executivo_MAIN_mark001.nxc
14	Bip	1486	C:\Users\Lucas\Desktop\UnB\Droid\sekksi2016\executivo\Executivo_MAIN_mark001.nxc
15	ChecaParada	1503	C:\Users\Lucas\Desktop\UnB\Droid\sekksi2016\executivo\Executivo_MAIN_mark001.nxc
16	LeUSFRENTE	1638	C:\Users\Lucas\Desktop\UnB\Droid\sekksi2016\executivo\Executivo_MAIN_mark001.nxc
17	LeGARRA	1650	C:\Users\Lucas\Desktop\UnB\Droid\sekksi2016\executivo\Executivo_MAIN_mark001.nxc
18	andaRetoDireita	2314	C:\Users\Lucas\Desktop\UnB\Droid\sekksi2016\executivo\Executivo_MAIN_mark001.nxc
19	teste2COMUNICA	2539	C:\Users\Lucas\Desktop\UnB\Droid\sekksi2016\executivo\Executivo_MAIN_mark001.nxc
20	PrintaSensores	2586	C:\Users\Lucas\Desktop\UnB\Droid\sekksi2016\executivo\Executivo_MAIN_mark001.nxc
21	__initialize_global_data	2874	C:\Users\Lucas\Desktop\UnB\Droid\sekksi2016\executivo\Executivo_MAIN_mark001.nxc
